
Debug/bin\Ascensor_v6_5.elf:     file format elf32-littlearm


Disassembly of section .text:

00000000 <g_pfnVectors>:
       0:	2c 0b 00 20 7d 2e 00 00 e9 2e 00 00 e9 2e 00 00     ,.. }...........
      10:	e9 2e 00 00 e9 2e 00 00 e9 2e 00 00 00 00 00 00     ................
	...
      2c:	e9 2e 00 00 e9 2e 00 00 00 00 00 00 e9 2e 00 00     ................
      3c:	35 1a 00 00 e9 2e 00 00 e9 2e 00 00 e9 2e 00 00     5...............
      4c:	e9 2e 00 00 e9 2e 00 00 e9 2e 00 00 e9 2e 00 00     ................
      5c:	e9 2e 00 00 e9 2e 00 00 e9 2e 00 00 e9 2e 00 00     ................
      6c:	e9 2e 00 00 e9 2e 00 00 e9 2e 00 00 e9 2e 00 00     ................
      7c:	e9 2e 00 00 e9 2e 00 00 e9 2e 00 00 e9 2e 00 00     ................
      8c:	c5 0e 00 00 e9 2e 00 00 e9 2e 00 00 e9 2e 00 00     ................
      9c:	e9 2e 00 00 e9 2e 00 00 e9 2e 00 00 e9 2e 00 00     ................
      ac:	e9 2e 00 00 e9 2e 00 00 e9 2e 00 00 e9 2e 00 00     ................
      bc:	e9 2e 00 00 e9 2e 00 00 e9 2e 00 00 e9 2e 00 00     ................
      cc:	81 0e 00 00 e9 2e 00 00 e9 2e 00 00 e9 2e 00 00     ................
      dc:	e9 2e 00 00 e9 2e 00 00 e9 2e 00 00 e9 2e 00 00     ................
      ec:	e9 2e 00 00 e9 2e 00 00 e9 2e 00 00 e9 2e 00 00     ................
      fc:	e9 2e 00 00                                         ....

00000100 <init_Timer0>:
     100:	b580      	push	{r7, lr}
     102:	b082      	sub	sp, #8
     104:	af00      	add	r7, sp, #0
     106:	6078      	str	r0, [r7, #4]
     108:	f04f 0001 	mov.w	r0, #1
     10c:	f2c1 0010 	movt	r0, #4112	; 0x1010
     110:	f001 fcb0 	bl	1a74 <SysCtlPeripheralEnable>
     114:	f002 fa58 	bl	25c8 <IntMasterEnable>
     118:	f04f 0000 	mov.w	r0, #0
     11c:	f2c4 0003 	movt	r0, #16387	; 0x4003
     120:	f04f 0101 	mov.w	r1, #1
     124:	f000 fa58 	bl	5d8 <TimerConfigure>
     128:	f001 fe1c 	bl	1d64 <SysCtlClockGet>
     12c:	4603      	mov	r3, r0
     12e:	687a      	ldr	r2, [r7, #4]
     130:	fb02 f303 	mul.w	r3, r2, r3
     134:	f04f 0000 	mov.w	r0, #0
     138:	f2c4 0003 	movt	r0, #16387	; 0x4003
     13c:	f04f 01ff 	mov.w	r1, #255	; 0xff
     140:	461a      	mov	r2, r3
     142:	f000 fa75 	bl	630 <TimerLoadSet>
     146:	f107 0708 	add.w	r7, r7, #8
     14a:	46bd      	mov	sp, r7
     14c:	bd80      	pop	{r7, pc}
     14e:	bf00      	nop

00000150 <enable_Timer_0>:
     150:	b580      	push	{r7, lr}
     152:	af00      	add	r7, sp, #0
     154:	f04f 0023 	mov.w	r0, #35	; 0x23
     158:	f002 fa3e 	bl	25d8 <IntEnable>
     15c:	f04f 0000 	mov.w	r0, #0
     160:	f2c4 0003 	movt	r0, #16387	; 0x4003
     164:	f04f 0101 	mov.w	r1, #1
     168:	f000 fa82 	bl	670 <TimerIntEnable>
     16c:	f04f 0000 	mov.w	r0, #0
     170:	f2c4 0003 	movt	r0, #16387	; 0x4003
     174:	f04f 01ff 	mov.w	r1, #255	; 0xff
     178:	f000 fa14 	bl	5a4 <TimerEnable>
     17c:	bd80      	pop	{r7, pc}
     17e:	bf00      	nop

00000180 <init_Timer3>:
     180:	b580      	push	{r7, lr}
     182:	b082      	sub	sp, #8
     184:	af00      	add	r7, sp, #0
     186:	6078      	str	r0, [r7, #4]
     188:	f04f 0008 	mov.w	r0, #8
     18c:	f2c1 0010 	movt	r0, #4112	; 0x1010
     190:	f001 fc70 	bl	1a74 <SysCtlPeripheralEnable>
     194:	f44f 5040 	mov.w	r0, #12288	; 0x3000
     198:	f2c4 0003 	movt	r0, #16387	; 0x4003
     19c:	f04f 0101 	mov.w	r1, #1
     1a0:	f000 fa1a 	bl	5d8 <TimerConfigure>
     1a4:	f001 fdde 	bl	1d64 <SysCtlClockGet>
     1a8:	4603      	mov	r3, r0
     1aa:	687a      	ldr	r2, [r7, #4]
     1ac:	fb02 f303 	mul.w	r3, r2, r3
     1b0:	f44f 5040 	mov.w	r0, #12288	; 0x3000
     1b4:	f2c4 0003 	movt	r0, #16387	; 0x4003
     1b8:	f04f 01ff 	mov.w	r1, #255	; 0xff
     1bc:	461a      	mov	r2, r3
     1be:	f000 fa37 	bl	630 <TimerLoadSet>
     1c2:	f107 0708 	add.w	r7, r7, #8
     1c6:	46bd      	mov	sp, r7
     1c8:	bd80      	pop	{r7, pc}
     1ca:	bf00      	nop

000001cc <enable_Timer_3>:
     1cc:	b580      	push	{r7, lr}
     1ce:	af00      	add	r7, sp, #0
     1d0:	f04f 0033 	mov.w	r0, #51	; 0x33
     1d4:	f002 fa00 	bl	25d8 <IntEnable>
     1d8:	f44f 5040 	mov.w	r0, #12288	; 0x3000
     1dc:	f2c4 0003 	movt	r0, #16387	; 0x4003
     1e0:	f04f 0101 	mov.w	r1, #1
     1e4:	f000 fa44 	bl	670 <TimerIntEnable>
     1e8:	f44f 5040 	mov.w	r0, #12288	; 0x3000
     1ec:	f2c4 0003 	movt	r0, #16387	; 0x4003
     1f0:	f04f 01ff 	mov.w	r1, #255	; 0xff
     1f4:	f000 f9d6 	bl	5a4 <TimerEnable>
     1f8:	bd80      	pop	{r7, pc}
     1fa:	bf00      	nop

000001fc <SystemInit>:
     1fc:	b580      	push	{r7, lr}
     1fe:	b084      	sub	sp, #16
     200:	af00      	add	r7, sp, #0
     202:	f642 23d2 	movw	r3, #10962	; 0x2ad2
     206:	f2c0 038e 	movt	r3, #142	; 0x8e
     20a:	60bb      	str	r3, [r7, #8]
     20c:	f642 0310 	movw	r3, #10256	; 0x2810
     210:	f2c0 0380 	movt	r3, #128	; 0x80
     214:	607b      	str	r3, [r7, #4]
     216:	f44f 4360 	mov.w	r3, #57344	; 0xe000
     21a:	f2c4 030f 	movt	r3, #16399	; 0x400f
     21e:	f642 0210 	movw	r2, #10256	; 0x2810
     222:	f2c0 7280 	movt	r2, #1920	; 0x780
     226:	671a      	str	r2, [r3, #112]	; 0x70
     228:	f44f 4360 	mov.w	r3, #57344	; 0xe000
     22c:	f2c4 030f 	movt	r3, #16399	; 0x400f
     230:	f643 22d1 	movw	r2, #15057	; 0x3ad1
     234:	f2c0 728e 	movt	r2, #1934	; 0x78e
     238:	661a      	str	r2, [r3, #96]	; 0x60
     23a:	f44f 4360 	mov.w	r3, #57344	; 0xe000
     23e:	f2c4 030f 	movt	r3, #16399	; 0x400f
     242:	f642 22d2 	movw	r2, #10962	; 0x2ad2
     246:	f2c0 028e 	movt	r2, #142	; 0x8e
     24a:	661a      	str	r2, [r3, #96]	; 0x60
     24c:	f44f 4360 	mov.w	r3, #57344	; 0xe000
     250:	f2c4 030f 	movt	r3, #16399	; 0x400f
     254:	f642 0210 	movw	r2, #10256	; 0x2810
     258:	f2c0 0280 	movt	r2, #128	; 0x80
     25c:	671a      	str	r2, [r3, #112]	; 0x70
     25e:	f04f 0300 	mov.w	r3, #0
     262:	60fb      	str	r3, [r7, #12]
     264:	e003      	b.n	26e <SystemInit+0x72>
     266:	68fb      	ldr	r3, [r7, #12]
     268:	f103 0301 	add.w	r3, r3, #1
     26c:	60fb      	str	r3, [r7, #12]
     26e:	68fa      	ldr	r2, [r7, #12]
     270:	f240 33e7 	movw	r3, #999	; 0x3e7
     274:	429a      	cmp	r2, r3
     276:	d9f6      	bls.n	266 <SystemInit+0x6a>
     278:	f44f 4360 	mov.w	r3, #57344	; 0xe000
     27c:	f2c4 030f 	movt	r3, #16399	; 0x400f
     280:	f642 22d2 	movw	r2, #10962	; 0x2ad2
     284:	f2c0 028e 	movt	r2, #142	; 0x8e
     288:	661a      	str	r2, [r3, #96]	; 0x60
     28a:	f44f 4360 	mov.w	r3, #57344	; 0xe000
     28e:	f2c4 030f 	movt	r3, #16399	; 0x400f
     292:	f642 0210 	movw	r2, #10256	; 0x2810
     296:	f2c0 0280 	movt	r2, #128	; 0x80
     29a:	671a      	str	r2, [r3, #112]	; 0x70
     29c:	f04f 0300 	mov.w	r3, #0
     2a0:	60fb      	str	r3, [r7, #12]
     2a2:	e003      	b.n	2ac <SystemInit+0xb0>
     2a4:	68fb      	ldr	r3, [r7, #12]
     2a6:	f103 0301 	add.w	r3, r3, #1
     2aa:	60fb      	str	r3, [r7, #12]
     2ac:	68fa      	ldr	r2, [r7, #12]
     2ae:	f240 33e7 	movw	r3, #999	; 0x3e7
     2b2:	429a      	cmp	r2, r3
     2b4:	d9f6      	bls.n	2a4 <SystemInit+0xa8>
     2b6:	f44f 4360 	mov.w	r3, #57344	; 0xe000
     2ba:	f2c4 030f 	movt	r3, #16399	; 0x400f
     2be:	f642 22d2 	movw	r2, #10962	; 0x2ad2
     2c2:	f2c0 028e 	movt	r2, #142	; 0x8e
     2c6:	661a      	str	r2, [r3, #96]	; 0x60
     2c8:	f44f 4360 	mov.w	r3, #57344	; 0xe000
     2cc:	f2c4 030f 	movt	r3, #16399	; 0x400f
     2d0:	f642 22d2 	movw	r2, #10962	; 0x2ad2
     2d4:	f2c0 028e 	movt	r2, #142	; 0x8e
     2d8:	661a      	str	r2, [r3, #96]	; 0x60
     2da:	f44f 4360 	mov.w	r3, #57344	; 0xe000
     2de:	f2c4 030f 	movt	r3, #16399	; 0x400f
     2e2:	f642 0210 	movw	r2, #10256	; 0x2810
     2e6:	f2c0 0280 	movt	r2, #128	; 0x80
     2ea:	671a      	str	r2, [r3, #112]	; 0x70
     2ec:	f04f 0300 	mov.w	r3, #0
     2f0:	60fb      	str	r3, [r7, #12]
     2f2:	e003      	b.n	2fc <SystemInit+0x100>
     2f4:	68fb      	ldr	r3, [r7, #12]
     2f6:	f103 0301 	add.w	r3, r3, #1
     2fa:	60fb      	str	r3, [r7, #12]
     2fc:	68fa      	ldr	r2, [r7, #12]
     2fe:	f242 730f 	movw	r3, #9999	; 0x270f
     302:	429a      	cmp	r2, r3
     304:	d9f6      	bls.n	2f4 <SystemInit+0xf8>
     306:	f44f 4360 	mov.w	r3, #57344	; 0xe000
     30a:	f2c4 030f 	movt	r3, #16399	; 0x400f
     30e:	6e1b      	ldr	r3, [r3, #96]	; 0x60
     310:	60bb      	str	r3, [r7, #8]
     312:	f44f 4360 	mov.w	r3, #57344	; 0xe000
     316:	f2c4 030f 	movt	r3, #16399	; 0x400f
     31a:	6f1b      	ldr	r3, [r3, #112]	; 0x70
     31c:	607b      	str	r3, [r7, #4]
     31e:	687b      	ldr	r3, [r7, #4]
     320:	2b00      	cmp	r3, #0
     322:	da56      	bge.n	3d2 <SystemInit+0x1d6>
     324:	687b      	ldr	r3, [r7, #4]
     326:	f403 6300 	and.w	r3, r3, #2048	; 0x800
     32a:	2b00      	cmp	r3, #0
     32c:	d014      	beq.n	358 <SystemInit+0x15c>
     32e:	68bb      	ldr	r3, [r7, #8]
     330:	ea4f 1393 	mov.w	r3, r3, lsr #6
     334:	f003 020f 	and.w	r2, r3, #15
     338:	687b      	ldr	r3, [r7, #4]
     33a:	ea4f 1313 	mov.w	r3, r3, lsr #4
     33e:	f003 0307 	and.w	r3, r3, #7
     342:	4610      	mov	r0, r2
     344:	4619      	mov	r1, r3
     346:	f000 f875 	bl	434 <getOscClk>
     34a:	4602      	mov	r2, r0
     34c:	f240 0300 	movw	r3, #0
     350:	f2c2 0300 	movt	r3, #8192	; 0x2000
     354:	601a      	str	r2, [r3, #0]
     356:	e008      	b.n	36a <SystemInit+0x16e>
     358:	f240 0300 	movw	r3, #0
     35c:	f2c2 0300 	movt	r3, #8192	; 0x2000
     360:	f44f 4242 	mov.w	r2, #49664	; 0xc200
     364:	f6c0 32eb 	movt	r2, #3051	; 0xbeb
     368:	601a      	str	r2, [r3, #0]
     36a:	68bb      	ldr	r3, [r7, #8]
     36c:	f403 0380 	and.w	r3, r3, #4194304	; 0x400000
     370:	2b00      	cmp	r3, #0
     372:	d05a      	beq.n	42a <SystemInit+0x22e>
     374:	687b      	ldr	r3, [r7, #4]
     376:	f403 6300 	and.w	r3, r3, #2048	; 0x800
     37a:	2b00      	cmp	r3, #0
     37c:	d013      	beq.n	3a6 <SystemInit+0x1aa>
     37e:	f240 0300 	movw	r3, #0
     382:	f2c2 0300 	movt	r3, #8192	; 0x2000
     386:	681a      	ldr	r2, [r3, #0]
     388:	687b      	ldr	r3, [r7, #4]
     38a:	ea4f 53d3 	mov.w	r3, r3, lsr #23
     38e:	f003 033f 	and.w	r3, r3, #63	; 0x3f
     392:	f103 0301 	add.w	r3, r3, #1
     396:	fbb2 f2f3 	udiv	r2, r2, r3
     39a:	f240 0300 	movw	r3, #0
     39e:	f2c2 0300 	movt	r3, #8192	; 0x2000
     3a2:	601a      	str	r2, [r3, #0]
     3a4:	e041      	b.n	42a <SystemInit+0x22e>
     3a6:	f240 0300 	movw	r3, #0
     3aa:	f2c2 0300 	movt	r3, #8192	; 0x2000
     3ae:	681a      	ldr	r2, [r3, #0]
     3b0:	687b      	ldr	r3, [r7, #4]
     3b2:	ea4f 53d3 	mov.w	r3, r3, lsr #23
     3b6:	f003 033f 	and.w	r3, r3, #63	; 0x3f
     3ba:	f103 0301 	add.w	r3, r3, #1
     3be:	fbb2 f3f3 	udiv	r3, r2, r3
     3c2:	ea4f 0253 	mov.w	r2, r3, lsr #1
     3c6:	f240 0300 	movw	r3, #0
     3ca:	f2c2 0300 	movt	r3, #8192	; 0x2000
     3ce:	601a      	str	r2, [r3, #0]
     3d0:	e02b      	b.n	42a <SystemInit+0x22e>
     3d2:	68bb      	ldr	r3, [r7, #8]
     3d4:	ea4f 1393 	mov.w	r3, r3, lsr #6
     3d8:	f003 020f 	and.w	r2, r3, #15
     3dc:	68bb      	ldr	r3, [r7, #8]
     3de:	ea4f 1313 	mov.w	r3, r3, lsr #4
     3e2:	f003 0303 	and.w	r3, r3, #3
     3e6:	4610      	mov	r0, r2
     3e8:	4619      	mov	r1, r3
     3ea:	f000 f823 	bl	434 <getOscClk>
     3ee:	4602      	mov	r2, r0
     3f0:	f240 0300 	movw	r3, #0
     3f4:	f2c2 0300 	movt	r3, #8192	; 0x2000
     3f8:	601a      	str	r2, [r3, #0]
     3fa:	68bb      	ldr	r3, [r7, #8]
     3fc:	f403 0380 	and.w	r3, r3, #4194304	; 0x400000
     400:	2b00      	cmp	r3, #0
     402:	d012      	beq.n	42a <SystemInit+0x22e>
     404:	f240 0300 	movw	r3, #0
     408:	f2c2 0300 	movt	r3, #8192	; 0x2000
     40c:	681a      	ldr	r2, [r3, #0]
     40e:	68bb      	ldr	r3, [r7, #8]
     410:	ea4f 53d3 	mov.w	r3, r3, lsr #23
     414:	f003 030f 	and.w	r3, r3, #15
     418:	f103 0301 	add.w	r3, r3, #1
     41c:	fbb2 f2f3 	udiv	r2, r2, r3
     420:	f240 0300 	movw	r3, #0
     424:	f2c2 0300 	movt	r3, #8192	; 0x2000
     428:	601a      	str	r2, [r3, #0]
     42a:	f107 0710 	add.w	r7, r7, #16
     42e:	46bd      	mov	sp, r7
     430:	bd80      	pop	{r7, pc}
     432:	bf00      	nop

00000434 <getOscClk>:
     434:	b480      	push	{r7}
     436:	b085      	sub	sp, #20
     438:	af00      	add	r7, sp, #0
     43a:	6078      	str	r0, [r7, #4]
     43c:	6039      	str	r1, [r7, #0]
     43e:	f44f 53d8 	mov.w	r3, #6912	; 0x1b00
     442:	f2c0 03b7 	movt	r3, #183	; 0xb7
     446:	60fb      	str	r3, [r7, #12]
     448:	683b      	ldr	r3, [r7, #0]
     44a:	2b03      	cmp	r3, #3
     44c:	f200 8098 	bhi.w	580 <getOscClk+0x14c>
     450:	a201      	add	r2, pc, #4	; (adr r2, 458 <getOscClk+0x24>)
     452:	f852 f023 	ldr.w	pc, [r2, r3, lsl #2]
     456:	bf00      	nop
     458:	00000469 	.word	0x00000469
     45c:	0000055f 	.word	0x0000055f
     460:	0000056b 	.word	0x0000056b
     464:	00000577 	.word	0x00000577
     468:	687b      	ldr	r3, [r7, #4]
     46a:	2b0f      	cmp	r3, #15
     46c:	f200 8087 	bhi.w	57e <getOscClk+0x14a>
     470:	a201      	add	r2, pc, #4	; (adr r2, 478 <getOscClk+0x44>)
     472:	f852 f023 	ldr.w	pc, [r2, r3, lsl #2]
     476:	bf00      	nop
     478:	000004b9 	.word	0x000004b9
     47c:	000004c5 	.word	0x000004c5
     480:	000004cd 	.word	0x000004cd
     484:	000004d9 	.word	0x000004d9
     488:	000004e1 	.word	0x000004e1
     48c:	000004ed 	.word	0x000004ed
     490:	000004f5 	.word	0x000004f5
     494:	00000501 	.word	0x00000501
     498:	00000509 	.word	0x00000509
     49c:	00000511 	.word	0x00000511
     4a0:	0000051d 	.word	0x0000051d
     4a4:	00000529 	.word	0x00000529
     4a8:	00000535 	.word	0x00000535
     4ac:	00000541 	.word	0x00000541
     4b0:	00000549 	.word	0x00000549
     4b4:	00000555 	.word	0x00000555
     4b8:	f244 2340 	movw	r3, #16960	; 0x4240
     4bc:	f2c0 030f 	movt	r3, #15
     4c0:	60fb      	str	r3, [r7, #12]
     4c2:	e04b      	b.n	55c <getOscClk+0x128>
     4c4:	f44f 13e1 	mov.w	r3, #1843200	; 0x1c2000
     4c8:	60fb      	str	r3, [r7, #12]
     4ca:	e047      	b.n	55c <getOscClk+0x128>
     4cc:	f248 4380 	movw	r3, #33920	; 0x8480
     4d0:	f2c0 031e 	movt	r3, #30
     4d4:	60fb      	str	r3, [r7, #12]
     4d6:	e041      	b.n	55c <getOscClk+0x128>
     4d8:	f44f 1316 	mov.w	r3, #2457600	; 0x258000
     4dc:	60fb      	str	r3, [r7, #12]
     4de:	e03d      	b.n	55c <getOscClk+0x128>
     4e0:	f649 6399 	movw	r3, #40601	; 0x9e99
     4e4:	f2c0 0336 	movt	r3, #54	; 0x36
     4e8:	60fb      	str	r3, [r7, #12]
     4ea:	e037      	b.n	55c <getOscClk+0x128>
     4ec:	f44f 1361 	mov.w	r3, #3686400	; 0x384000
     4f0:	60fb      	str	r3, [r7, #12]
     4f2:	e033      	b.n	55c <getOscClk+0x128>
     4f4:	f44f 6310 	mov.w	r3, #2304	; 0x900
     4f8:	f2c0 033d 	movt	r3, #61	; 0x3d
     4fc:	60fb      	str	r3, [r7, #12]
     4fe:	e02d      	b.n	55c <getOscClk+0x128>
     500:	f44f 137a 	mov.w	r3, #4096000	; 0x3e8000
     504:	60fb      	str	r3, [r7, #12]
     506:	e029      	b.n	55c <getOscClk+0x128>
     508:	f44f 0396 	mov.w	r3, #4915200	; 0x4b0000
     50c:	60fb      	str	r3, [r7, #12]
     50e:	e025      	b.n	55c <getOscClk+0x128>
     510:	f644 3340 	movw	r3, #19264	; 0x4b40
     514:	f2c0 034c 	movt	r3, #76	; 0x4c
     518:	60fb      	str	r3, [r7, #12]
     51a:	e01f      	b.n	55c <getOscClk+0x128>
     51c:	f44f 5300 	mov.w	r3, #8192	; 0x2000
     520:	f2c0 034e 	movt	r3, #78	; 0x4e
     524:	60fb      	str	r3, [r7, #12]
     526:	e019      	b.n	55c <getOscClk+0x128>
     528:	f648 5380 	movw	r3, #36224	; 0x8d80
     52c:	f2c0 035b 	movt	r3, #91	; 0x5b
     530:	60fb      	str	r3, [r7, #12]
     532:	e013      	b.n	55c <getOscClk+0x128>
     534:	f44f 4340 	mov.w	r3, #49152	; 0xc000
     538:	f2c0 035d 	movt	r3, #93	; 0x5d
     53c:	60fb      	str	r3, [r7, #12]
     53e:	e00d      	b.n	55c <getOscClk+0x128>
     540:	f44f 03e1 	mov.w	r3, #7372800	; 0x708000
     544:	60fb      	str	r3, [r7, #12]
     546:	e009      	b.n	55c <getOscClk+0x128>
     548:	f44f 5390 	mov.w	r3, #4608	; 0x1200
     54c:	f2c0 037a 	movt	r3, #122	; 0x7a
     550:	60fb      	str	r3, [r7, #12]
     552:	e003      	b.n	55c <getOscClk+0x128>
     554:	f44f 03fa 	mov.w	r3, #8192000	; 0x7d0000
     558:	60fb      	str	r3, [r7, #12]
     55a:	bf00      	nop
     55c:	e010      	b.n	580 <getOscClk+0x14c>
     55e:	f44f 53d8 	mov.w	r3, #6912	; 0x1b00
     562:	f2c0 03b7 	movt	r3, #183	; 0xb7
     566:	60fb      	str	r3, [r7, #12]
     568:	e00a      	b.n	580 <getOscClk+0x14c>
     56a:	f24c 63c0 	movw	r3, #50880	; 0xc6c0
     56e:	f2c0 032d 	movt	r3, #45	; 0x2d
     572:	60fb      	str	r3, [r7, #12]
     574:	e004      	b.n	580 <getOscClk+0x14c>
     576:	f247 5330 	movw	r3, #30000	; 0x7530
     57a:	60fb      	str	r3, [r7, #12]
     57c:	e000      	b.n	580 <getOscClk+0x14c>
     57e:	bf00      	nop
     580:	68fb      	ldr	r3, [r7, #12]
     582:	4618      	mov	r0, r3
     584:	f107 0714 	add.w	r7, r7, #20
     588:	46bd      	mov	sp, r7
     58a:	bc80      	pop	{r7}
     58c:	4770      	bx	lr
     58e:	bf00      	nop

00000590 <PROCESSOR_init>:
     590:	b580      	push	{r7, lr}
     592:	af00      	add	r7, sp, #0
     594:	f44f 506e 	mov.w	r0, #15232	; 0x3b80
     598:	f2c0 7080 	movt	r0, #1920	; 0x780
     59c:	f001 fa9a 	bl	1ad4 <SysCtlClockSet>
     5a0:	bd80      	pop	{r7, pc}
     5a2:	bf00      	nop

000005a4 <TimerEnable>:
     5a4:	b480      	push	{r7}
     5a6:	b083      	sub	sp, #12
     5a8:	af00      	add	r7, sp, #0
     5aa:	6078      	str	r0, [r7, #4]
     5ac:	6039      	str	r1, [r7, #0]
     5ae:	687b      	ldr	r3, [r7, #4]
     5b0:	f103 030c 	add.w	r3, r3, #12
     5b4:	461a      	mov	r2, r3
     5b6:	687b      	ldr	r3, [r7, #4]
     5b8:	f103 030c 	add.w	r3, r3, #12
     5bc:	6819      	ldr	r1, [r3, #0]
     5be:	6838      	ldr	r0, [r7, #0]
     5c0:	f240 1301 	movw	r3, #257	; 0x101
     5c4:	ea00 0303 	and.w	r3, r0, r3
     5c8:	ea41 0303 	orr.w	r3, r1, r3
     5cc:	6013      	str	r3, [r2, #0]
     5ce:	f107 070c 	add.w	r7, r7, #12
     5d2:	46bd      	mov	sp, r7
     5d4:	bc80      	pop	{r7}
     5d6:	4770      	bx	lr

000005d8 <TimerConfigure>:
     5d8:	b480      	push	{r7}
     5da:	b083      	sub	sp, #12
     5dc:	af00      	add	r7, sp, #0
     5de:	6078      	str	r0, [r7, #4]
     5e0:	6039      	str	r1, [r7, #0]
     5e2:	687b      	ldr	r3, [r7, #4]
     5e4:	f103 030c 	add.w	r3, r3, #12
     5e8:	461a      	mov	r2, r3
     5ea:	687b      	ldr	r3, [r7, #4]
     5ec:	f103 030c 	add.w	r3, r3, #12
     5f0:	681b      	ldr	r3, [r3, #0]
     5f2:	f423 7380 	bic.w	r3, r3, #256	; 0x100
     5f6:	f023 0301 	bic.w	r3, r3, #1
     5fa:	6013      	str	r3, [r2, #0]
     5fc:	687b      	ldr	r3, [r7, #4]
     5fe:	683a      	ldr	r2, [r7, #0]
     600:	ea4f 6212 	mov.w	r2, r2, lsr #24
     604:	601a      	str	r2, [r3, #0]
     606:	687b      	ldr	r3, [r7, #4]
     608:	f103 0304 	add.w	r3, r3, #4
     60c:	683a      	ldr	r2, [r7, #0]
     60e:	f002 02ff 	and.w	r2, r2, #255	; 0xff
     612:	601a      	str	r2, [r3, #0]
     614:	687b      	ldr	r3, [r7, #4]
     616:	f103 0308 	add.w	r3, r3, #8
     61a:	683a      	ldr	r2, [r7, #0]
     61c:	ea4f 2212 	mov.w	r2, r2, lsr #8
     620:	f002 02ff 	and.w	r2, r2, #255	; 0xff
     624:	601a      	str	r2, [r3, #0]
     626:	f107 070c 	add.w	r7, r7, #12
     62a:	46bd      	mov	sp, r7
     62c:	bc80      	pop	{r7}
     62e:	4770      	bx	lr

00000630 <TimerLoadSet>:
     630:	b480      	push	{r7}
     632:	b085      	sub	sp, #20
     634:	af00      	add	r7, sp, #0
     636:	60f8      	str	r0, [r7, #12]
     638:	60b9      	str	r1, [r7, #8]
     63a:	607a      	str	r2, [r7, #4]
     63c:	68bb      	ldr	r3, [r7, #8]
     63e:	f003 03ff 	and.w	r3, r3, #255	; 0xff
     642:	2b00      	cmp	r3, #0
     644:	d004      	beq.n	650 <TimerLoadSet+0x20>
     646:	68fb      	ldr	r3, [r7, #12]
     648:	f103 0328 	add.w	r3, r3, #40	; 0x28
     64c:	687a      	ldr	r2, [r7, #4]
     64e:	601a      	str	r2, [r3, #0]
     650:	68bb      	ldr	r3, [r7, #8]
     652:	f403 437f 	and.w	r3, r3, #65280	; 0xff00
     656:	2b00      	cmp	r3, #0
     658:	d004      	beq.n	664 <TimerLoadSet+0x34>
     65a:	68fb      	ldr	r3, [r7, #12]
     65c:	f103 032c 	add.w	r3, r3, #44	; 0x2c
     660:	687a      	ldr	r2, [r7, #4]
     662:	601a      	str	r2, [r3, #0]
     664:	f107 0714 	add.w	r7, r7, #20
     668:	46bd      	mov	sp, r7
     66a:	bc80      	pop	{r7}
     66c:	4770      	bx	lr
     66e:	bf00      	nop

00000670 <TimerIntEnable>:
     670:	b480      	push	{r7}
     672:	b083      	sub	sp, #12
     674:	af00      	add	r7, sp, #0
     676:	6078      	str	r0, [r7, #4]
     678:	6039      	str	r1, [r7, #0]
     67a:	687b      	ldr	r3, [r7, #4]
     67c:	f103 0318 	add.w	r3, r3, #24
     680:	687a      	ldr	r2, [r7, #4]
     682:	f102 0218 	add.w	r2, r2, #24
     686:	6811      	ldr	r1, [r2, #0]
     688:	683a      	ldr	r2, [r7, #0]
     68a:	ea41 0202 	orr.w	r2, r1, r2
     68e:	601a      	str	r2, [r3, #0]
     690:	f107 070c 	add.w	r7, r7, #12
     694:	46bd      	mov	sp, r7
     696:	bc80      	pop	{r7}
     698:	4770      	bx	lr
     69a:	bf00      	nop

0000069c <TimerIntClear>:
     69c:	b480      	push	{r7}
     69e:	b083      	sub	sp, #12
     6a0:	af00      	add	r7, sp, #0
     6a2:	6078      	str	r0, [r7, #4]
     6a4:	6039      	str	r1, [r7, #0]
     6a6:	687b      	ldr	r3, [r7, #4]
     6a8:	f103 0324 	add.w	r3, r3, #36	; 0x24
     6ac:	683a      	ldr	r2, [r7, #0]
     6ae:	601a      	str	r2, [r3, #0]
     6b0:	f107 070c 	add.w	r7, r7, #12
     6b4:	46bd      	mov	sp, r7
     6b6:	bc80      	pop	{r7}
     6b8:	4770      	bx	lr
     6ba:	bf00      	nop

000006bc <UARTConfigSetExpClk>:
     6bc:	b580      	push	{r7, lr}
     6be:	b086      	sub	sp, #24
     6c0:	af00      	add	r7, sp, #0
     6c2:	60f8      	str	r0, [r7, #12]
     6c4:	60b9      	str	r1, [r7, #8]
     6c6:	607a      	str	r2, [r7, #4]
     6c8:	603b      	str	r3, [r7, #0]
     6ca:	68f8      	ldr	r0, [r7, #12]
     6cc:	f000 f86a 	bl	7a4 <UARTDisable>
     6d0:	687b      	ldr	r3, [r7, #4]
     6d2:	ea4f 1203 	mov.w	r2, r3, lsl #4
     6d6:	68bb      	ldr	r3, [r7, #8]
     6d8:	429a      	cmp	r2, r3
     6da:	d90e      	bls.n	6fa <UARTConfigSetExpClk+0x3e>
     6dc:	68fb      	ldr	r3, [r7, #12]
     6de:	f103 0330 	add.w	r3, r3, #48	; 0x30
     6e2:	68fa      	ldr	r2, [r7, #12]
     6e4:	f102 0230 	add.w	r2, r2, #48	; 0x30
     6e8:	6812      	ldr	r2, [r2, #0]
     6ea:	f042 0220 	orr.w	r2, r2, #32
     6ee:	601a      	str	r2, [r3, #0]
     6f0:	687b      	ldr	r3, [r7, #4]
     6f2:	ea4f 0353 	mov.w	r3, r3, lsr #1
     6f6:	607b      	str	r3, [r7, #4]
     6f8:	e009      	b.n	70e <UARTConfigSetExpClk+0x52>
     6fa:	68fb      	ldr	r3, [r7, #12]
     6fc:	f103 0330 	add.w	r3, r3, #48	; 0x30
     700:	68fa      	ldr	r2, [r7, #12]
     702:	f102 0230 	add.w	r2, r2, #48	; 0x30
     706:	6812      	ldr	r2, [r2, #0]
     708:	f022 0220 	bic.w	r2, r2, #32
     70c:	601a      	str	r2, [r3, #0]
     70e:	68bb      	ldr	r3, [r7, #8]
     710:	ea4f 02c3 	mov.w	r2, r3, lsl #3
     714:	687b      	ldr	r3, [r7, #4]
     716:	fbb2 f3f3 	udiv	r3, r2, r3
     71a:	f103 0301 	add.w	r3, r3, #1
     71e:	ea4f 0353 	mov.w	r3, r3, lsr #1
     722:	617b      	str	r3, [r7, #20]
     724:	68fb      	ldr	r3, [r7, #12]
     726:	f103 0324 	add.w	r3, r3, #36	; 0x24
     72a:	697a      	ldr	r2, [r7, #20]
     72c:	ea4f 1292 	mov.w	r2, r2, lsr #6
     730:	601a      	str	r2, [r3, #0]
     732:	68fb      	ldr	r3, [r7, #12]
     734:	f103 0328 	add.w	r3, r3, #40	; 0x28
     738:	697a      	ldr	r2, [r7, #20]
     73a:	f002 023f 	and.w	r2, r2, #63	; 0x3f
     73e:	601a      	str	r2, [r3, #0]
     740:	68fb      	ldr	r3, [r7, #12]
     742:	f103 032c 	add.w	r3, r3, #44	; 0x2c
     746:	683a      	ldr	r2, [r7, #0]
     748:	601a      	str	r2, [r3, #0]
     74a:	68fb      	ldr	r3, [r7, #12]
     74c:	f103 0318 	add.w	r3, r3, #24
     750:	f04f 0200 	mov.w	r2, #0
     754:	601a      	str	r2, [r3, #0]
     756:	68f8      	ldr	r0, [r7, #12]
     758:	f000 f804 	bl	764 <UARTEnable>
     75c:	f107 0718 	add.w	r7, r7, #24
     760:	46bd      	mov	sp, r7
     762:	bd80      	pop	{r7, pc}

00000764 <UARTEnable>:
     764:	b480      	push	{r7}
     766:	b083      	sub	sp, #12
     768:	af00      	add	r7, sp, #0
     76a:	6078      	str	r0, [r7, #4]
     76c:	687b      	ldr	r3, [r7, #4]
     76e:	f103 032c 	add.w	r3, r3, #44	; 0x2c
     772:	687a      	ldr	r2, [r7, #4]
     774:	f102 022c 	add.w	r2, r2, #44	; 0x2c
     778:	6812      	ldr	r2, [r2, #0]
     77a:	f042 0210 	orr.w	r2, r2, #16
     77e:	601a      	str	r2, [r3, #0]
     780:	687b      	ldr	r3, [r7, #4]
     782:	f103 0330 	add.w	r3, r3, #48	; 0x30
     786:	461a      	mov	r2, r3
     788:	687b      	ldr	r3, [r7, #4]
     78a:	f103 0330 	add.w	r3, r3, #48	; 0x30
     78e:	681b      	ldr	r3, [r3, #0]
     790:	f443 7340 	orr.w	r3, r3, #768	; 0x300
     794:	f043 0301 	orr.w	r3, r3, #1
     798:	6013      	str	r3, [r2, #0]
     79a:	f107 070c 	add.w	r7, r7, #12
     79e:	46bd      	mov	sp, r7
     7a0:	bc80      	pop	{r7}
     7a2:	4770      	bx	lr

000007a4 <UARTDisable>:
     7a4:	b480      	push	{r7}
     7a6:	b083      	sub	sp, #12
     7a8:	af00      	add	r7, sp, #0
     7aa:	6078      	str	r0, [r7, #4]
     7ac:	bf00      	nop
     7ae:	687b      	ldr	r3, [r7, #4]
     7b0:	f103 0318 	add.w	r3, r3, #24
     7b4:	681b      	ldr	r3, [r3, #0]
     7b6:	f003 0308 	and.w	r3, r3, #8
     7ba:	2b00      	cmp	r3, #0
     7bc:	d1f7      	bne.n	7ae <UARTDisable+0xa>
     7be:	687b      	ldr	r3, [r7, #4]
     7c0:	f103 032c 	add.w	r3, r3, #44	; 0x2c
     7c4:	687a      	ldr	r2, [r7, #4]
     7c6:	f102 022c 	add.w	r2, r2, #44	; 0x2c
     7ca:	6812      	ldr	r2, [r2, #0]
     7cc:	f022 0210 	bic.w	r2, r2, #16
     7d0:	601a      	str	r2, [r3, #0]
     7d2:	687b      	ldr	r3, [r7, #4]
     7d4:	f103 0330 	add.w	r3, r3, #48	; 0x30
     7d8:	461a      	mov	r2, r3
     7da:	687b      	ldr	r3, [r7, #4]
     7dc:	f103 0330 	add.w	r3, r3, #48	; 0x30
     7e0:	681b      	ldr	r3, [r3, #0]
     7e2:	f423 7340 	bic.w	r3, r3, #768	; 0x300
     7e6:	f023 0301 	bic.w	r3, r3, #1
     7ea:	6013      	str	r3, [r2, #0]
     7ec:	f107 070c 	add.w	r7, r7, #12
     7f0:	46bd      	mov	sp, r7
     7f2:	bc80      	pop	{r7}
     7f4:	4770      	bx	lr
     7f6:	bf00      	nop

000007f8 <UARTCharPutNonBlocking>:
     7f8:	b480      	push	{r7}
     7fa:	b083      	sub	sp, #12
     7fc:	af00      	add	r7, sp, #0
     7fe:	6078      	str	r0, [r7, #4]
     800:	460b      	mov	r3, r1
     802:	70fb      	strb	r3, [r7, #3]
     804:	687b      	ldr	r3, [r7, #4]
     806:	f103 0318 	add.w	r3, r3, #24
     80a:	681b      	ldr	r3, [r3, #0]
     80c:	f003 0320 	and.w	r3, r3, #32
     810:	2b00      	cmp	r3, #0
     812:	d105      	bne.n	820 <UARTCharPutNonBlocking+0x28>
     814:	687b      	ldr	r3, [r7, #4]
     816:	78fa      	ldrb	r2, [r7, #3]
     818:	601a      	str	r2, [r3, #0]
     81a:	f04f 0301 	mov.w	r3, #1
     81e:	e001      	b.n	824 <UARTCharPutNonBlocking+0x2c>
     820:	f04f 0300 	mov.w	r3, #0
     824:	4618      	mov	r0, r3
     826:	f107 070c 	add.w	r7, r7, #12
     82a:	46bd      	mov	sp, r7
     82c:	bc80      	pop	{r7}
     82e:	4770      	bx	lr

00000830 <llamada_registrada>:
     830:	b580      	push	{r7, lr}
     832:	b082      	sub	sp, #8
     834:	af00      	add	r7, sp, #0
     836:	f04f 0300 	mov.w	r3, #0
     83a:	607b      	str	r3, [r7, #4]
     83c:	e017      	b.n	86e <llamada_registrada+0x3e>
     83e:	687b      	ldr	r3, [r7, #4]
     840:	f103 0201 	add.w	r2, r3, #1
     844:	f240 6300 	movw	r3, #1536	; 0x600
     848:	f2c2 0300 	movt	r3, #8192	; 0x2000
     84c:	f102 0202 	add.w	r2, r2, #2
     850:	f853 1022 	ldr.w	r1, [r3, r2, lsl #2]
     854:	f240 6300 	movw	r3, #1536	; 0x600
     858:	f2c2 0300 	movt	r3, #8192	; 0x2000
     85c:	687a      	ldr	r2, [r7, #4]
     85e:	f102 0202 	add.w	r2, r2, #2
     862:	f843 1022 	str.w	r1, [r3, r2, lsl #2]
     866:	687b      	ldr	r3, [r7, #4]
     868:	f103 0301 	add.w	r3, r3, #1
     86c:	607b      	str	r3, [r7, #4]
     86e:	687b      	ldr	r3, [r7, #4]
     870:	2b02      	cmp	r3, #2
     872:	dde4      	ble.n	83e <llamada_registrada+0xe>
     874:	f240 6300 	movw	r3, #1536	; 0x600
     878:	f2c2 0300 	movt	r3, #8192	; 0x2000
     87c:	f06f 0204 	mvn.w	r2, #4
     880:	615a      	str	r2, [r3, #20]
     882:	f001 fca5 	bl	21d0 <HW_Gpio_Main_OFF>
     886:	f107 0708 	add.w	r7, r7, #8
     88a:	46bd      	mov	sp, r7
     88c:	bd80      	pop	{r7, pc}
     88e:	bf00      	nop

00000890 <getPiso>:
     890:	b480      	push	{r7}
     892:	af00      	add	r7, sp, #0
     894:	f240 0311 	movw	r3, #17
     898:	f2c2 0300 	movt	r3, #8192	; 0x2000
     89c:	781b      	ldrb	r3, [r3, #0]
     89e:	f1a3 0307 	sub.w	r3, r3, #7
     8a2:	2b2c      	cmp	r3, #44	; 0x2c
     8a4:	f200 80d6 	bhi.w	a54 <getPiso+0x1c4>
     8a8:	a201      	add	r2, pc, #4	; (adr r2, 8b0 <getPiso+0x20>)
     8aa:	f852 f023 	ldr.w	pc, [r2, r3, lsl #2]
     8ae:	bf00      	nop
     8b0:	000009a1 	.word	0x000009a1
     8b4:	00000a55 	.word	0x00000a55
     8b8:	00000a55 	.word	0x00000a55
     8bc:	00000a55 	.word	0x00000a55
     8c0:	00000a19 	.word	0x00000a19
     8c4:	00000a55 	.word	0x00000a55
     8c8:	000009dd 	.word	0x000009dd
     8cc:	00000965 	.word	0x00000965
     8d0:	00000a55 	.word	0x00000a55
     8d4:	00000a55 	.word	0x00000a55
     8d8:	00000a55 	.word	0x00000a55
     8dc:	00000a55 	.word	0x00000a55
     8e0:	00000a55 	.word	0x00000a55
     8e4:	00000a55 	.word	0x00000a55
     8e8:	00000a55 	.word	0x00000a55
     8ec:	00000a55 	.word	0x00000a55
     8f0:	00000a55 	.word	0x00000a55
     8f4:	00000a55 	.word	0x00000a55
     8f8:	00000a55 	.word	0x00000a55
     8fc:	00000a55 	.word	0x00000a55
     900:	00000a55 	.word	0x00000a55
     904:	00000a55 	.word	0x00000a55
     908:	00000a55 	.word	0x00000a55
     90c:	00000a55 	.word	0x00000a55
     910:	00000a55 	.word	0x00000a55
     914:	00000a55 	.word	0x00000a55
     918:	00000a55 	.word	0x00000a55
     91c:	00000a55 	.word	0x00000a55
     920:	00000a55 	.word	0x00000a55
     924:	00000a55 	.word	0x00000a55
     928:	00000a55 	.word	0x00000a55
     92c:	00000a55 	.word	0x00000a55
     930:	00000a55 	.word	0x00000a55
     934:	00000a55 	.word	0x00000a55
     938:	00000a55 	.word	0x00000a55
     93c:	00000a55 	.word	0x00000a55
     940:	00000a55 	.word	0x00000a55
     944:	00000a55 	.word	0x00000a55
     948:	00000a55 	.word	0x00000a55
     94c:	00000a55 	.word	0x00000a55
     950:	00000a55 	.word	0x00000a55
     954:	00000983 	.word	0x00000983
     958:	000009bf 	.word	0x000009bf
     95c:	000009fb 	.word	0x000009fb
     960:	00000a37 	.word	0x00000a37
     964:	f240 6300 	movw	r3, #1536	; 0x600
     968:	f2c2 0300 	movt	r3, #8192	; 0x2000
     96c:	f04f 0200 	mov.w	r2, #0
     970:	609a      	str	r2, [r3, #8]
     972:	f240 53fc 	movw	r3, #1532	; 0x5fc
     976:	f2c2 0300 	movt	r3, #8192	; 0x2000
     97a:	f04f 0201 	mov.w	r2, #1
     97e:	701a      	strb	r2, [r3, #0]
     980:	e076      	b.n	a70 <getPiso+0x1e0>
     982:	f240 6300 	movw	r3, #1536	; 0x600
     986:	f2c2 0300 	movt	r3, #8192	; 0x2000
     98a:	f04f 0200 	mov.w	r2, #0
     98e:	609a      	str	r2, [r3, #8]
     990:	f240 53fc 	movw	r3, #1532	; 0x5fc
     994:	f2c2 0300 	movt	r3, #8192	; 0x2000
     998:	f04f 0201 	mov.w	r2, #1
     99c:	701a      	strb	r2, [r3, #0]
     99e:	e067      	b.n	a70 <getPiso+0x1e0>
     9a0:	f240 6300 	movw	r3, #1536	; 0x600
     9a4:	f2c2 0300 	movt	r3, #8192	; 0x2000
     9a8:	f04f 0201 	mov.w	r2, #1
     9ac:	609a      	str	r2, [r3, #8]
     9ae:	f240 53fc 	movw	r3, #1532	; 0x5fc
     9b2:	f2c2 0300 	movt	r3, #8192	; 0x2000
     9b6:	f04f 0201 	mov.w	r2, #1
     9ba:	701a      	strb	r2, [r3, #0]
     9bc:	e058      	b.n	a70 <getPiso+0x1e0>
     9be:	f240 6300 	movw	r3, #1536	; 0x600
     9c2:	f2c2 0300 	movt	r3, #8192	; 0x2000
     9c6:	f04f 0201 	mov.w	r2, #1
     9ca:	609a      	str	r2, [r3, #8]
     9cc:	f240 53fc 	movw	r3, #1532	; 0x5fc
     9d0:	f2c2 0300 	movt	r3, #8192	; 0x2000
     9d4:	f04f 0201 	mov.w	r2, #1
     9d8:	701a      	strb	r2, [r3, #0]
     9da:	e049      	b.n	a70 <getPiso+0x1e0>
     9dc:	f240 6300 	movw	r3, #1536	; 0x600
     9e0:	f2c2 0300 	movt	r3, #8192	; 0x2000
     9e4:	f04f 0202 	mov.w	r2, #2
     9e8:	609a      	str	r2, [r3, #8]
     9ea:	f240 53fc 	movw	r3, #1532	; 0x5fc
     9ee:	f2c2 0300 	movt	r3, #8192	; 0x2000
     9f2:	f04f 0201 	mov.w	r2, #1
     9f6:	701a      	strb	r2, [r3, #0]
     9f8:	e03a      	b.n	a70 <getPiso+0x1e0>
     9fa:	f240 6300 	movw	r3, #1536	; 0x600
     9fe:	f2c2 0300 	movt	r3, #8192	; 0x2000
     a02:	f04f 0202 	mov.w	r2, #2
     a06:	609a      	str	r2, [r3, #8]
     a08:	f240 53fc 	movw	r3, #1532	; 0x5fc
     a0c:	f2c2 0300 	movt	r3, #8192	; 0x2000
     a10:	f04f 0201 	mov.w	r2, #1
     a14:	701a      	strb	r2, [r3, #0]
     a16:	e02b      	b.n	a70 <getPiso+0x1e0>
     a18:	f240 6300 	movw	r3, #1536	; 0x600
     a1c:	f2c2 0300 	movt	r3, #8192	; 0x2000
     a20:	f04f 0203 	mov.w	r2, #3
     a24:	609a      	str	r2, [r3, #8]
     a26:	f240 53fc 	movw	r3, #1532	; 0x5fc
     a2a:	f2c2 0300 	movt	r3, #8192	; 0x2000
     a2e:	f04f 0201 	mov.w	r2, #1
     a32:	701a      	strb	r2, [r3, #0]
     a34:	e01c      	b.n	a70 <getPiso+0x1e0>
     a36:	f240 6300 	movw	r3, #1536	; 0x600
     a3a:	f2c2 0300 	movt	r3, #8192	; 0x2000
     a3e:	f04f 0203 	mov.w	r2, #3
     a42:	609a      	str	r2, [r3, #8]
     a44:	f240 53fc 	movw	r3, #1532	; 0x5fc
     a48:	f2c2 0300 	movt	r3, #8192	; 0x2000
     a4c:	f04f 0201 	mov.w	r2, #1
     a50:	701a      	strb	r2, [r3, #0]
     a52:	e00d      	b.n	a70 <getPiso+0x1e0>
     a54:	f240 631a 	movw	r3, #1562	; 0x61a
     a58:	f2c2 0300 	movt	r3, #8192	; 0x2000
     a5c:	781b      	ldrb	r3, [r3, #0]
     a5e:	2b00      	cmp	r3, #0
     a60:	d106      	bne.n	a70 <getPiso+0x1e0>
     a62:	f240 53fc 	movw	r3, #1532	; 0x5fc
     a66:	f2c2 0300 	movt	r3, #8192	; 0x2000
     a6a:	f04f 0200 	mov.w	r2, #0
     a6e:	701a      	strb	r2, [r3, #0]
     a70:	46bd      	mov	sp, r7
     a72:	bc80      	pop	{r7}
     a74:	4770      	bx	lr
     a76:	bf00      	nop

00000a78 <real_to_array>:
     a78:	b480      	push	{r7}
     a7a:	af00      	add	r7, sp, #0
     a7c:	f240 0311 	movw	r3, #17
     a80:	f2c2 0300 	movt	r3, #8192	; 0x2000
     a84:	781b      	ldrb	r3, [r3, #0]
     a86:	f1a3 0307 	sub.w	r3, r3, #7
     a8a:	2b07      	cmp	r3, #7
     a8c:	d832      	bhi.n	af4 <real_to_array+0x7c>
     a8e:	a201      	add	r2, pc, #4	; (adr r2, a94 <real_to_array+0x1c>)
     a90:	f852 f023 	ldr.w	pc, [r2, r3, lsl #2]
     a94:	00000ac5 	.word	0x00000ac5
     a98:	00000af5 	.word	0x00000af5
     a9c:	00000af5 	.word	0x00000af5
     aa0:	00000af5 	.word	0x00000af5
     aa4:	00000ae5 	.word	0x00000ae5
     aa8:	00000af5 	.word	0x00000af5
     aac:	00000ad5 	.word	0x00000ad5
     ab0:	00000ab5 	.word	0x00000ab5
     ab4:	f240 5398 	movw	r3, #1432	; 0x598
     ab8:	f2c2 0300 	movt	r3, #8192	; 0x2000
     abc:	f04f 0201 	mov.w	r2, #1
     ac0:	601a      	str	r2, [r3, #0]
     ac2:	e018      	b.n	af6 <real_to_array+0x7e>
     ac4:	f240 5398 	movw	r3, #1432	; 0x598
     ac8:	f2c2 0300 	movt	r3, #8192	; 0x2000
     acc:	f04f 0201 	mov.w	r2, #1
     ad0:	605a      	str	r2, [r3, #4]
     ad2:	e010      	b.n	af6 <real_to_array+0x7e>
     ad4:	f240 5398 	movw	r3, #1432	; 0x598
     ad8:	f2c2 0300 	movt	r3, #8192	; 0x2000
     adc:	f04f 0201 	mov.w	r2, #1
     ae0:	609a      	str	r2, [r3, #8]
     ae2:	e008      	b.n	af6 <real_to_array+0x7e>
     ae4:	f240 5398 	movw	r3, #1432	; 0x598
     ae8:	f2c2 0300 	movt	r3, #8192	; 0x2000
     aec:	f04f 0201 	mov.w	r2, #1
     af0:	60da      	str	r2, [r3, #12]
     af2:	e000      	b.n	af6 <real_to_array+0x7e>
     af4:	bf00      	nop
     af6:	46bd      	mov	sp, r7
     af8:	bc80      	pop	{r7}
     afa:	4770      	bx	lr

00000afc <read_switches>:
     afc:	b580      	push	{r7, lr}
     afe:	b086      	sub	sp, #24
     b00:	af00      	add	r7, sp, #0
     b02:	f44f 4080 	mov.w	r0, #16384	; 0x4000
     b06:	f2c4 0002 	movt	r0, #16386	; 0x4002
     b0a:	f04f 010f 	mov.w	r1, #15
     b0e:	f001 fcc9 	bl	24a4 <GPIOPinRead>
     b12:	4603      	mov	r3, r0
     b14:	75fb      	strb	r3, [r7, #23]
     b16:	f240 0311 	movw	r3, #17
     b1a:	f2c2 0300 	movt	r3, #8192	; 0x2000
     b1e:	7dfa      	ldrb	r2, [r7, #23]
     b20:	701a      	strb	r2, [r3, #0]
     b22:	f240 0311 	movw	r3, #17
     b26:	f2c2 0300 	movt	r3, #8192	; 0x2000
     b2a:	781b      	ldrb	r3, [r3, #0]
     b2c:	2b0f      	cmp	r3, #15
     b2e:	d001      	beq.n	b34 <read_switches+0x38>
     b30:	f7ff ffa2 	bl	a78 <real_to_array>
     b34:	f107 0718 	add.w	r7, r7, #24
     b38:	46bd      	mov	sp, r7
     b3a:	bd80      	pop	{r7, pc}

00000b3c <registrar_llamada>:
     b3c:	b580      	push	{r7, lr}
     b3e:	b088      	sub	sp, #32
     b40:	af00      	add	r7, sp, #0
     b42:	f04f 0300 	mov.w	r3, #0
     b46:	61bb      	str	r3, [r7, #24]
     b48:	f04f 0300 	mov.w	r3, #0
     b4c:	75fb      	strb	r3, [r7, #23]
     b4e:	f04f 0300 	mov.w	r3, #0
     b52:	61fb      	str	r3, [r7, #28]
     b54:	e07f      	b.n	c56 <registrar_llamada+0x11a>
     b56:	f240 5398 	movw	r3, #1432	; 0x598
     b5a:	f2c2 0300 	movt	r3, #8192	; 0x2000
     b5e:	69fa      	ldr	r2, [r7, #28]
     b60:	f853 3022 	ldr.w	r3, [r3, r2, lsl #2]
     b64:	2b01      	cmp	r3, #1
     b66:	d172      	bne.n	c4e <registrar_llamada+0x112>
     b68:	e06b      	b.n	c42 <registrar_llamada+0x106>
     b6a:	f240 6300 	movw	r3, #1536	; 0x600
     b6e:	f2c2 0300 	movt	r3, #8192	; 0x2000
     b72:	69ba      	ldr	r2, [r7, #24]
     b74:	f102 0202 	add.w	r2, r2, #2
     b78:	f853 3022 	ldr.w	r3, [r3, r2, lsl #2]
     b7c:	f113 0f05 	cmn.w	r3, #5
     b80:	d11b      	bne.n	bba <registrar_llamada+0x7e>
     b82:	69bb      	ldr	r3, [r7, #24]
     b84:	2b00      	cmp	r3, #0
     b86:	d118      	bne.n	bba <registrar_llamada+0x7e>
     b88:	f240 6300 	movw	r3, #1536	; 0x600
     b8c:	f2c2 0300 	movt	r3, #8192	; 0x2000
     b90:	69ba      	ldr	r2, [r7, #24]
     b92:	f102 0202 	add.w	r2, r2, #2
     b96:	69f9      	ldr	r1, [r7, #28]
     b98:	f843 1022 	str.w	r1, [r3, r2, lsl #2]
     b9c:	f04f 0301 	mov.w	r3, #1
     ba0:	75fb      	strb	r3, [r7, #23]
     ba2:	f240 5398 	movw	r3, #1432	; 0x598
     ba6:	f2c2 0300 	movt	r3, #8192	; 0x2000
     baa:	69fa      	ldr	r2, [r7, #28]
     bac:	f04f 0100 	mov.w	r1, #0
     bb0:	f843 1022 	str.w	r1, [r3, r2, lsl #2]
     bb4:	f001 fafe 	bl	21b4 <HW_Gpio_Main_ON>
     bb8:	e03f      	b.n	c3a <registrar_llamada+0xfe>
     bba:	f240 6300 	movw	r3, #1536	; 0x600
     bbe:	f2c2 0300 	movt	r3, #8192	; 0x2000
     bc2:	69ba      	ldr	r2, [r7, #24]
     bc4:	f102 0202 	add.w	r2, r2, #2
     bc8:	f853 3022 	ldr.w	r3, [r3, r2, lsl #2]
     bcc:	f113 0f05 	cmn.w	r3, #5
     bd0:	d133      	bne.n	c3a <registrar_llamada+0xfe>
     bd2:	69bb      	ldr	r3, [r7, #24]
     bd4:	2b00      	cmp	r3, #0
     bd6:	dd30      	ble.n	c3a <registrar_llamada+0xfe>
     bd8:	69bb      	ldr	r3, [r7, #24]
     bda:	f103 32ff 	add.w	r2, r3, #4294967295
     bde:	f240 6300 	movw	r3, #1536	; 0x600
     be2:	f2c2 0300 	movt	r3, #8192	; 0x2000
     be6:	f102 0202 	add.w	r2, r2, #2
     bea:	f853 2022 	ldr.w	r2, [r3, r2, lsl #2]
     bee:	69fb      	ldr	r3, [r7, #28]
     bf0:	429a      	cmp	r2, r3
     bf2:	d016      	beq.n	c22 <registrar_llamada+0xe6>
     bf4:	f240 6300 	movw	r3, #1536	; 0x600
     bf8:	f2c2 0300 	movt	r3, #8192	; 0x2000
     bfc:	69ba      	ldr	r2, [r7, #24]
     bfe:	f102 0202 	add.w	r2, r2, #2
     c02:	69f9      	ldr	r1, [r7, #28]
     c04:	f843 1022 	str.w	r1, [r3, r2, lsl #2]
     c08:	f240 5398 	movw	r3, #1432	; 0x598
     c0c:	f2c2 0300 	movt	r3, #8192	; 0x2000
     c10:	69fa      	ldr	r2, [r7, #28]
     c12:	f04f 0100 	mov.w	r1, #0
     c16:	f843 1022 	str.w	r1, [r3, r2, lsl #2]
     c1a:	f001 facb 	bl	21b4 <HW_Gpio_Main_ON>
     c1e:	f001 fa99 	bl	2154 <HW_Gpio_LED_Eth_Green_ON>
     c22:	f04f 0301 	mov.w	r3, #1
     c26:	75fb      	strb	r3, [r7, #23]
     c28:	f240 5398 	movw	r3, #1432	; 0x598
     c2c:	f2c2 0300 	movt	r3, #8192	; 0x2000
     c30:	69fa      	ldr	r2, [r7, #28]
     c32:	f04f 0100 	mov.w	r1, #0
     c36:	f843 1022 	str.w	r1, [r3, r2, lsl #2]
     c3a:	69bb      	ldr	r3, [r7, #24]
     c3c:	f103 0301 	add.w	r3, r3, #1
     c40:	61bb      	str	r3, [r7, #24]
     c42:	69bb      	ldr	r3, [r7, #24]
     c44:	2b03      	cmp	r3, #3
     c46:	dc02      	bgt.n	c4e <registrar_llamada+0x112>
     c48:	7dfb      	ldrb	r3, [r7, #23]
     c4a:	2b00      	cmp	r3, #0
     c4c:	d08d      	beq.n	b6a <registrar_llamada+0x2e>
     c4e:	69fb      	ldr	r3, [r7, #28]
     c50:	f103 0301 	add.w	r3, r3, #1
     c54:	61fb      	str	r3, [r7, #28]
     c56:	69fb      	ldr	r3, [r7, #28]
     c58:	2b03      	cmp	r3, #3
     c5a:	f77f af7c 	ble.w	b56 <registrar_llamada+0x1a>
     c5e:	f04f 0003 	mov.w	r0, #3
     c62:	f002 fb99 	bl	3398 <eraseConsoleLine>
     c66:	f04f 0300 	mov.w	r3, #0
     c6a:	61fb      	str	r3, [r7, #28]
     c6c:	e02f      	b.n	cce <registrar_llamada+0x192>
     c6e:	f240 6300 	movw	r3, #1536	; 0x600
     c72:	f2c2 0300 	movt	r3, #8192	; 0x2000
     c76:	69fa      	ldr	r2, [r7, #28]
     c78:	f102 0202 	add.w	r2, r2, #2
     c7c:	f853 3022 	ldr.w	r3, [r3, r2, lsl #2]
     c80:	f113 0f05 	cmn.w	r3, #5
     c84:	d01f      	beq.n	cc6 <registrar_llamada+0x18a>
     c86:	f240 6300 	movw	r3, #1536	; 0x600
     c8a:	f2c2 0300 	movt	r3, #8192	; 0x2000
     c8e:	69fa      	ldr	r2, [r7, #28]
     c90:	f102 0202 	add.w	r2, r2, #2
     c94:	f853 3022 	ldr.w	r3, [r3, r2, lsl #2]
     c98:	f107 0204 	add.w	r2, r7, #4
     c9c:	4610      	mov	r0, r2
     c9e:	f249 618c 	movw	r1, #38540	; 0x968c
     ca2:	f2c0 0100 	movt	r1, #0
     ca6:	461a      	mov	r2, r3
     ca8:	f002 fbd8 	bl	345c <sprintf>
     cac:	69fb      	ldr	r3, [r7, #28]
     cae:	ea4f 0343 	mov.w	r3, r3, lsl #1
     cb2:	f103 0201 	add.w	r2, r3, #1
     cb6:	f107 0304 	add.w	r3, r7, #4
     cba:	4610      	mov	r0, r2
     cbc:	f04f 0103 	mov.w	r1, #3
     cc0:	461a      	mov	r2, r3
     cc2:	f002 faf7 	bl	32b4 <consolePrintStr>
     cc6:	69fb      	ldr	r3, [r7, #28]
     cc8:	f103 0301 	add.w	r3, r3, #1
     ccc:	61fb      	str	r3, [r7, #28]
     cce:	69fb      	ldr	r3, [r7, #28]
     cd0:	2b03      	cmp	r3, #3
     cd2:	ddcc      	ble.n	c6e <registrar_llamada+0x132>
     cd4:	f002 fb1a 	bl	330c <refreshConsole>
     cd8:	f107 0720 	add.w	r7, r7, #32
     cdc:	46bd      	mov	sp, r7
     cde:	bd80      	pop	{r7, pc}

00000ce0 <read_inputs>:
     ce0:	b580      	push	{r7, lr}
     ce2:	af00      	add	r7, sp, #0
     ce4:	f7ff ff0a 	bl	afc <read_switches>
     ce8:	f7ff ff28 	bl	b3c <registrar_llamada>
     cec:	bd80      	pop	{r7, pc}
     cee:	bf00      	nop

00000cf0 <leer_array_imagen>:
     cf0:	b480      	push	{r7}
     cf2:	b083      	sub	sp, #12
     cf4:	af00      	add	r7, sp, #0
     cf6:	f04f 0300 	mov.w	r3, #0
     cfa:	607b      	str	r3, [r7, #4]
     cfc:	e021      	b.n	d42 <leer_array_imagen+0x52>
     cfe:	f240 53a8 	movw	r3, #1448	; 0x5a8
     d02:	f2c2 0300 	movt	r3, #8192	; 0x2000
     d06:	687a      	ldr	r2, [r7, #4]
     d08:	f853 3022 	ldr.w	r3, [r3, r2, lsl #2]
     d0c:	2b01      	cmp	r3, #1
     d0e:	d10d      	bne.n	d2c <leer_array_imagen+0x3c>
     d10:	f240 6300 	movw	r3, #1536	; 0x600
     d14:	f2c2 0300 	movt	r3, #8192	; 0x2000
     d18:	687a      	ldr	r2, [r7, #4]
     d1a:	609a      	str	r2, [r3, #8]
     d1c:	f240 53fc 	movw	r3, #1532	; 0x5fc
     d20:	f2c2 0300 	movt	r3, #8192	; 0x2000
     d24:	f04f 0201 	mov.w	r2, #1
     d28:	701a      	strb	r2, [r3, #0]
     d2a:	e006      	b.n	d3a <leer_array_imagen+0x4a>
     d2c:	f240 53fc 	movw	r3, #1532	; 0x5fc
     d30:	f2c2 0300 	movt	r3, #8192	; 0x2000
     d34:	f04f 0200 	mov.w	r2, #0
     d38:	701a      	strb	r2, [r3, #0]
     d3a:	687b      	ldr	r3, [r7, #4]
     d3c:	f103 0301 	add.w	r3, r3, #1
     d40:	607b      	str	r3, [r7, #4]
     d42:	687b      	ldr	r3, [r7, #4]
     d44:	2b03      	cmp	r3, #3
     d46:	ddda      	ble.n	cfe <leer_array_imagen+0xe>
     d48:	f107 070c 	add.w	r7, r7, #12
     d4c:	46bd      	mov	sp, r7
     d4e:	bc80      	pop	{r7}
     d50:	4770      	bx	lr
     d52:	bf00      	nop

00000d54 <display_and_UART_Piso>:
     d54:	b580      	push	{r7, lr}
     d56:	af00      	add	r7, sp, #0
     d58:	f240 6300 	movw	r3, #1536	; 0x600
     d5c:	f2c2 0300 	movt	r3, #8192	; 0x2000
     d60:	681b      	ldr	r3, [r3, #0]
     d62:	2b03      	cmp	r3, #3
     d64:	f200 8088 	bhi.w	e78 <display_and_UART_Piso+0x124>
     d68:	a201      	add	r2, pc, #4	; (adr r2, d70 <display_and_UART_Piso+0x1c>)
     d6a:	f852 f023 	ldr.w	pc, [r2, r3, lsl #2]
     d6e:	bf00      	nop
     d70:	00000d81 	.word	0x00000d81
     d74:	00000dbf 	.word	0x00000dbf
     d78:	00000dfd 	.word	0x00000dfd
     d7c:	00000e3b 	.word	0x00000e3b
     d80:	f04f 0003 	mov.w	r0, #3
     d84:	f04f 0106 	mov.w	r1, #6
     d88:	f249 6290 	movw	r2, #38544	; 0x9690
     d8c:	f2c0 0200 	movt	r2, #0
     d90:	f002 fa90 	bl	32b4 <consolePrintStr>
     d94:	f249 6098 	movw	r0, #38552	; 0x9698
     d98:	f2c0 0000 	movt	r0, #0
     d9c:	f04f 0105 	mov.w	r1, #5
     da0:	f04f 0200 	mov.w	r2, #0
     da4:	f002 f94c 	bl	3040 <UARTSend>
     da8:	f249 6098 	movw	r0, #38552	; 0x9698
     dac:	f2c0 0000 	movt	r0, #0
     db0:	f04f 0105 	mov.w	r1, #5
     db4:	f04f 0201 	mov.w	r2, #1
     db8:	f002 f942 	bl	3040 <UARTSend>
     dbc:	e05d      	b.n	e7a <display_and_UART_Piso+0x126>
     dbe:	f04f 0003 	mov.w	r0, #3
     dc2:	f04f 0106 	mov.w	r1, #6
     dc6:	f249 62a0 	movw	r2, #38560	; 0x96a0
     dca:	f2c0 0200 	movt	r2, #0
     dce:	f002 fa71 	bl	32b4 <consolePrintStr>
     dd2:	f249 60a8 	movw	r0, #38568	; 0x96a8
     dd6:	f2c0 0000 	movt	r0, #0
     dda:	f04f 0105 	mov.w	r1, #5
     dde:	f04f 0200 	mov.w	r2, #0
     de2:	f002 f92d 	bl	3040 <UARTSend>
     de6:	f249 60a8 	movw	r0, #38568	; 0x96a8
     dea:	f2c0 0000 	movt	r0, #0
     dee:	f04f 0105 	mov.w	r1, #5
     df2:	f04f 0201 	mov.w	r2, #1
     df6:	f002 f923 	bl	3040 <UARTSend>
     dfa:	e03e      	b.n	e7a <display_and_UART_Piso+0x126>
     dfc:	f04f 0003 	mov.w	r0, #3
     e00:	f04f 0106 	mov.w	r1, #6
     e04:	f249 62b0 	movw	r2, #38576	; 0x96b0
     e08:	f2c0 0200 	movt	r2, #0
     e0c:	f002 fa52 	bl	32b4 <consolePrintStr>
     e10:	f249 60b8 	movw	r0, #38584	; 0x96b8
     e14:	f2c0 0000 	movt	r0, #0
     e18:	f04f 0105 	mov.w	r1, #5
     e1c:	f04f 0200 	mov.w	r2, #0
     e20:	f002 f90e 	bl	3040 <UARTSend>
     e24:	f249 60b8 	movw	r0, #38584	; 0x96b8
     e28:	f2c0 0000 	movt	r0, #0
     e2c:	f04f 0105 	mov.w	r1, #5
     e30:	f04f 0201 	mov.w	r2, #1
     e34:	f002 f904 	bl	3040 <UARTSend>
     e38:	e01f      	b.n	e7a <display_and_UART_Piso+0x126>
     e3a:	f04f 0003 	mov.w	r0, #3
     e3e:	f04f 0106 	mov.w	r1, #6
     e42:	f249 62c0 	movw	r2, #38592	; 0x96c0
     e46:	f2c0 0200 	movt	r2, #0
     e4a:	f002 fa33 	bl	32b4 <consolePrintStr>
     e4e:	f249 60c8 	movw	r0, #38600	; 0x96c8
     e52:	f2c0 0000 	movt	r0, #0
     e56:	f04f 0105 	mov.w	r1, #5
     e5a:	f04f 0200 	mov.w	r2, #0
     e5e:	f002 f8ef 	bl	3040 <UARTSend>
     e62:	f249 60c8 	movw	r0, #38600	; 0x96c8
     e66:	f2c0 0000 	movt	r0, #0
     e6a:	f04f 0105 	mov.w	r1, #5
     e6e:	f04f 0201 	mov.w	r2, #1
     e72:	f002 f8e5 	bl	3040 <UARTSend>
     e76:	e000      	b.n	e7a <display_and_UART_Piso+0x126>
     e78:	bf00      	nop
     e7a:	f002 fa47 	bl	330c <refreshConsole>
     e7e:	bd80      	pop	{r7, pc}

00000e80 <Timer3IntHandler>:
     e80:	b580      	push	{r7, lr}
     e82:	af00      	add	r7, sp, #0
     e84:	f44f 5040 	mov.w	r0, #12288	; 0x3000
     e88:	f2c4 0003 	movt	r0, #16387	; 0x4003
     e8c:	f04f 0101 	mov.w	r1, #1
     e90:	f7ff fc04 	bl	69c <TimerIntClear>
     e94:	f04f 0033 	mov.w	r0, #51	; 0x33
     e98:	f001 fc0a 	bl	26b0 <IntDisable>
     e9c:	f240 53fe 	movw	r3, #1534	; 0x5fe
     ea0:	f2c2 0300 	movt	r3, #8192	; 0x2000
     ea4:	f04f 0201 	mov.w	r2, #1
     ea8:	701a      	strb	r2, [r3, #0]
     eaa:	f240 6318 	movw	r3, #1560	; 0x618
     eae:	f2c2 0300 	movt	r3, #8192	; 0x2000
     eb2:	f04f 0200 	mov.w	r2, #0
     eb6:	701a      	strb	r2, [r3, #0]
     eb8:	f04f 0033 	mov.w	r0, #51	; 0x33
     ebc:	f001 fb8c 	bl	25d8 <IntEnable>
     ec0:	bd80      	pop	{r7, pc}
     ec2:	bf00      	nop

00000ec4 <Timer0IntHandler>:
     ec4:	b580      	push	{r7, lr}
     ec6:	af00      	add	r7, sp, #0
     ec8:	f04f 0000 	mov.w	r0, #0
     ecc:	f2c4 0003 	movt	r0, #16387	; 0x4003
     ed0:	f04f 0101 	mov.w	r1, #1
     ed4:	f7ff fbe2 	bl	69c <TimerIntClear>
     ed8:	f04f 0023 	mov.w	r0, #35	; 0x23
     edc:	f001 fbe8 	bl	26b0 <IntDisable>
     ee0:	f240 6300 	movw	r3, #1536	; 0x600
     ee4:	f2c2 0300 	movt	r3, #8192	; 0x2000
     ee8:	689a      	ldr	r2, [r3, #8]
     eea:	f240 6300 	movw	r3, #1536	; 0x600
     eee:	f2c2 0300 	movt	r3, #8192	; 0x2000
     ef2:	681b      	ldr	r3, [r3, #0]
     ef4:	429a      	cmp	r2, r3
     ef6:	dd0c      	ble.n	f12 <Timer0IntHandler+0x4e>
     ef8:	f240 6300 	movw	r3, #1536	; 0x600
     efc:	f2c2 0300 	movt	r3, #8192	; 0x2000
     f00:	681b      	ldr	r3, [r3, #0]
     f02:	f103 0201 	add.w	r2, r3, #1
     f06:	f240 6300 	movw	r3, #1536	; 0x600
     f0a:	f2c2 0300 	movt	r3, #8192	; 0x2000
     f0e:	601a      	str	r2, [r3, #0]
     f10:	e00b      	b.n	f2a <Timer0IntHandler+0x66>
     f12:	f240 6300 	movw	r3, #1536	; 0x600
     f16:	f2c2 0300 	movt	r3, #8192	; 0x2000
     f1a:	681b      	ldr	r3, [r3, #0]
     f1c:	f103 32ff 	add.w	r2, r3, #4294967295
     f20:	f240 6300 	movw	r3, #1536	; 0x600
     f24:	f2c2 0300 	movt	r3, #8192	; 0x2000
     f28:	601a      	str	r2, [r3, #0]
     f2a:	f240 6318 	movw	r3, #1560	; 0x618
     f2e:	f2c2 0300 	movt	r3, #8192	; 0x2000
     f32:	f04f 0200 	mov.w	r2, #0
     f36:	701a      	strb	r2, [r3, #0]
     f38:	f04f 0023 	mov.w	r0, #35	; 0x23
     f3c:	f001 fb4c 	bl	25d8 <IntEnable>
     f40:	bd80      	pop	{r7, pc}
     f42:	bf00      	nop

00000f44 <DISPLAY_init>:
     f44:	b580      	push	{r7, lr}
     f46:	af00      	add	r7, sp, #0
     f48:	f002 f976 	bl	3238 <initConsole>
     f4c:	f04f 0002 	mov.w	r0, #2
     f50:	f04f 0100 	mov.w	r1, #0
     f54:	f249 62d0 	movw	r2, #38608	; 0x96d0
     f58:	f2c0 0200 	movt	r2, #0
     f5c:	f002 f9aa 	bl	32b4 <consolePrintStr>
     f60:	f04f 0002 	mov.w	r0, #2
     f64:	f04f 0101 	mov.w	r1, #1
     f68:	f249 62e4 	movw	r2, #38628	; 0x96e4
     f6c:	f2c0 0200 	movt	r2, #0
     f70:	f002 f9a0 	bl	32b4 <consolePrintStr>
     f74:	f002 f9ca 	bl	330c <refreshConsole>
     f78:	bd80      	pop	{r7, pc}
     f7a:	bf00      	nop

00000f7c <init_structura>:
     f7c:	b480      	push	{r7}
     f7e:	af00      	add	r7, sp, #0
     f80:	f240 6300 	movw	r3, #1536	; 0x600
     f84:	f2c2 0300 	movt	r3, #8192	; 0x2000
     f88:	f04f 0200 	mov.w	r2, #0
     f8c:	601a      	str	r2, [r3, #0]
     f8e:	f240 6300 	movw	r3, #1536	; 0x600
     f92:	f2c2 0300 	movt	r3, #8192	; 0x2000
     f96:	f04f 0201 	mov.w	r2, #1
     f9a:	711a      	strb	r2, [r3, #4]
     f9c:	f240 6300 	movw	r3, #1536	; 0x600
     fa0:	f2c2 0300 	movt	r3, #8192	; 0x2000
     fa4:	f06f 0204 	mvn.w	r2, #4
     fa8:	609a      	str	r2, [r3, #8]
     faa:	f240 6300 	movw	r3, #1536	; 0x600
     fae:	f2c2 0300 	movt	r3, #8192	; 0x2000
     fb2:	f06f 0204 	mvn.w	r2, #4
     fb6:	60da      	str	r2, [r3, #12]
     fb8:	f240 6300 	movw	r3, #1536	; 0x600
     fbc:	f2c2 0300 	movt	r3, #8192	; 0x2000
     fc0:	f06f 0204 	mvn.w	r2, #4
     fc4:	611a      	str	r2, [r3, #16]
     fc6:	f240 6300 	movw	r3, #1536	; 0x600
     fca:	f2c2 0300 	movt	r3, #8192	; 0x2000
     fce:	f06f 0204 	mvn.w	r2, #4
     fd2:	615a      	str	r2, [r3, #20]
     fd4:	46bd      	mov	sp, r7
     fd6:	bc80      	pop	{r7}
     fd8:	4770      	bx	lr
     fda:	bf00      	nop

00000fdc <ELEVATOR_HW_init>:
     fdc:	b580      	push	{r7, lr}
     fde:	af00      	add	r7, sp, #0
     fe0:	f7ff fad6 	bl	590 <PROCESSOR_init>
     fe4:	f001 f880 	bl	20e8 <GPIO_init>
     fe8:	f001 feee 	bl	2dc8 <KEYPAD_init>
     fec:	f001 ffae 	bl	2f4c <UART_init>
     ff0:	f04f 0003 	mov.w	r0, #3
     ff4:	f7ff f884 	bl	100 <init_Timer0>
     ff8:	f04f 0006 	mov.w	r0, #6
     ffc:	f7ff f8c0 	bl	180 <init_Timer3>
    1000:	f7ff ffa0 	bl	f44 <DISPLAY_init>
    1004:	f7ff ffba 	bl	f7c <init_structura>
    1008:	f249 60f8 	movw	r0, #38648	; 0x96f8
    100c:	f2c0 0000 	movt	r0, #0
    1010:	f04f 0108 	mov.w	r1, #8
    1014:	f04f 0200 	mov.w	r2, #0
    1018:	f002 f812 	bl	3040 <UARTSend>
    101c:	f249 60f8 	movw	r0, #38648	; 0x96f8
    1020:	f2c0 0000 	movt	r0, #0
    1024:	f04f 0108 	mov.w	r1, #8
    1028:	f04f 0201 	mov.w	r2, #1
    102c:	f002 f808 	bl	3040 <UARTSend>
    1030:	bd80      	pop	{r7, pc}
    1032:	bf00      	nop

00001034 <ESPERANDO_accion>:
    1034:	b580      	push	{r7, lr}
    1036:	af00      	add	r7, sp, #0
    1038:	f7ff fe5a 	bl	cf0 <leer_array_imagen>
    103c:	f240 631a 	movw	r3, #1562	; 0x61a
    1040:	f2c2 0300 	movt	r3, #8192	; 0x2000
    1044:	781b      	ldrb	r3, [r3, #0]
    1046:	2b00      	cmp	r3, #0
    1048:	f040 80bf 	bne.w	11ca <ESPERANDO_accion+0x196>
    104c:	f04f 0009 	mov.w	r0, #9
    1050:	f002 f9a2 	bl	3398 <eraseConsoleLine>
    1054:	f04f 0003 	mov.w	r0, #3
    1058:	f04f 0109 	mov.w	r1, #9
    105c:	f249 7200 	movw	r2, #38656	; 0x9700
    1060:	f2c0 0200 	movt	r2, #0
    1064:	f002 f926 	bl	32b4 <consolePrintStr>
    1068:	f04f 0009 	mov.w	r0, #9
    106c:	f002 f976 	bl	335c <refreshConsoleLine>
    1070:	f240 631a 	movw	r3, #1562	; 0x61a
    1074:	f2c2 0300 	movt	r3, #8192	; 0x2000
    1078:	f04f 0201 	mov.w	r2, #1
    107c:	701a      	strb	r2, [r3, #0]
    107e:	f249 700c 	movw	r0, #38668	; 0x970c
    1082:	f2c0 0000 	movt	r0, #0
    1086:	f04f 010c 	mov.w	r1, #12
    108a:	f04f 0200 	mov.w	r2, #0
    108e:	f001 ffd7 	bl	3040 <UARTSend>
    1092:	f249 700c 	movw	r0, #38668	; 0x970c
    1096:	f2c0 0000 	movt	r0, #0
    109a:	f04f 010c 	mov.w	r1, #12
    109e:	f04f 0201 	mov.w	r2, #1
    10a2:	f001 ffcd 	bl	3040 <UARTSend>
    10a6:	f240 6300 	movw	r3, #1536	; 0x600
    10aa:	f2c2 0300 	movt	r3, #8192	; 0x2000
    10ae:	681b      	ldr	r3, [r3, #0]
    10b0:	2b03      	cmp	r3, #3
    10b2:	f200 8087 	bhi.w	11c4 <ESPERANDO_accion+0x190>
    10b6:	a201      	add	r2, pc, #4	; (adr r2, 10bc <ESPERANDO_accion+0x88>)
    10b8:	f852 f023 	ldr.w	pc, [r2, r3, lsl #2]
    10bc:	000010cd 	.word	0x000010cd
    10c0:	0000110b 	.word	0x0000110b
    10c4:	00001149 	.word	0x00001149
    10c8:	00001187 	.word	0x00001187
    10cc:	f04f 0003 	mov.w	r0, #3
    10d0:	f04f 0106 	mov.w	r1, #6
    10d4:	f249 6290 	movw	r2, #38544	; 0x9690
    10d8:	f2c0 0200 	movt	r2, #0
    10dc:	f002 f8ea 	bl	32b4 <consolePrintStr>
    10e0:	f249 6098 	movw	r0, #38552	; 0x9698
    10e4:	f2c0 0000 	movt	r0, #0
    10e8:	f04f 0105 	mov.w	r1, #5
    10ec:	f04f 0200 	mov.w	r2, #0
    10f0:	f001 ffa6 	bl	3040 <UARTSend>
    10f4:	f249 6098 	movw	r0, #38552	; 0x9698
    10f8:	f2c0 0000 	movt	r0, #0
    10fc:	f04f 0105 	mov.w	r1, #5
    1100:	f04f 0201 	mov.w	r2, #1
    1104:	f001 ff9c 	bl	3040 <UARTSend>
    1108:	e05d      	b.n	11c6 <ESPERANDO_accion+0x192>
    110a:	f04f 0003 	mov.w	r0, #3
    110e:	f04f 0106 	mov.w	r1, #6
    1112:	f249 62a0 	movw	r2, #38560	; 0x96a0
    1116:	f2c0 0200 	movt	r2, #0
    111a:	f002 f8cb 	bl	32b4 <consolePrintStr>
    111e:	f249 60a8 	movw	r0, #38568	; 0x96a8
    1122:	f2c0 0000 	movt	r0, #0
    1126:	f04f 0105 	mov.w	r1, #5
    112a:	f04f 0200 	mov.w	r2, #0
    112e:	f001 ff87 	bl	3040 <UARTSend>
    1132:	f249 60a8 	movw	r0, #38568	; 0x96a8
    1136:	f2c0 0000 	movt	r0, #0
    113a:	f04f 0105 	mov.w	r1, #5
    113e:	f04f 0201 	mov.w	r2, #1
    1142:	f001 ff7d 	bl	3040 <UARTSend>
    1146:	e03e      	b.n	11c6 <ESPERANDO_accion+0x192>
    1148:	f04f 0003 	mov.w	r0, #3
    114c:	f04f 0106 	mov.w	r1, #6
    1150:	f249 62b0 	movw	r2, #38576	; 0x96b0
    1154:	f2c0 0200 	movt	r2, #0
    1158:	f002 f8ac 	bl	32b4 <consolePrintStr>
    115c:	f249 60b8 	movw	r0, #38584	; 0x96b8
    1160:	f2c0 0000 	movt	r0, #0
    1164:	f04f 0105 	mov.w	r1, #5
    1168:	f04f 0200 	mov.w	r2, #0
    116c:	f001 ff68 	bl	3040 <UARTSend>
    1170:	f249 60b8 	movw	r0, #38584	; 0x96b8
    1174:	f2c0 0000 	movt	r0, #0
    1178:	f04f 0105 	mov.w	r1, #5
    117c:	f04f 0201 	mov.w	r2, #1
    1180:	f001 ff5e 	bl	3040 <UARTSend>
    1184:	e01f      	b.n	11c6 <ESPERANDO_accion+0x192>
    1186:	f04f 0003 	mov.w	r0, #3
    118a:	f04f 0106 	mov.w	r1, #6
    118e:	f249 62c0 	movw	r2, #38592	; 0x96c0
    1192:	f2c0 0200 	movt	r2, #0
    1196:	f002 f88d 	bl	32b4 <consolePrintStr>
    119a:	f249 60c8 	movw	r0, #38600	; 0x96c8
    119e:	f2c0 0000 	movt	r0, #0
    11a2:	f04f 0105 	mov.w	r1, #5
    11a6:	f04f 0200 	mov.w	r2, #0
    11aa:	f001 ff49 	bl	3040 <UARTSend>
    11ae:	f249 60c8 	movw	r0, #38600	; 0x96c8
    11b2:	f2c0 0000 	movt	r0, #0
    11b6:	f04f 0105 	mov.w	r1, #5
    11ba:	f04f 0201 	mov.w	r2, #1
    11be:	f001 ff3f 	bl	3040 <UARTSend>
    11c2:	e000      	b.n	11c6 <ESPERANDO_accion+0x192>
    11c4:	bf00      	nop
    11c6:	f002 f8a1 	bl	330c <refreshConsole>
    11ca:	bd80      	pop	{r7, pc}

000011cc <ESPERANDO_evento>:
    11cc:	b580      	push	{r7, lr}
    11ce:	af00      	add	r7, sp, #0
    11d0:	f7ff fb5e 	bl	890 <getPiso>
    11d4:	f240 6300 	movw	r3, #1536	; 0x600
    11d8:	f2c2 0300 	movt	r3, #8192	; 0x2000
    11dc:	689b      	ldr	r3, [r3, #8]
    11de:	f113 0f05 	cmn.w	r3, #5
    11e2:	d00a      	beq.n	11fa <ESPERANDO_evento+0x2e>
    11e4:	f240 53fc 	movw	r3, #1532	; 0x5fc
    11e8:	f2c2 0300 	movt	r3, #8192	; 0x2000
    11ec:	f04f 0201 	mov.w	r2, #1
    11f0:	701a      	strb	r2, [r3, #0]
    11f2:	f000 ffc7 	bl	2184 <HW_Gpio_LED_Eth_Green_OFF>
    11f6:	f000 ffdd 	bl	21b4 <HW_Gpio_Main_ON>
    11fa:	f240 6300 	movw	r3, #1536	; 0x600
    11fe:	f2c2 0300 	movt	r3, #8192	; 0x2000
    1202:	689a      	ldr	r2, [r3, #8]
    1204:	f240 6300 	movw	r3, #1536	; 0x600
    1208:	f2c2 0300 	movt	r3, #8192	; 0x2000
    120c:	681b      	ldr	r3, [r3, #0]
    120e:	429a      	cmp	r2, r3
    1210:	dd23      	ble.n	125a <ESPERANDO_evento+0x8e>
    1212:	f240 53fc 	movw	r3, #1532	; 0x5fc
    1216:	f2c2 0300 	movt	r3, #8192	; 0x2000
    121a:	781b      	ldrb	r3, [r3, #0]
    121c:	2b00      	cmp	r3, #0
    121e:	d04b      	beq.n	12b8 <ESPERANDO_evento+0xec>
    1220:	f240 53fc 	movw	r3, #1532	; 0x5fc
    1224:	f2c2 0300 	movt	r3, #8192	; 0x2000
    1228:	f04f 0200 	mov.w	r2, #0
    122c:	701a      	strb	r2, [r3, #0]
    122e:	f240 6318 	movw	r3, #1560	; 0x618
    1232:	f2c2 0300 	movt	r3, #8192	; 0x2000
    1236:	f04f 0200 	mov.w	r2, #0
    123a:	701a      	strb	r2, [r3, #0]
    123c:	f240 5396 	movw	r3, #1430	; 0x596
    1240:	f2c2 0300 	movt	r3, #8192	; 0x2000
    1244:	f04f 0200 	mov.w	r2, #0
    1248:	701a      	strb	r2, [r3, #0]
    124a:	f240 0310 	movw	r3, #16
    124e:	f2c2 0300 	movt	r3, #8192	; 0x2000
    1252:	f04f 0202 	mov.w	r2, #2
    1256:	701a      	strb	r2, [r3, #0]
    1258:	e02e      	b.n	12b8 <ESPERANDO_evento+0xec>
    125a:	f240 6300 	movw	r3, #1536	; 0x600
    125e:	f2c2 0300 	movt	r3, #8192	; 0x2000
    1262:	689a      	ldr	r2, [r3, #8]
    1264:	f240 6300 	movw	r3, #1536	; 0x600
    1268:	f2c2 0300 	movt	r3, #8192	; 0x2000
    126c:	681b      	ldr	r3, [r3, #0]
    126e:	429a      	cmp	r2, r3
    1270:	da22      	bge.n	12b8 <ESPERANDO_evento+0xec>
    1272:	f240 53fc 	movw	r3, #1532	; 0x5fc
    1276:	f2c2 0300 	movt	r3, #8192	; 0x2000
    127a:	781b      	ldrb	r3, [r3, #0]
    127c:	2b00      	cmp	r3, #0
    127e:	d01b      	beq.n	12b8 <ESPERANDO_evento+0xec>
    1280:	f240 53fc 	movw	r3, #1532	; 0x5fc
    1284:	f2c2 0300 	movt	r3, #8192	; 0x2000
    1288:	f04f 0200 	mov.w	r2, #0
    128c:	701a      	strb	r2, [r3, #0]
    128e:	f240 6318 	movw	r3, #1560	; 0x618
    1292:	f2c2 0300 	movt	r3, #8192	; 0x2000
    1296:	f04f 0200 	mov.w	r2, #0
    129a:	701a      	strb	r2, [r3, #0]
    129c:	f240 5396 	movw	r3, #1430	; 0x596
    12a0:	f2c2 0300 	movt	r3, #8192	; 0x2000
    12a4:	f04f 0200 	mov.w	r2, #0
    12a8:	701a      	strb	r2, [r3, #0]
    12aa:	f240 0310 	movw	r3, #16
    12ae:	f2c2 0300 	movt	r3, #8192	; 0x2000
    12b2:	f04f 0203 	mov.w	r2, #3
    12b6:	701a      	strb	r2, [r3, #0]
    12b8:	bd80      	pop	{r7, pc}
    12ba:	bf00      	nop

000012bc <SUBIENDO_accion>:
    12bc:	b580      	push	{r7, lr}
    12be:	af00      	add	r7, sp, #0
    12c0:	f240 631c 	movw	r3, #1564	; 0x61c
    12c4:	f2c2 0300 	movt	r3, #8192	; 0x2000
    12c8:	f04f 0200 	mov.w	r2, #0
    12cc:	701a      	strb	r2, [r3, #0]
    12ce:	f240 5396 	movw	r3, #1430	; 0x596
    12d2:	f2c2 0300 	movt	r3, #8192	; 0x2000
    12d6:	781b      	ldrb	r3, [r3, #0]
    12d8:	2b00      	cmp	r3, #0
    12da:	d12c      	bne.n	1336 <SUBIENDO_accion+0x7a>
    12dc:	f240 5396 	movw	r3, #1430	; 0x596
    12e0:	f2c2 0300 	movt	r3, #8192	; 0x2000
    12e4:	f04f 0201 	mov.w	r2, #1
    12e8:	701a      	strb	r2, [r3, #0]
    12ea:	f04f 0009 	mov.w	r0, #9
    12ee:	f002 f853 	bl	3398 <eraseConsoleLine>
    12f2:	f04f 0003 	mov.w	r0, #3
    12f6:	f04f 0109 	mov.w	r1, #9
    12fa:	f249 7218 	movw	r2, #38680	; 0x9718
    12fe:	f2c0 0200 	movt	r2, #0
    1302:	f001 ffd7 	bl	32b4 <consolePrintStr>
    1306:	f04f 0009 	mov.w	r0, #9
    130a:	f002 f827 	bl	335c <refreshConsoleLine>
    130e:	f249 701c 	movw	r0, #38684	; 0x971c
    1312:	f2c0 0000 	movt	r0, #0
    1316:	f04f 010b 	mov.w	r1, #11
    131a:	f04f 0200 	mov.w	r2, #0
    131e:	f001 fe8f 	bl	3040 <UARTSend>
    1322:	f249 701c 	movw	r0, #38684	; 0x971c
    1326:	f2c0 0000 	movt	r0, #0
    132a:	f04f 010b 	mov.w	r1, #11
    132e:	f04f 0201 	mov.w	r2, #1
    1332:	f001 fe85 	bl	3040 <UARTSend>
    1336:	f240 6318 	movw	r3, #1560	; 0x618
    133a:	f2c2 0300 	movt	r3, #8192	; 0x2000
    133e:	781b      	ldrb	r3, [r3, #0]
    1340:	2b00      	cmp	r3, #0
    1342:	f040 809d 	bne.w	1480 <SUBIENDO_accion+0x1c4>
    1346:	f240 6300 	movw	r3, #1536	; 0x600
    134a:	f2c2 0300 	movt	r3, #8192	; 0x2000
    134e:	681b      	ldr	r3, [r3, #0]
    1350:	2b03      	cmp	r3, #3
    1352:	f200 808d 	bhi.w	1470 <SUBIENDO_accion+0x1b4>
    1356:	a201      	add	r2, pc, #4	; (adr r2, 135c <SUBIENDO_accion+0xa0>)
    1358:	f852 f023 	ldr.w	pc, [r2, r3, lsl #2]
    135c:	0000136d 	.word	0x0000136d
    1360:	000013af 	.word	0x000013af
    1364:	000013f1 	.word	0x000013f1
    1368:	00001433 	.word	0x00001433
    136c:	f7fe fef0 	bl	150 <enable_Timer_0>
    1370:	f04f 0003 	mov.w	r0, #3
    1374:	f04f 0106 	mov.w	r1, #6
    1378:	f249 6290 	movw	r2, #38544	; 0x9690
    137c:	f2c0 0200 	movt	r2, #0
    1380:	f001 ff98 	bl	32b4 <consolePrintStr>
    1384:	f249 7028 	movw	r0, #38696	; 0x9728
    1388:	f2c0 0000 	movt	r0, #0
    138c:	f04f 0105 	mov.w	r1, #5
    1390:	f04f 0200 	mov.w	r2, #0
    1394:	f001 fe54 	bl	3040 <UARTSend>
    1398:	f249 7028 	movw	r0, #38696	; 0x9728
    139c:	f2c0 0000 	movt	r0, #0
    13a0:	f04f 0105 	mov.w	r1, #5
    13a4:	f04f 0201 	mov.w	r2, #1
    13a8:	f001 fe4a 	bl	3040 <UARTSend>
    13ac:	e061      	b.n	1472 <SUBIENDO_accion+0x1b6>
    13ae:	f7fe fecf 	bl	150 <enable_Timer_0>
    13b2:	f04f 0003 	mov.w	r0, #3
    13b6:	f04f 0106 	mov.w	r1, #6
    13ba:	f249 62a0 	movw	r2, #38560	; 0x96a0
    13be:	f2c0 0200 	movt	r2, #0
    13c2:	f001 ff77 	bl	32b4 <consolePrintStr>
    13c6:	f249 60a8 	movw	r0, #38568	; 0x96a8
    13ca:	f2c0 0000 	movt	r0, #0
    13ce:	f04f 0105 	mov.w	r1, #5
    13d2:	f04f 0200 	mov.w	r2, #0
    13d6:	f001 fe33 	bl	3040 <UARTSend>
    13da:	f249 60a8 	movw	r0, #38568	; 0x96a8
    13de:	f2c0 0000 	movt	r0, #0
    13e2:	f04f 0105 	mov.w	r1, #5
    13e6:	f04f 0201 	mov.w	r2, #1
    13ea:	f001 fe29 	bl	3040 <UARTSend>
    13ee:	e040      	b.n	1472 <SUBIENDO_accion+0x1b6>
    13f0:	f7fe feae 	bl	150 <enable_Timer_0>
    13f4:	f04f 0003 	mov.w	r0, #3
    13f8:	f04f 0106 	mov.w	r1, #6
    13fc:	f249 62b0 	movw	r2, #38576	; 0x96b0
    1400:	f2c0 0200 	movt	r2, #0
    1404:	f001 ff56 	bl	32b4 <consolePrintStr>
    1408:	f249 60b8 	movw	r0, #38584	; 0x96b8
    140c:	f2c0 0000 	movt	r0, #0
    1410:	f04f 0105 	mov.w	r1, #5
    1414:	f04f 0200 	mov.w	r2, #0
    1418:	f001 fe12 	bl	3040 <UARTSend>
    141c:	f249 60b8 	movw	r0, #38584	; 0x96b8
    1420:	f2c0 0000 	movt	r0, #0
    1424:	f04f 0105 	mov.w	r1, #5
    1428:	f04f 0201 	mov.w	r2, #1
    142c:	f001 fe08 	bl	3040 <UARTSend>
    1430:	e01f      	b.n	1472 <SUBIENDO_accion+0x1b6>
    1432:	f04f 0003 	mov.w	r0, #3
    1436:	f04f 0106 	mov.w	r1, #6
    143a:	f249 62c0 	movw	r2, #38592	; 0x96c0
    143e:	f2c0 0200 	movt	r2, #0
    1442:	f001 ff37 	bl	32b4 <consolePrintStr>
    1446:	f249 60c8 	movw	r0, #38600	; 0x96c8
    144a:	f2c0 0000 	movt	r0, #0
    144e:	f04f 0105 	mov.w	r1, #5
    1452:	f04f 0200 	mov.w	r2, #0
    1456:	f001 fdf3 	bl	3040 <UARTSend>
    145a:	f249 60c8 	movw	r0, #38600	; 0x96c8
    145e:	f2c0 0000 	movt	r0, #0
    1462:	f04f 0105 	mov.w	r1, #5
    1466:	f04f 0201 	mov.w	r2, #1
    146a:	f001 fde9 	bl	3040 <UARTSend>
    146e:	e000      	b.n	1472 <SUBIENDO_accion+0x1b6>
    1470:	bf00      	nop
    1472:	f240 6318 	movw	r3, #1560	; 0x618
    1476:	f2c2 0300 	movt	r3, #8192	; 0x2000
    147a:	f04f 0201 	mov.w	r2, #1
    147e:	701a      	strb	r2, [r3, #0]
    1480:	f04f 0006 	mov.w	r0, #6
    1484:	f001 ff6a 	bl	335c <refreshConsoleLine>
    1488:	bd80      	pop	{r7, pc}
    148a:	bf00      	nop

0000148c <SUBIENDO_evento>:
    148c:	b580      	push	{r7, lr}
    148e:	af00      	add	r7, sp, #0
    1490:	f240 631a 	movw	r3, #1562	; 0x61a
    1494:	f2c2 0300 	movt	r3, #8192	; 0x2000
    1498:	781b      	ldrb	r3, [r3, #0]
    149a:	2b00      	cmp	r3, #0
    149c:	d101      	bne.n	14a2 <SUBIENDO_evento+0x16>
    149e:	f7ff fc59 	bl	d54 <display_and_UART_Piso>
    14a2:	f240 6300 	movw	r3, #1536	; 0x600
    14a6:	f2c2 0300 	movt	r3, #8192	; 0x2000
    14aa:	689a      	ldr	r2, [r3, #8]
    14ac:	f240 6300 	movw	r3, #1536	; 0x600
    14b0:	f2c2 0300 	movt	r3, #8192	; 0x2000
    14b4:	681b      	ldr	r3, [r3, #0]
    14b6:	429a      	cmp	r2, r3
    14b8:	d106      	bne.n	14c8 <SUBIENDO_evento+0x3c>
    14ba:	f240 0310 	movw	r3, #16
    14be:	f2c2 0300 	movt	r3, #8192	; 0x2000
    14c2:	f04f 0204 	mov.w	r2, #4
    14c6:	701a      	strb	r2, [r3, #0]
    14c8:	bd80      	pop	{r7, pc}
    14ca:	bf00      	nop

000014cc <BAJANDO_accion>:
    14cc:	b580      	push	{r7, lr}
    14ce:	af00      	add	r7, sp, #0
    14d0:	f240 631c 	movw	r3, #1564	; 0x61c
    14d4:	f2c2 0300 	movt	r3, #8192	; 0x2000
    14d8:	f04f 0200 	mov.w	r2, #0
    14dc:	701a      	strb	r2, [r3, #0]
    14de:	f240 5396 	movw	r3, #1430	; 0x596
    14e2:	f2c2 0300 	movt	r3, #8192	; 0x2000
    14e6:	781b      	ldrb	r3, [r3, #0]
    14e8:	2b00      	cmp	r3, #0
    14ea:	d12c      	bne.n	1546 <BAJANDO_accion+0x7a>
    14ec:	f240 5396 	movw	r3, #1430	; 0x596
    14f0:	f2c2 0300 	movt	r3, #8192	; 0x2000
    14f4:	f04f 0201 	mov.w	r2, #1
    14f8:	701a      	strb	r2, [r3, #0]
    14fa:	f04f 0009 	mov.w	r0, #9
    14fe:	f001 ff4b 	bl	3398 <eraseConsoleLine>
    1502:	f04f 0003 	mov.w	r0, #3
    1506:	f04f 0109 	mov.w	r1, #9
    150a:	f249 7230 	movw	r2, #38704	; 0x9730
    150e:	f2c0 0200 	movt	r2, #0
    1512:	f001 fecf 	bl	32b4 <consolePrintStr>
    1516:	f04f 0009 	mov.w	r0, #9
    151a:	f001 ff1f 	bl	335c <refreshConsoleLine>
    151e:	f249 7034 	movw	r0, #38708	; 0x9734
    1522:	f2c0 0000 	movt	r0, #0
    1526:	f04f 010b 	mov.w	r1, #11
    152a:	f04f 0200 	mov.w	r2, #0
    152e:	f001 fd87 	bl	3040 <UARTSend>
    1532:	f249 7034 	movw	r0, #38708	; 0x9734
    1536:	f2c0 0000 	movt	r0, #0
    153a:	f04f 010b 	mov.w	r1, #11
    153e:	f04f 0201 	mov.w	r2, #1
    1542:	f001 fd7d 	bl	3040 <UARTSend>
    1546:	f240 6318 	movw	r3, #1560	; 0x618
    154a:	f2c2 0300 	movt	r3, #8192	; 0x2000
    154e:	781b      	ldrb	r3, [r3, #0]
    1550:	2b00      	cmp	r3, #0
    1552:	f040 809d 	bne.w	1690 <BAJANDO_accion+0x1c4>
    1556:	f240 6300 	movw	r3, #1536	; 0x600
    155a:	f2c2 0300 	movt	r3, #8192	; 0x2000
    155e:	681b      	ldr	r3, [r3, #0]
    1560:	2b03      	cmp	r3, #3
    1562:	f200 808d 	bhi.w	1680 <BAJANDO_accion+0x1b4>
    1566:	a201      	add	r2, pc, #4	; (adr r2, 156c <BAJANDO_accion+0xa0>)
    1568:	f852 f023 	ldr.w	pc, [r2, r3, lsl #2]
    156c:	0000157d 	.word	0x0000157d
    1570:	000015bb 	.word	0x000015bb
    1574:	000015fd 	.word	0x000015fd
    1578:	0000163f 	.word	0x0000163f
    157c:	f04f 0003 	mov.w	r0, #3
    1580:	f04f 0106 	mov.w	r1, #6
    1584:	f249 6290 	movw	r2, #38544	; 0x9690
    1588:	f2c0 0200 	movt	r2, #0
    158c:	f001 fe92 	bl	32b4 <consolePrintStr>
    1590:	f249 7028 	movw	r0, #38696	; 0x9728
    1594:	f2c0 0000 	movt	r0, #0
    1598:	f04f 0105 	mov.w	r1, #5
    159c:	f04f 0200 	mov.w	r2, #0
    15a0:	f001 fd4e 	bl	3040 <UARTSend>
    15a4:	f249 7028 	movw	r0, #38696	; 0x9728
    15a8:	f2c0 0000 	movt	r0, #0
    15ac:	f04f 0105 	mov.w	r1, #5
    15b0:	f04f 0201 	mov.w	r2, #1
    15b4:	f001 fd44 	bl	3040 <UARTSend>
    15b8:	e063      	b.n	1682 <BAJANDO_accion+0x1b6>
    15ba:	f7fe fdc9 	bl	150 <enable_Timer_0>
    15be:	f04f 0003 	mov.w	r0, #3
    15c2:	f04f 0106 	mov.w	r1, #6
    15c6:	f249 62a0 	movw	r2, #38560	; 0x96a0
    15ca:	f2c0 0200 	movt	r2, #0
    15ce:	f001 fe71 	bl	32b4 <consolePrintStr>
    15d2:	f249 60a8 	movw	r0, #38568	; 0x96a8
    15d6:	f2c0 0000 	movt	r0, #0
    15da:	f04f 0105 	mov.w	r1, #5
    15de:	f04f 0200 	mov.w	r2, #0
    15e2:	f001 fd2d 	bl	3040 <UARTSend>
    15e6:	f249 60a8 	movw	r0, #38568	; 0x96a8
    15ea:	f2c0 0000 	movt	r0, #0
    15ee:	f04f 0105 	mov.w	r1, #5
    15f2:	f04f 0201 	mov.w	r2, #1
    15f6:	f001 fd23 	bl	3040 <UARTSend>
    15fa:	e042      	b.n	1682 <BAJANDO_accion+0x1b6>
    15fc:	f7fe fda8 	bl	150 <enable_Timer_0>
    1600:	f04f 0003 	mov.w	r0, #3
    1604:	f04f 0106 	mov.w	r1, #6
    1608:	f249 62b0 	movw	r2, #38576	; 0x96b0
    160c:	f2c0 0200 	movt	r2, #0
    1610:	f001 fe50 	bl	32b4 <consolePrintStr>
    1614:	f249 60b8 	movw	r0, #38584	; 0x96b8
    1618:	f2c0 0000 	movt	r0, #0
    161c:	f04f 0105 	mov.w	r1, #5
    1620:	f04f 0200 	mov.w	r2, #0
    1624:	f001 fd0c 	bl	3040 <UARTSend>
    1628:	f249 60b8 	movw	r0, #38584	; 0x96b8
    162c:	f2c0 0000 	movt	r0, #0
    1630:	f04f 0105 	mov.w	r1, #5
    1634:	f04f 0201 	mov.w	r2, #1
    1638:	f001 fd02 	bl	3040 <UARTSend>
    163c:	e021      	b.n	1682 <BAJANDO_accion+0x1b6>
    163e:	f7fe fd87 	bl	150 <enable_Timer_0>
    1642:	f04f 0003 	mov.w	r0, #3
    1646:	f04f 0106 	mov.w	r1, #6
    164a:	f249 62c0 	movw	r2, #38592	; 0x96c0
    164e:	f2c0 0200 	movt	r2, #0
    1652:	f001 fe2f 	bl	32b4 <consolePrintStr>
    1656:	f249 60c8 	movw	r0, #38600	; 0x96c8
    165a:	f2c0 0000 	movt	r0, #0
    165e:	f04f 0105 	mov.w	r1, #5
    1662:	f04f 0200 	mov.w	r2, #0
    1666:	f001 fceb 	bl	3040 <UARTSend>
    166a:	f249 60c8 	movw	r0, #38600	; 0x96c8
    166e:	f2c0 0000 	movt	r0, #0
    1672:	f04f 0105 	mov.w	r1, #5
    1676:	f04f 0201 	mov.w	r2, #1
    167a:	f001 fce1 	bl	3040 <UARTSend>
    167e:	e000      	b.n	1682 <BAJANDO_accion+0x1b6>
    1680:	bf00      	nop
    1682:	f240 6318 	movw	r3, #1560	; 0x618
    1686:	f2c2 0300 	movt	r3, #8192	; 0x2000
    168a:	f04f 0201 	mov.w	r2, #1
    168e:	701a      	strb	r2, [r3, #0]
    1690:	f04f 0006 	mov.w	r0, #6
    1694:	f001 fe62 	bl	335c <refreshConsoleLine>
    1698:	bd80      	pop	{r7, pc}
    169a:	bf00      	nop

0000169c <BAJANDO_evento>:
    169c:	b580      	push	{r7, lr}
    169e:	af00      	add	r7, sp, #0
    16a0:	f240 631a 	movw	r3, #1562	; 0x61a
    16a4:	f2c2 0300 	movt	r3, #8192	; 0x2000
    16a8:	781b      	ldrb	r3, [r3, #0]
    16aa:	2b00      	cmp	r3, #0
    16ac:	d101      	bne.n	16b2 <BAJANDO_evento+0x16>
    16ae:	f7ff fb51 	bl	d54 <display_and_UART_Piso>
    16b2:	f240 6300 	movw	r3, #1536	; 0x600
    16b6:	f2c2 0300 	movt	r3, #8192	; 0x2000
    16ba:	689a      	ldr	r2, [r3, #8]
    16bc:	f240 6300 	movw	r3, #1536	; 0x600
    16c0:	f2c2 0300 	movt	r3, #8192	; 0x2000
    16c4:	681b      	ldr	r3, [r3, #0]
    16c6:	429a      	cmp	r2, r3
    16c8:	d10d      	bne.n	16e6 <BAJANDO_evento+0x4a>
    16ca:	f240 6319 	movw	r3, #1561	; 0x619
    16ce:	f2c2 0300 	movt	r3, #8192	; 0x2000
    16d2:	f04f 0200 	mov.w	r2, #0
    16d6:	701a      	strb	r2, [r3, #0]
    16d8:	f240 0310 	movw	r3, #16
    16dc:	f2c2 0300 	movt	r3, #8192	; 0x2000
    16e0:	f04f 0204 	mov.w	r2, #4
    16e4:	701a      	strb	r2, [r3, #0]
    16e6:	bd80      	pop	{r7, pc}

000016e8 <ABRIENDO_PUERTAS_accion>:
    16e8:	b580      	push	{r7, lr}
    16ea:	af00      	add	r7, sp, #0
    16ec:	f240 6319 	movw	r3, #1561	; 0x619
    16f0:	f2c2 0300 	movt	r3, #8192	; 0x2000
    16f4:	781b      	ldrb	r3, [r3, #0]
    16f6:	2b00      	cmp	r3, #0
    16f8:	f040 80c5 	bne.w	1886 <ABRIENDO_PUERTAS_accion+0x19e>
    16fc:	f7fe fd66 	bl	1cc <enable_Timer_3>
    1700:	f240 6300 	movw	r3, #1536	; 0x600
    1704:	f2c2 0300 	movt	r3, #8192	; 0x2000
    1708:	689a      	ldr	r2, [r3, #8]
    170a:	f240 6300 	movw	r3, #1536	; 0x600
    170e:	f2c2 0300 	movt	r3, #8192	; 0x2000
    1712:	601a      	str	r2, [r3, #0]
    1714:	f7ff f88c 	bl	830 <llamada_registrada>
    1718:	f240 6319 	movw	r3, #1561	; 0x619
    171c:	f2c2 0300 	movt	r3, #8192	; 0x2000
    1720:	f04f 0201 	mov.w	r2, #1
    1724:	701a      	strb	r2, [r3, #0]
    1726:	f240 6300 	movw	r3, #1536	; 0x600
    172a:	f2c2 0300 	movt	r3, #8192	; 0x2000
    172e:	681b      	ldr	r3, [r3, #0]
    1730:	2b03      	cmp	r3, #3
    1732:	f200 8087 	bhi.w	1844 <ABRIENDO_PUERTAS_accion+0x15c>
    1736:	a201      	add	r2, pc, #4	; (adr r2, 173c <ABRIENDO_PUERTAS_accion+0x54>)
    1738:	f852 f023 	ldr.w	pc, [r2, r3, lsl #2]
    173c:	0000174d 	.word	0x0000174d
    1740:	0000178b 	.word	0x0000178b
    1744:	000017c9 	.word	0x000017c9
    1748:	00001807 	.word	0x00001807
    174c:	f04f 0003 	mov.w	r0, #3
    1750:	f04f 0106 	mov.w	r1, #6
    1754:	f249 6290 	movw	r2, #38544	; 0x9690
    1758:	f2c0 0200 	movt	r2, #0
    175c:	f001 fdaa 	bl	32b4 <consolePrintStr>
    1760:	f249 6098 	movw	r0, #38552	; 0x9698
    1764:	f2c0 0000 	movt	r0, #0
    1768:	f04f 0105 	mov.w	r1, #5
    176c:	f04f 0200 	mov.w	r2, #0
    1770:	f001 fc66 	bl	3040 <UARTSend>
    1774:	f249 6098 	movw	r0, #38552	; 0x9698
    1778:	f2c0 0000 	movt	r0, #0
    177c:	f04f 0105 	mov.w	r1, #5
    1780:	f04f 0201 	mov.w	r2, #1
    1784:	f001 fc5c 	bl	3040 <UARTSend>
    1788:	e05d      	b.n	1846 <ABRIENDO_PUERTAS_accion+0x15e>
    178a:	f04f 0003 	mov.w	r0, #3
    178e:	f04f 0106 	mov.w	r1, #6
    1792:	f249 62a0 	movw	r2, #38560	; 0x96a0
    1796:	f2c0 0200 	movt	r2, #0
    179a:	f001 fd8b 	bl	32b4 <consolePrintStr>
    179e:	f249 60a8 	movw	r0, #38568	; 0x96a8
    17a2:	f2c0 0000 	movt	r0, #0
    17a6:	f04f 0105 	mov.w	r1, #5
    17aa:	f04f 0200 	mov.w	r2, #0
    17ae:	f001 fc47 	bl	3040 <UARTSend>
    17b2:	f249 60a8 	movw	r0, #38568	; 0x96a8
    17b6:	f2c0 0000 	movt	r0, #0
    17ba:	f04f 0105 	mov.w	r1, #5
    17be:	f04f 0201 	mov.w	r2, #1
    17c2:	f001 fc3d 	bl	3040 <UARTSend>
    17c6:	e03e      	b.n	1846 <ABRIENDO_PUERTAS_accion+0x15e>
    17c8:	f04f 0003 	mov.w	r0, #3
    17cc:	f04f 0106 	mov.w	r1, #6
    17d0:	f249 62b0 	movw	r2, #38576	; 0x96b0
    17d4:	f2c0 0200 	movt	r2, #0
    17d8:	f001 fd6c 	bl	32b4 <consolePrintStr>
    17dc:	f249 60b8 	movw	r0, #38584	; 0x96b8
    17e0:	f2c0 0000 	movt	r0, #0
    17e4:	f04f 0105 	mov.w	r1, #5
    17e8:	f04f 0200 	mov.w	r2, #0
    17ec:	f001 fc28 	bl	3040 <UARTSend>
    17f0:	f249 60b8 	movw	r0, #38584	; 0x96b8
    17f4:	f2c0 0000 	movt	r0, #0
    17f8:	f04f 0105 	mov.w	r1, #5
    17fc:	f04f 0201 	mov.w	r2, #1
    1800:	f001 fc1e 	bl	3040 <UARTSend>
    1804:	e01f      	b.n	1846 <ABRIENDO_PUERTAS_accion+0x15e>
    1806:	f04f 0003 	mov.w	r0, #3
    180a:	f04f 0106 	mov.w	r1, #6
    180e:	f249 62c0 	movw	r2, #38592	; 0x96c0
    1812:	f2c0 0200 	movt	r2, #0
    1816:	f001 fd4d 	bl	32b4 <consolePrintStr>
    181a:	f249 60c8 	movw	r0, #38600	; 0x96c8
    181e:	f2c0 0000 	movt	r0, #0
    1822:	f04f 0105 	mov.w	r1, #5
    1826:	f04f 0200 	mov.w	r2, #0
    182a:	f001 fc09 	bl	3040 <UARTSend>
    182e:	f249 60c8 	movw	r0, #38600	; 0x96c8
    1832:	f2c0 0000 	movt	r0, #0
    1836:	f04f 0105 	mov.w	r1, #5
    183a:	f04f 0201 	mov.w	r2, #1
    183e:	f001 fbff 	bl	3040 <UARTSend>
    1842:	e000      	b.n	1846 <ABRIENDO_PUERTAS_accion+0x15e>
    1844:	bf00      	nop
    1846:	f249 7040 	movw	r0, #38720	; 0x9740
    184a:	f2c0 0000 	movt	r0, #0
    184e:	f04f 010c 	mov.w	r1, #12
    1852:	f04f 0200 	mov.w	r2, #0
    1856:	f001 fbf3 	bl	3040 <UARTSend>
    185a:	f249 7040 	movw	r0, #38720	; 0x9740
    185e:	f2c0 0000 	movt	r0, #0
    1862:	f04f 010c 	mov.w	r1, #12
    1866:	f04f 0201 	mov.w	r2, #1
    186a:	f001 fbe9 	bl	3040 <UARTSend>
    186e:	f04f 0003 	mov.w	r0, #3
    1872:	f04f 0109 	mov.w	r1, #9
    1876:	f249 724c 	movw	r2, #38732	; 0x974c
    187a:	f2c0 0200 	movt	r2, #0
    187e:	f001 fd19 	bl	32b4 <consolePrintStr>
    1882:	f001 fd43 	bl	330c <refreshConsole>
    1886:	bd80      	pop	{r7, pc}

00001888 <ABRIENDO_PUERTAS_evento>:
    1888:	b480      	push	{r7}
    188a:	af00      	add	r7, sp, #0
    188c:	f240 53fe 	movw	r3, #1534	; 0x5fe
    1890:	f2c2 0300 	movt	r3, #8192	; 0x2000
    1894:	781b      	ldrb	r3, [r3, #0]
    1896:	2b00      	cmp	r3, #0
    1898:	d014      	beq.n	18c4 <ABRIENDO_PUERTAS_evento+0x3c>
    189a:	f240 6319 	movw	r3, #1561	; 0x619
    189e:	f2c2 0300 	movt	r3, #8192	; 0x2000
    18a2:	f04f 0200 	mov.w	r2, #0
    18a6:	701a      	strb	r2, [r3, #0]
    18a8:	f240 53fe 	movw	r3, #1534	; 0x5fe
    18ac:	f2c2 0300 	movt	r3, #8192	; 0x2000
    18b0:	f04f 0200 	mov.w	r2, #0
    18b4:	701a      	strb	r2, [r3, #0]
    18b6:	f240 0310 	movw	r3, #16
    18ba:	f2c2 0300 	movt	r3, #8192	; 0x2000
    18be:	f04f 0205 	mov.w	r2, #5
    18c2:	701a      	strb	r2, [r3, #0]
    18c4:	46bd      	mov	sp, r7
    18c6:	bc80      	pop	{r7}
    18c8:	4770      	bx	lr
    18ca:	bf00      	nop

000018cc <CERRANDO_PUERTAS_accion>:
    18cc:	b580      	push	{r7, lr}
    18ce:	af00      	add	r7, sp, #0
    18d0:	f04f 0003 	mov.w	r0, #3
    18d4:	f04f 0109 	mov.w	r1, #9
    18d8:	f249 7260 	movw	r2, #38752	; 0x9760
    18dc:	f2c0 0200 	movt	r2, #0
    18e0:	f001 fce8 	bl	32b4 <consolePrintStr>
    18e4:	f001 fd12 	bl	330c <refreshConsole>
    18e8:	f249 7074 	movw	r0, #38772	; 0x9774
    18ec:	f2c0 0000 	movt	r0, #0
    18f0:	f04f 010e 	mov.w	r1, #14
    18f4:	f04f 0200 	mov.w	r2, #0
    18f8:	f001 fba2 	bl	3040 <UARTSend>
    18fc:	f249 7074 	movw	r0, #38772	; 0x9774
    1900:	f2c0 0000 	movt	r0, #0
    1904:	f04f 010e 	mov.w	r1, #14
    1908:	f04f 0201 	mov.w	r2, #1
    190c:	f001 fb98 	bl	3040 <UARTSend>
    1910:	bd80      	pop	{r7, pc}
    1912:	bf00      	nop

00001914 <CERRANDO_PUERTAS_evento>:
    1914:	b580      	push	{r7, lr}
    1916:	b082      	sub	sp, #8
    1918:	af00      	add	r7, sp, #0
    191a:	f04f 0300 	mov.w	r3, #0
    191e:	603b      	str	r3, [r7, #0]
    1920:	e030      	b.n	1984 <CERRANDO_PUERTAS_evento+0x70>
    1922:	f240 5397 	movw	r3, #1431	; 0x597
    1926:	f2c2 0300 	movt	r3, #8192	; 0x2000
    192a:	781b      	ldrb	r3, [r3, #0]
    192c:	2b00      	cmp	r3, #0
    192e:	d025      	beq.n	197c <CERRANDO_PUERTAS_evento+0x68>
    1930:	f249 7084 	movw	r0, #38788	; 0x9784
    1934:	f2c0 0000 	movt	r0, #0
    1938:	f04f 0112 	mov.w	r1, #18
    193c:	f04f 0200 	mov.w	r2, #0
    1940:	f001 fb7e 	bl	3040 <UARTSend>
    1944:	f249 7084 	movw	r0, #38788	; 0x9784
    1948:	f2c0 0000 	movt	r0, #0
    194c:	f04f 0112 	mov.w	r1, #18
    1950:	f04f 0201 	mov.w	r2, #1
    1954:	f001 fb74 	bl	3040 <UARTSend>
    1958:	f04f 0300 	mov.w	r3, #0
    195c:	71fb      	strb	r3, [r7, #7]
    195e:	f240 631b 	movw	r3, #1563	; 0x61b
    1962:	f2c2 0300 	movt	r3, #8192	; 0x2000
    1966:	f04f 0201 	mov.w	r2, #1
    196a:	701a      	strb	r2, [r3, #0]
    196c:	f240 0310 	movw	r3, #16
    1970:	f2c2 0300 	movt	r3, #8192	; 0x2000
    1974:	f04f 0204 	mov.w	r2, #4
    1978:	701a      	strb	r2, [r3, #0]
    197a:	e00a      	b.n	1992 <CERRANDO_PUERTAS_evento+0x7e>
    197c:	683b      	ldr	r3, [r7, #0]
    197e:	f103 0301 	add.w	r3, r3, #1
    1982:	603b      	str	r3, [r7, #0]
    1984:	683a      	ldr	r2, [r7, #0]
    1986:	f242 73bf 	movw	r3, #10175	; 0x27bf
    198a:	f2c0 0309 	movt	r3, #9
    198e:	429a      	cmp	r2, r3
    1990:	ddc7      	ble.n	1922 <CERRANDO_PUERTAS_evento+0xe>
    1992:	f240 631a 	movw	r3, #1562	; 0x61a
    1996:	f2c2 0300 	movt	r3, #8192	; 0x2000
    199a:	f04f 0200 	mov.w	r2, #0
    199e:	701a      	strb	r2, [r3, #0]
    19a0:	f240 0310 	movw	r3, #16
    19a4:	f2c2 0300 	movt	r3, #8192	; 0x2000
    19a8:	f04f 0201 	mov.w	r2, #1
    19ac:	701a      	strb	r2, [r3, #0]
    19ae:	f107 0708 	add.w	r7, r7, #8
    19b2:	46bd      	mov	sp, r7
    19b4:	bd80      	pop	{r7, pc}
    19b6:	bf00      	nop

000019b8 <ELEVATOR_Update>:
    19b8:	b580      	push	{r7, lr}
    19ba:	af00      	add	r7, sp, #0
    19bc:	f240 0310 	movw	r3, #16
    19c0:	f2c2 0300 	movt	r3, #8192	; 0x2000
    19c4:	781b      	ldrb	r3, [r3, #0]
    19c6:	f103 33ff 	add.w	r3, r3, #4294967295
    19ca:	2b04      	cmp	r3, #4
    19cc:	d825      	bhi.n	1a1a <ELEVATOR_Update+0x62>
    19ce:	a201      	add	r2, pc, #4	; (adr r2, 19d4 <ELEVATOR_Update+0x1c>)
    19d0:	f852 f023 	ldr.w	pc, [r2, r3, lsl #2]
    19d4:	000019e9 	.word	0x000019e9
    19d8:	000019f3 	.word	0x000019f3
    19dc:	000019fd 	.word	0x000019fd
    19e0:	00001a07 	.word	0x00001a07
    19e4:	00001a11 	.word	0x00001a11
    19e8:	f7ff fb24 	bl	1034 <ESPERANDO_accion>
    19ec:	f7ff fbee 	bl	11cc <ESPERANDO_evento>
    19f0:	e014      	b.n	1a1c <ELEVATOR_Update+0x64>
    19f2:	f7ff fc63 	bl	12bc <SUBIENDO_accion>
    19f6:	f7ff fd49 	bl	148c <SUBIENDO_evento>
    19fa:	e00f      	b.n	1a1c <ELEVATOR_Update+0x64>
    19fc:	f7ff fd66 	bl	14cc <BAJANDO_accion>
    1a00:	f7ff fe4c 	bl	169c <BAJANDO_evento>
    1a04:	e00a      	b.n	1a1c <ELEVATOR_Update+0x64>
    1a06:	f7ff fe6f 	bl	16e8 <ABRIENDO_PUERTAS_accion>
    1a0a:	f7ff ff3d 	bl	1888 <ABRIENDO_PUERTAS_evento>
    1a0e:	e005      	b.n	1a1c <ELEVATOR_Update+0x64>
    1a10:	f7ff ff5c 	bl	18cc <CERRANDO_PUERTAS_accion>
    1a14:	f7ff ff7e 	bl	1914 <CERRANDO_PUERTAS_evento>
    1a18:	e000      	b.n	1a1c <ELEVATOR_Update+0x64>
    1a1a:	bf00      	nop
    1a1c:	bd80      	pop	{r7, pc}
    1a1e:	bf00      	nop

00001a20 <main>:
    1a20:	b580      	push	{r7, lr}
    1a22:	af00      	add	r7, sp, #0
    1a24:	f7ff fada 	bl	fdc <ELEVATOR_HW_init>
    1a28:	f7ff f95a 	bl	ce0 <read_inputs>
    1a2c:	f7ff ffc4 	bl	19b8 <ELEVATOR_Update>
    1a30:	e7fa      	b.n	1a28 <main+0x8>
    1a32:	bf00      	nop

00001a34 <SysTick_Handler>:
    1a34:	b480      	push	{r7}
    1a36:	af00      	add	r7, sp, #0
    1a38:	f240 5394 	movw	r3, #1428	; 0x594
    1a3c:	f2c2 0300 	movt	r3, #8192	; 0x2000
    1a40:	781b      	ldrb	r3, [r3, #0]
    1a42:	f103 0301 	add.w	r3, r3, #1
    1a46:	b2da      	uxtb	r2, r3
    1a48:	f240 5394 	movw	r3, #1428	; 0x594
    1a4c:	f2c2 0300 	movt	r3, #8192	; 0x2000
    1a50:	701a      	strb	r2, [r3, #0]
    1a52:	f240 5394 	movw	r3, #1428	; 0x594
    1a56:	f2c2 0300 	movt	r3, #8192	; 0x2000
    1a5a:	781b      	ldrb	r3, [r3, #0]
    1a5c:	2b2d      	cmp	r3, #45	; 0x2d
    1a5e:	d106      	bne.n	1a6e <SysTick_Handler+0x3a>
    1a60:	f240 5394 	movw	r3, #1428	; 0x594
    1a64:	f2c2 0300 	movt	r3, #8192	; 0x2000
    1a68:	f04f 0200 	mov.w	r2, #0
    1a6c:	701a      	strb	r2, [r3, #0]
    1a6e:	46bd      	mov	sp, r7
    1a70:	bc80      	pop	{r7}
    1a72:	4770      	bx	lr

00001a74 <SysCtlPeripheralEnable>:
    1a74:	b480      	push	{r7}
    1a76:	b083      	sub	sp, #12
    1a78:	af00      	add	r7, sp, #0
    1a7a:	6078      	str	r0, [r7, #4]
    1a7c:	687b      	ldr	r3, [r7, #4]
    1a7e:	ea4f 7213 	mov.w	r2, r3, lsr #28
    1a82:	f249 73b4 	movw	r3, #38836	; 0x97b4
    1a86:	f2c0 0300 	movt	r3, #0
    1a8a:	f853 3022 	ldr.w	r3, [r3, r2, lsl #2]
    1a8e:	461a      	mov	r2, r3
    1a90:	687b      	ldr	r3, [r7, #4]
    1a92:	ea4f 7113 	mov.w	r1, r3, lsr #28
    1a96:	f249 73b4 	movw	r3, #38836	; 0x97b4
    1a9a:	f2c0 0300 	movt	r3, #0
    1a9e:	f853 3021 	ldr.w	r3, [r3, r1, lsl #2]
    1aa2:	6819      	ldr	r1, [r3, #0]
    1aa4:	687b      	ldr	r3, [r7, #4]
    1aa6:	ea4f 4303 	mov.w	r3, r3, lsl #16
    1aaa:	ea4f 4313 	mov.w	r3, r3, lsr #16
    1aae:	6878      	ldr	r0, [r7, #4]
    1ab0:	f400 10f8 	and.w	r0, r0, #2031616	; 0x1f0000
    1ab4:	ea4f 4010 	mov.w	r0, r0, lsr #16
    1ab8:	fa03 f300 	lsl.w	r3, r3, r0
    1abc:	ea41 0303 	orr.w	r3, r1, r3
    1ac0:	6013      	str	r3, [r2, #0]
    1ac2:	f107 070c 	add.w	r7, r7, #12
    1ac6:	46bd      	mov	sp, r7
    1ac8:	bc80      	pop	{r7}
    1aca:	4770      	bx	lr

00001acc <SysCtlDelay>:
    1acc:	3801      	subs	r0, #1
    1ace:	d1fd      	bne.n	1acc <SysCtlDelay>
    1ad0:	4770      	bx	lr
    1ad2:	bf00      	nop

00001ad4 <SysCtlClockSet>:
    1ad4:	b580      	push	{r7, lr}
    1ad6:	b086      	sub	sp, #24
    1ad8:	af00      	add	r7, sp, #0
    1ada:	6078      	str	r0, [r7, #4]
    1adc:	f44f 4360 	mov.w	r3, #57344	; 0xe000
    1ae0:	f2c4 030f 	movt	r3, #16399	; 0x400f
    1ae4:	681b      	ldr	r3, [r3, #0]
    1ae6:	f003 43e0 	and.w	r3, r3, #1879048192	; 0x70000000
    1aea:	2b00      	cmp	r3, #0
    1aec:	d00d      	beq.n	1b0a <SysCtlClockSet+0x36>
    1aee:	f44f 4360 	mov.w	r3, #57344	; 0xe000
    1af2:	f2c4 030f 	movt	r3, #16399	; 0x400f
    1af6:	681a      	ldr	r2, [r3, #0]
    1af8:	f04f 0300 	mov.w	r3, #0
    1afc:	f2c7 03ff 	movt	r3, #28927	; 0x70ff
    1b00:	ea02 0303 	and.w	r3, r2, r3
    1b04:	f1b3 5f80 	cmp.w	r3, #268435456	; 0x10000000
    1b08:	d103      	bne.n	1b12 <SysCtlClockSet+0x3e>
    1b0a:	687b      	ldr	r3, [r7, #4]
    1b0c:	2b00      	cmp	r3, #0
    1b0e:	f2c0 8123 	blt.w	1d58 <SysCtlClockSet+0x284>
    1b12:	f24e 0360 	movw	r3, #57440	; 0xe060
    1b16:	f2c4 030f 	movt	r3, #16399	; 0x400f
    1b1a:	681b      	ldr	r3, [r3, #0]
    1b1c:	613b      	str	r3, [r7, #16]
    1b1e:	f24e 0370 	movw	r3, #57456	; 0xe070
    1b22:	f2c4 030f 	movt	r3, #16399	; 0x400f
    1b26:	681b      	ldr	r3, [r3, #0]
    1b28:	60fb      	str	r3, [r7, #12]
    1b2a:	693b      	ldr	r3, [r7, #16]
    1b2c:	f443 6300 	orr.w	r3, r3, #2048	; 0x800
    1b30:	613b      	str	r3, [r7, #16]
    1b32:	693b      	ldr	r3, [r7, #16]
    1b34:	f423 0380 	bic.w	r3, r3, #4194304	; 0x400000
    1b38:	613b      	str	r3, [r7, #16]
    1b3a:	68fb      	ldr	r3, [r7, #12]
    1b3c:	f443 6300 	orr.w	r3, r3, #2048	; 0x800
    1b40:	60fb      	str	r3, [r7, #12]
    1b42:	f24e 0360 	movw	r3, #57440	; 0xe060
    1b46:	f2c4 030f 	movt	r3, #16399	; 0x400f
    1b4a:	693a      	ldr	r2, [r7, #16]
    1b4c:	601a      	str	r2, [r3, #0]
    1b4e:	f24e 0370 	movw	r3, #57456	; 0xe070
    1b52:	f2c4 030f 	movt	r3, #16399	; 0x400f
    1b56:	68fa      	ldr	r2, [r7, #12]
    1b58:	601a      	str	r2, [r3, #0]
    1b5a:	693b      	ldr	r3, [r7, #16]
    1b5c:	f003 0302 	and.w	r3, r3, #2
    1b60:	2b00      	cmp	r3, #0
    1b62:	d004      	beq.n	1b6e <SysCtlClockSet+0x9a>
    1b64:	687b      	ldr	r3, [r7, #4]
    1b66:	f003 0302 	and.w	r3, r3, #2
    1b6a:	2b00      	cmp	r3, #0
    1b6c:	d00a      	beq.n	1b84 <SysCtlClockSet+0xb0>
    1b6e:	693b      	ldr	r3, [r7, #16]
    1b70:	f003 0301 	and.w	r3, r3, #1
    1b74:	b2db      	uxtb	r3, r3
    1b76:	2b00      	cmp	r3, #0
    1b78:	d02f      	beq.n	1bda <SysCtlClockSet+0x106>
    1b7a:	687b      	ldr	r3, [r7, #4]
    1b7c:	f003 0301 	and.w	r3, r3, #1
    1b80:	2b00      	cmp	r3, #0
    1b82:	d12a      	bne.n	1bda <SysCtlClockSet+0x106>
    1b84:	687b      	ldr	r3, [r7, #4]
    1b86:	f063 0303 	orn	r3, r3, #3
    1b8a:	693a      	ldr	r2, [r7, #16]
    1b8c:	ea02 0303 	and.w	r3, r2, r3
    1b90:	613b      	str	r3, [r7, #16]
    1b92:	f24e 0360 	movw	r3, #57440	; 0xe060
    1b96:	f2c4 030f 	movt	r3, #16399	; 0x400f
    1b9a:	693a      	ldr	r2, [r7, #16]
    1b9c:	601a      	str	r2, [r3, #0]
    1b9e:	68fb      	ldr	r3, [r7, #12]
    1ba0:	2b00      	cmp	r3, #0
    1ba2:	da09      	bge.n	1bb8 <SysCtlClockSet+0xe4>
    1ba4:	68fb      	ldr	r3, [r7, #12]
    1ba6:	f003 0370 	and.w	r3, r3, #112	; 0x70
    1baa:	2b30      	cmp	r3, #48	; 0x30
    1bac:	d00c      	beq.n	1bc8 <SysCtlClockSet+0xf4>
    1bae:	68fb      	ldr	r3, [r7, #12]
    1bb0:	f003 0370 	and.w	r3, r3, #112	; 0x70
    1bb4:	2b70      	cmp	r3, #112	; 0x70
    1bb6:	d007      	beq.n	1bc8 <SysCtlClockSet+0xf4>
    1bb8:	68fb      	ldr	r3, [r7, #12]
    1bba:	2b00      	cmp	r3, #0
    1bbc:	db09      	blt.n	1bd2 <SysCtlClockSet+0xfe>
    1bbe:	693b      	ldr	r3, [r7, #16]
    1bc0:	f003 0330 	and.w	r3, r3, #48	; 0x30
    1bc4:	2b30      	cmp	r3, #48	; 0x30
    1bc6:	d104      	bne.n	1bd2 <SysCtlClockSet+0xfe>
    1bc8:	f44f 5080 	mov.w	r0, #4096	; 0x1000
    1bcc:	f7ff ff7e 	bl	1acc <SysCtlDelay>
    1bd0:	e003      	b.n	1bda <SysCtlClockSet+0x106>
    1bd2:	f44f 2000 	mov.w	r0, #524288	; 0x80000
    1bd6:	f7ff ff79 	bl	1acc <SysCtlDelay>
    1bda:	693b      	ldr	r3, [r7, #16]
    1bdc:	f423 535e 	bic.w	r3, r3, #14208	; 0x3780
    1be0:	f023 0370 	bic.w	r3, r3, #112	; 0x70
    1be4:	613b      	str	r3, [r7, #16]
    1be6:	687a      	ldr	r2, [r7, #4]
    1be8:	f243 73f0 	movw	r3, #14320	; 0x37f0
    1bec:	ea02 0303 	and.w	r3, r2, r3
    1bf0:	693a      	ldr	r2, [r7, #16]
    1bf2:	ea42 0303 	orr.w	r3, r2, r3
    1bf6:	613b      	str	r3, [r7, #16]
    1bf8:	68fa      	ldr	r2, [r7, #12]
    1bfa:	f64d 738f 	movw	r3, #57231	; 0xdf8f
    1bfe:	f6c7 73ff 	movt	r3, #32767	; 0x7fff
    1c02:	ea02 0303 	and.w	r3, r2, r3
    1c06:	60fb      	str	r3, [r7, #12]
    1c08:	687a      	ldr	r2, [r7, #4]
    1c0a:	f242 0330 	movw	r3, #8240	; 0x2030
    1c0e:	f2c8 0300 	movt	r3, #32768	; 0x8000
    1c12:	ea02 0303 	and.w	r3, r2, r3
    1c16:	68fa      	ldr	r2, [r7, #12]
    1c18:	ea42 0303 	orr.w	r3, r2, r3
    1c1c:	60fb      	str	r3, [r7, #12]
    1c1e:	687b      	ldr	r3, [r7, #4]
    1c20:	f003 0308 	and.w	r3, r3, #8
    1c24:	ea4f 03c3 	mov.w	r3, r3, lsl #3
    1c28:	68fa      	ldr	r2, [r7, #12]
    1c2a:	ea42 0303 	orr.w	r3, r2, r3
    1c2e:	60fb      	str	r3, [r7, #12]
    1c30:	f24e 0358 	movw	r3, #57432	; 0xe058
    1c34:	f2c4 030f 	movt	r3, #16399	; 0x400f
    1c38:	f04f 0240 	mov.w	r2, #64	; 0x40
    1c3c:	601a      	str	r2, [r3, #0]
    1c3e:	68fb      	ldr	r3, [r7, #12]
    1c40:	2b00      	cmp	r3, #0
    1c42:	da0c      	bge.n	1c5e <SysCtlClockSet+0x18a>
    1c44:	f24e 0370 	movw	r3, #57456	; 0xe070
    1c48:	f2c4 030f 	movt	r3, #16399	; 0x400f
    1c4c:	68fa      	ldr	r2, [r7, #12]
    1c4e:	601a      	str	r2, [r3, #0]
    1c50:	f24e 0360 	movw	r3, #57440	; 0xe060
    1c54:	f2c4 030f 	movt	r3, #16399	; 0x400f
    1c58:	693a      	ldr	r2, [r7, #16]
    1c5a:	601a      	str	r2, [r3, #0]
    1c5c:	e00b      	b.n	1c76 <SysCtlClockSet+0x1a2>
    1c5e:	f24e 0360 	movw	r3, #57440	; 0xe060
    1c62:	f2c4 030f 	movt	r3, #16399	; 0x400f
    1c66:	693a      	ldr	r2, [r7, #16]
    1c68:	601a      	str	r2, [r3, #0]
    1c6a:	f24e 0370 	movw	r3, #57456	; 0xe070
    1c6e:	f2c4 030f 	movt	r3, #16399	; 0x400f
    1c72:	68fa      	ldr	r2, [r7, #12]
    1c74:	601a      	str	r2, [r3, #0]
    1c76:	f04f 0010 	mov.w	r0, #16
    1c7a:	f7ff ff27 	bl	1acc <SysCtlDelay>
    1c7e:	693b      	ldr	r3, [r7, #16]
    1c80:	f023 63f8 	bic.w	r3, r3, #130023424	; 0x7c00000
    1c84:	f023 0303 	bic.w	r3, r3, #3
    1c88:	613b      	str	r3, [r7, #16]
    1c8a:	687a      	ldr	r2, [r7, #4]
    1c8c:	f04f 0303 	mov.w	r3, #3
    1c90:	f2c0 73c0 	movt	r3, #1984	; 0x7c0
    1c94:	ea02 0303 	and.w	r3, r2, r3
    1c98:	693a      	ldr	r2, [r7, #16]
    1c9a:	ea42 0303 	orr.w	r3, r2, r3
    1c9e:	613b      	str	r3, [r7, #16]
    1ca0:	68fb      	ldr	r3, [r7, #12]
    1ca2:	f023 53fc 	bic.w	r3, r3, #528482304	; 0x1f800000
    1ca6:	60fb      	str	r3, [r7, #12]
    1ca8:	687b      	ldr	r3, [r7, #4]
    1caa:	f003 53fc 	and.w	r3, r3, #528482304	; 0x1f800000
    1cae:	68fa      	ldr	r2, [r7, #12]
    1cb0:	ea42 0303 	orr.w	r3, r2, r3
    1cb4:	60fb      	str	r3, [r7, #12]
    1cb6:	687b      	ldr	r3, [r7, #4]
    1cb8:	f003 4380 	and.w	r3, r3, #1073741824	; 0x40000000
    1cbc:	2b00      	cmp	r3, #0
    1cbe:	d013      	beq.n	1ce8 <SysCtlClockSet+0x214>
    1cc0:	693b      	ldr	r3, [r7, #16]
    1cc2:	f443 0380 	orr.w	r3, r3, #4194304	; 0x400000
    1cc6:	613b      	str	r3, [r7, #16]
    1cc8:	68fb      	ldr	r3, [r7, #12]
    1cca:	f423 0380 	bic.w	r3, r3, #4194304	; 0x400000
    1cce:	60fb      	str	r3, [r7, #12]
    1cd0:	687a      	ldr	r2, [r7, #4]
    1cd2:	f04f 0300 	mov.w	r3, #0
    1cd6:	f2c4 0340 	movt	r3, #16448	; 0x4040
    1cda:	ea02 0303 	and.w	r3, r2, r3
    1cde:	68fa      	ldr	r2, [r7, #12]
    1ce0:	ea42 0303 	orr.w	r3, r2, r3
    1ce4:	60fb      	str	r3, [r7, #12]
    1ce6:	e003      	b.n	1cf0 <SysCtlClockSet+0x21c>
    1ce8:	68fb      	ldr	r3, [r7, #12]
    1cea:	f023 4380 	bic.w	r3, r3, #1073741824	; 0x40000000
    1cee:	60fb      	str	r3, [r7, #12]
    1cf0:	687b      	ldr	r3, [r7, #4]
    1cf2:	f403 6300 	and.w	r3, r3, #2048	; 0x800
    1cf6:	2b00      	cmp	r3, #0
    1cf8:	d11d      	bne.n	1d36 <SysCtlClockSet+0x262>
    1cfa:	f44f 4300 	mov.w	r3, #32768	; 0x8000
    1cfe:	617b      	str	r3, [r7, #20]
    1d00:	e00c      	b.n	1d1c <SysCtlClockSet+0x248>
    1d02:	f24e 0350 	movw	r3, #57424	; 0xe050
    1d06:	f2c4 030f 	movt	r3, #16399	; 0x400f
    1d0a:	681b      	ldr	r3, [r3, #0]
    1d0c:	f003 0340 	and.w	r3, r3, #64	; 0x40
    1d10:	2b00      	cmp	r3, #0
    1d12:	d107      	bne.n	1d24 <SysCtlClockSet+0x250>
    1d14:	697b      	ldr	r3, [r7, #20]
    1d16:	f103 33ff 	add.w	r3, r3, #4294967295
    1d1a:	617b      	str	r3, [r7, #20]
    1d1c:	697b      	ldr	r3, [r7, #20]
    1d1e:	2b00      	cmp	r3, #0
    1d20:	d1ef      	bne.n	1d02 <SysCtlClockSet+0x22e>
    1d22:	e000      	b.n	1d26 <SysCtlClockSet+0x252>
    1d24:	bf00      	nop
    1d26:	693b      	ldr	r3, [r7, #16]
    1d28:	f423 6300 	bic.w	r3, r3, #2048	; 0x800
    1d2c:	613b      	str	r3, [r7, #16]
    1d2e:	68fb      	ldr	r3, [r7, #12]
    1d30:	f423 6300 	bic.w	r3, r3, #2048	; 0x800
    1d34:	60fb      	str	r3, [r7, #12]
    1d36:	f24e 0360 	movw	r3, #57440	; 0xe060
    1d3a:	f2c4 030f 	movt	r3, #16399	; 0x400f
    1d3e:	693a      	ldr	r2, [r7, #16]
    1d40:	601a      	str	r2, [r3, #0]
    1d42:	f24e 0370 	movw	r3, #57456	; 0xe070
    1d46:	f2c4 030f 	movt	r3, #16399	; 0x400f
    1d4a:	68fa      	ldr	r2, [r7, #12]
    1d4c:	601a      	str	r2, [r3, #0]
    1d4e:	f04f 0010 	mov.w	r0, #16
    1d52:	f7ff febb 	bl	1acc <SysCtlDelay>
    1d56:	e000      	b.n	1d5a <SysCtlClockSet+0x286>
    1d58:	bf00      	nop
    1d5a:	f107 0718 	add.w	r7, r7, #24
    1d5e:	46bd      	mov	sp, r7
    1d60:	bd80      	pop	{r7, pc}
    1d62:	bf00      	nop

00001d64 <SysCtlClockGet>:
    1d64:	b480      	push	{r7}
    1d66:	b085      	sub	sp, #20
    1d68:	af00      	add	r7, sp, #0
    1d6a:	f24e 0360 	movw	r3, #57440	; 0xe060
    1d6e:	f2c4 030f 	movt	r3, #16399	; 0x400f
    1d72:	681b      	ldr	r3, [r3, #0]
    1d74:	60fb      	str	r3, [r7, #12]
    1d76:	f24e 0370 	movw	r3, #57456	; 0xe070
    1d7a:	f2c4 030f 	movt	r3, #16399	; 0x400f
    1d7e:	681b      	ldr	r3, [r3, #0]
    1d80:	607b      	str	r3, [r7, #4]
    1d82:	687b      	ldr	r3, [r7, #4]
    1d84:	2b00      	cmp	r3, #0
    1d86:	da03      	bge.n	1d90 <SysCtlClockGet+0x2c>
    1d88:	687b      	ldr	r3, [r7, #4]
    1d8a:	f003 0370 	and.w	r3, r3, #112	; 0x70
    1d8e:	e002      	b.n	1d96 <SysCtlClockGet+0x32>
    1d90:	68fb      	ldr	r3, [r7, #12]
    1d92:	f003 0330 	and.w	r3, r3, #48	; 0x30
    1d96:	2b20      	cmp	r3, #32
    1d98:	d07f      	beq.n	1e9a <SysCtlClockGet+0x136>
    1d9a:	2b20      	cmp	r3, #32
    1d9c:	d804      	bhi.n	1da8 <SysCtlClockGet+0x44>
    1d9e:	2b00      	cmp	r3, #0
    1da0:	d00c      	beq.n	1dbc <SysCtlClockGet+0x58>
    1da2:	2b10      	cmp	r3, #16
    1da4:	d017      	beq.n	1dd6 <SysCtlClockGet+0x72>
    1da6:	e0e6      	b.n	1f76 <SysCtlClockGet+0x212>
    1da8:	2b60      	cmp	r3, #96	; 0x60
    1daa:	f000 80dc 	beq.w	1f66 <SysCtlClockGet+0x202>
    1dae:	2b70      	cmp	r3, #112	; 0x70
    1db0:	f000 80dd 	beq.w	1f6e <SysCtlClockGet+0x20a>
    1db4:	2b30      	cmp	r3, #48	; 0x30
    1db6:	f000 80d2 	beq.w	1f5e <SysCtlClockGet+0x1fa>
    1dba:	e0dc      	b.n	1f76 <SysCtlClockGet+0x212>
    1dbc:	68fb      	ldr	r3, [r7, #12]
    1dbe:	f403 63f8 	and.w	r3, r3, #1984	; 0x7c0
    1dc2:	ea4f 1293 	mov.w	r2, r3, lsr #6
    1dc6:	f249 73d8 	movw	r3, #38872	; 0x97d8
    1dca:	f2c0 0300 	movt	r3, #0
    1dce:	f853 3022 	ldr.w	r3, [r3, r2, lsl #2]
    1dd2:	60bb      	str	r3, [r7, #8]
    1dd4:	e0d2      	b.n	1f7c <SysCtlClockGet+0x218>
    1dd6:	f44f 4360 	mov.w	r3, #57344	; 0xe000
    1dda:	f2c4 030f 	movt	r3, #16399	; 0x400f
    1dde:	681b      	ldr	r3, [r3, #0]
    1de0:	f003 43e0 	and.w	r3, r3, #1879048192	; 0x70000000
    1de4:	2b00      	cmp	r3, #0
    1de6:	d00d      	beq.n	1e04 <SysCtlClockGet+0xa0>
    1de8:	f44f 4360 	mov.w	r3, #57344	; 0xe000
    1dec:	f2c4 030f 	movt	r3, #16399	; 0x400f
    1df0:	681a      	ldr	r2, [r3, #0]
    1df2:	f04f 0300 	mov.w	r3, #0
    1df6:	f2c7 03ff 	movt	r3, #28927	; 0x70ff
    1dfa:	ea02 0303 	and.w	r3, r2, r3
    1dfe:	f1b3 5f80 	cmp.w	r3, #268435456	; 0x10000000
    1e02:	d105      	bne.n	1e10 <SysCtlClockGet+0xac>
    1e04:	f24e 13c0 	movw	r3, #57792	; 0xe1c0
    1e08:	f2c0 03e4 	movt	r3, #228	; 0xe4
    1e0c:	60bb      	str	r3, [r7, #8]
    1e0e:	e043      	b.n	1e98 <SysCtlClockGet+0x134>
    1e10:	f44f 4360 	mov.w	r3, #57344	; 0xe000
    1e14:	f2c4 030f 	movt	r3, #16399	; 0x400f
    1e18:	681a      	ldr	r2, [r3, #0]
    1e1a:	f04f 0300 	mov.w	r3, #0
    1e1e:	f2c7 03ff 	movt	r3, #28927	; 0x70ff
    1e22:	ea02 0303 	and.w	r3, r2, r3
    1e26:	f04f 0200 	mov.w	r2, #0
    1e2a:	f2c1 0201 	movt	r2, #4097	; 0x1001
    1e2e:	4293      	cmp	r3, r2
    1e30:	d10a      	bne.n	1e48 <SysCtlClockGet+0xe4>
    1e32:	f44f 4360 	mov.w	r3, #57344	; 0xe000
    1e36:	f2c4 030f 	movt	r3, #16399	; 0x400f
    1e3a:	681b      	ldr	r3, [r3, #0]
    1e3c:	ea4f 4303 	mov.w	r3, r3, lsl #16
    1e40:	ea4f 4313 	mov.w	r3, r3, lsr #16
    1e44:	2b02      	cmp	r3, #2
    1e46:	d01b      	beq.n	1e80 <SysCtlClockGet+0x11c>
    1e48:	f44f 4360 	mov.w	r3, #57344	; 0xe000
    1e4c:	f2c4 030f 	movt	r3, #16399	; 0x400f
    1e50:	681a      	ldr	r2, [r3, #0]
    1e52:	f04f 0300 	mov.w	r3, #0
    1e56:	f2c7 03ff 	movt	r3, #28927	; 0x70ff
    1e5a:	ea02 0303 	and.w	r3, r2, r3
    1e5e:	f04f 0200 	mov.w	r2, #0
    1e62:	f2c1 0203 	movt	r2, #4099	; 0x1003
    1e66:	4293      	cmp	r3, r2
    1e68:	d110      	bne.n	1e8c <SysCtlClockGet+0x128>
    1e6a:	f44f 4360 	mov.w	r3, #57344	; 0xe000
    1e6e:	f2c4 030f 	movt	r3, #16399	; 0x400f
    1e72:	681b      	ldr	r3, [r3, #0]
    1e74:	ea4f 4303 	mov.w	r3, r3, lsl #16
    1e78:	ea4f 4313 	mov.w	r3, r3, lsr #16
    1e7c:	2b00      	cmp	r3, #0
    1e7e:	d105      	bne.n	1e8c <SysCtlClockGet+0x128>
    1e80:	f44f 53d8 	mov.w	r3, #6912	; 0x1b00
    1e84:	f2c0 03b7 	movt	r3, #183	; 0xb7
    1e88:	60bb      	str	r3, [r7, #8]
    1e8a:	e005      	b.n	1e98 <SysCtlClockGet+0x134>
    1e8c:	f44f 5310 	mov.w	r3, #9216	; 0x2400
    1e90:	f2c0 03f4 	movt	r3, #244	; 0xf4
    1e94:	60bb      	str	r3, [r7, #8]
    1e96:	e071      	b.n	1f7c <SysCtlClockGet+0x218>
    1e98:	e070      	b.n	1f7c <SysCtlClockGet+0x218>
    1e9a:	f44f 4360 	mov.w	r3, #57344	; 0xe000
    1e9e:	f2c4 030f 	movt	r3, #16399	; 0x400f
    1ea2:	681b      	ldr	r3, [r3, #0]
    1ea4:	f003 43e0 	and.w	r3, r3, #1879048192	; 0x70000000
    1ea8:	2b00      	cmp	r3, #0
    1eaa:	d00d      	beq.n	1ec8 <SysCtlClockGet+0x164>
    1eac:	f44f 4360 	mov.w	r3, #57344	; 0xe000
    1eb0:	f2c4 030f 	movt	r3, #16399	; 0x400f
    1eb4:	681a      	ldr	r2, [r3, #0]
    1eb6:	f04f 0300 	mov.w	r3, #0
    1eba:	f2c7 03ff 	movt	r3, #28927	; 0x70ff
    1ebe:	ea02 0303 	and.w	r3, r2, r3
    1ec2:	f1b3 5f80 	cmp.w	r3, #268435456	; 0x10000000
    1ec6:	d105      	bne.n	1ed4 <SysCtlClockGet+0x170>
    1ec8:	f643 0370 	movw	r3, #14448	; 0x3870
    1ecc:	f2c0 0339 	movt	r3, #57	; 0x39
    1ed0:	60bb      	str	r3, [r7, #8]
    1ed2:	e043      	b.n	1f5c <SysCtlClockGet+0x1f8>
    1ed4:	f44f 4360 	mov.w	r3, #57344	; 0xe000
    1ed8:	f2c4 030f 	movt	r3, #16399	; 0x400f
    1edc:	681a      	ldr	r2, [r3, #0]
    1ede:	f04f 0300 	mov.w	r3, #0
    1ee2:	f2c7 03ff 	movt	r3, #28927	; 0x70ff
    1ee6:	ea02 0303 	and.w	r3, r2, r3
    1eea:	f04f 0200 	mov.w	r2, #0
    1eee:	f2c1 0201 	movt	r2, #4097	; 0x1001
    1ef2:	4293      	cmp	r3, r2
    1ef4:	d10a      	bne.n	1f0c <SysCtlClockGet+0x1a8>
    1ef6:	f44f 4360 	mov.w	r3, #57344	; 0xe000
    1efa:	f2c4 030f 	movt	r3, #16399	; 0x400f
    1efe:	681b      	ldr	r3, [r3, #0]
    1f00:	ea4f 4303 	mov.w	r3, r3, lsl #16
    1f04:	ea4f 4313 	mov.w	r3, r3, lsr #16
    1f08:	2b02      	cmp	r3, #2
    1f0a:	d01b      	beq.n	1f44 <SysCtlClockGet+0x1e0>
    1f0c:	f44f 4360 	mov.w	r3, #57344	; 0xe000
    1f10:	f2c4 030f 	movt	r3, #16399	; 0x400f
    1f14:	681a      	ldr	r2, [r3, #0]
    1f16:	f04f 0300 	mov.w	r3, #0
    1f1a:	f2c7 03ff 	movt	r3, #28927	; 0x70ff
    1f1e:	ea02 0303 	and.w	r3, r2, r3
    1f22:	f04f 0200 	mov.w	r2, #0
    1f26:	f2c1 0203 	movt	r2, #4099	; 0x1003
    1f2a:	4293      	cmp	r3, r2
    1f2c:	d110      	bne.n	1f50 <SysCtlClockGet+0x1ec>
    1f2e:	f44f 4360 	mov.w	r3, #57344	; 0xe000
    1f32:	f2c4 030f 	movt	r3, #16399	; 0x400f
    1f36:	681b      	ldr	r3, [r3, #0]
    1f38:	ea4f 4303 	mov.w	r3, r3, lsl #16
    1f3c:	ea4f 4313 	mov.w	r3, r3, lsr #16
    1f40:	2b00      	cmp	r3, #0
    1f42:	d105      	bne.n	1f50 <SysCtlClockGet+0x1ec>
    1f44:	f24c 63c0 	movw	r3, #50880	; 0xc6c0
    1f48:	f2c0 032d 	movt	r3, #45	; 0x2d
    1f4c:	60bb      	str	r3, [r7, #8]
    1f4e:	e005      	b.n	1f5c <SysCtlClockGet+0x1f8>
    1f50:	f44f 6310 	mov.w	r3, #2304	; 0x900
    1f54:	f2c0 033d 	movt	r3, #61	; 0x3d
    1f58:	60bb      	str	r3, [r7, #8]
    1f5a:	e00f      	b.n	1f7c <SysCtlClockGet+0x218>
    1f5c:	e00e      	b.n	1f7c <SysCtlClockGet+0x218>
    1f5e:	f247 5330 	movw	r3, #30000	; 0x7530
    1f62:	60bb      	str	r3, [r7, #8]
    1f64:	e00a      	b.n	1f7c <SysCtlClockGet+0x218>
    1f66:	f44f 0380 	mov.w	r3, #4194304	; 0x400000
    1f6a:	60bb      	str	r3, [r7, #8]
    1f6c:	e006      	b.n	1f7c <SysCtlClockGet+0x218>
    1f6e:	f44f 4300 	mov.w	r3, #32768	; 0x8000
    1f72:	60bb      	str	r3, [r7, #8]
    1f74:	e002      	b.n	1f7c <SysCtlClockGet+0x218>
    1f76:	f04f 0300 	mov.w	r3, #0
    1f7a:	e0ae      	b.n	20da <SysCtlClockGet+0x376>
    1f7c:	687b      	ldr	r3, [r7, #4]
    1f7e:	2b00      	cmp	r3, #0
    1f80:	da04      	bge.n	1f8c <SysCtlClockGet+0x228>
    1f82:	687b      	ldr	r3, [r7, #4]
    1f84:	f403 6300 	and.w	r3, r3, #2048	; 0x800
    1f88:	2b00      	cmp	r3, #0
    1f8a:	d007      	beq.n	1f9c <SysCtlClockGet+0x238>
    1f8c:	687b      	ldr	r3, [r7, #4]
    1f8e:	2b00      	cmp	r3, #0
    1f90:	db60      	blt.n	2054 <SysCtlClockGet+0x2f0>
    1f92:	68fb      	ldr	r3, [r7, #12]
    1f94:	f403 6300 	and.w	r3, r3, #2048	; 0x800
    1f98:	2b00      	cmp	r3, #0
    1f9a:	d15b      	bne.n	2054 <SysCtlClockGet+0x2f0>
    1f9c:	f24e 0364 	movw	r3, #57444	; 0xe064
    1fa0:	f2c4 030f 	movt	r3, #16399	; 0x400f
    1fa4:	681b      	ldr	r3, [r3, #0]
    1fa6:	603b      	str	r3, [r7, #0]
    1fa8:	f44f 4360 	mov.w	r3, #57344	; 0xe000
    1fac:	f2c4 030f 	movt	r3, #16399	; 0x400f
    1fb0:	681b      	ldr	r3, [r3, #0]
    1fb2:	f003 43e0 	and.w	r3, r3, #1879048192	; 0x70000000
    1fb6:	2b00      	cmp	r3, #0
    1fb8:	d00d      	beq.n	1fd6 <SysCtlClockGet+0x272>
    1fba:	f44f 4360 	mov.w	r3, #57344	; 0xe000
    1fbe:	f2c4 030f 	movt	r3, #16399	; 0x400f
    1fc2:	681a      	ldr	r2, [r3, #0]
    1fc4:	f04f 0300 	mov.w	r3, #0
    1fc8:	f2c7 03ff 	movt	r3, #28927	; 0x70ff
    1fcc:	ea02 0303 	and.w	r3, r2, r3
    1fd0:	f1b3 5f80 	cmp.w	r3, #268435456	; 0x10000000
    1fd4:	d114      	bne.n	2000 <SysCtlClockGet+0x29c>
    1fd6:	683a      	ldr	r2, [r7, #0]
    1fd8:	f643 73e0 	movw	r3, #16352	; 0x3fe0
    1fdc:	ea02 0303 	and.w	r3, r2, r3
    1fe0:	ea4f 1353 	mov.w	r3, r3, lsr #5
    1fe4:	f103 0302 	add.w	r3, r3, #2
    1fe8:	68ba      	ldr	r2, [r7, #8]
    1fea:	fb02 f203 	mul.w	r2, r2, r3
    1fee:	683b      	ldr	r3, [r7, #0]
    1ff0:	f003 031f 	and.w	r3, r3, #31
    1ff4:	f103 0302 	add.w	r3, r3, #2
    1ff8:	fbb2 f3f3 	udiv	r3, r2, r3
    1ffc:	60bb      	str	r3, [r7, #8]
    1ffe:	e013      	b.n	2028 <SysCtlClockGet+0x2c4>
    2000:	683a      	ldr	r2, [r7, #0]
    2002:	f643 73e0 	movw	r3, #16352	; 0x3fe0
    2006:	ea02 0303 	and.w	r3, r2, r3
    200a:	ea4f 1353 	mov.w	r3, r3, lsr #5
    200e:	68ba      	ldr	r2, [r7, #8]
    2010:	fb02 f203 	mul.w	r2, r2, r3
    2014:	683b      	ldr	r3, [r7, #0]
    2016:	f003 031f 	and.w	r3, r3, #31
    201a:	f103 0301 	add.w	r3, r3, #1
    201e:	ea4f 0343 	mov.w	r3, r3, lsl #1
    2022:	fbb2 f3f3 	udiv	r3, r2, r3
    2026:	60bb      	str	r3, [r7, #8]
    2028:	683b      	ldr	r3, [r7, #0]
    202a:	f403 4380 	and.w	r3, r3, #16384	; 0x4000
    202e:	2b00      	cmp	r3, #0
    2030:	d003      	beq.n	203a <SysCtlClockGet+0x2d6>
    2032:	68bb      	ldr	r3, [r7, #8]
    2034:	ea4f 0353 	mov.w	r3, r3, lsr #1
    2038:	60bb      	str	r3, [r7, #8]
    203a:	683b      	ldr	r3, [r7, #0]
    203c:	f403 4300 	and.w	r3, r3, #32768	; 0x8000
    2040:	2b00      	cmp	r3, #0
    2042:	d003      	beq.n	204c <SysCtlClockGet+0x2e8>
    2044:	68bb      	ldr	r3, [r7, #8]
    2046:	ea4f 0393 	mov.w	r3, r3, lsr #2
    204a:	60bb      	str	r3, [r7, #8]
    204c:	68fb      	ldr	r3, [r7, #12]
    204e:	f443 0380 	orr.w	r3, r3, #4194304	; 0x400000
    2052:	60fb      	str	r3, [r7, #12]
    2054:	68fb      	ldr	r3, [r7, #12]
    2056:	f403 0380 	and.w	r3, r3, #4194304	; 0x400000
    205a:	2b00      	cmp	r3, #0
    205c:	d03c      	beq.n	20d8 <SysCtlClockGet+0x374>
    205e:	687b      	ldr	r3, [r7, #4]
    2060:	2b00      	cmp	r3, #0
    2062:	da2e      	bge.n	20c2 <SysCtlClockGet+0x35e>
    2064:	687b      	ldr	r3, [r7, #4]
    2066:	f003 4380 	and.w	r3, r3, #1073741824	; 0x40000000
    206a:	2b00      	cmp	r3, #0
    206c:	d01d      	beq.n	20aa <SysCtlClockGet+0x346>
    206e:	687b      	ldr	r3, [r7, #4]
    2070:	2b00      	cmp	r3, #0
    2072:	da04      	bge.n	207e <SysCtlClockGet+0x31a>
    2074:	687b      	ldr	r3, [r7, #4]
    2076:	f403 6300 	and.w	r3, r3, #2048	; 0x800
    207a:	2b00      	cmp	r3, #0
    207c:	d007      	beq.n	208e <SysCtlClockGet+0x32a>
    207e:	687b      	ldr	r3, [r7, #4]
    2080:	2b00      	cmp	r3, #0
    2082:	db12      	blt.n	20aa <SysCtlClockGet+0x346>
    2084:	68fb      	ldr	r3, [r7, #12]
    2086:	f403 6300 	and.w	r3, r3, #2048	; 0x800
    208a:	2b00      	cmp	r3, #0
    208c:	d10d      	bne.n	20aa <SysCtlClockGet+0x346>
    208e:	68bb      	ldr	r3, [r7, #8]
    2090:	ea4f 0243 	mov.w	r2, r3, lsl #1
    2094:	687b      	ldr	r3, [r7, #4]
    2096:	f003 53fe 	and.w	r3, r3, #532676608	; 0x1fc00000
    209a:	ea4f 5393 	mov.w	r3, r3, lsr #22
    209e:	f103 0301 	add.w	r3, r3, #1
    20a2:	fbb2 f3f3 	udiv	r3, r2, r3
    20a6:	60bb      	str	r3, [r7, #8]
    20a8:	e016      	b.n	20d8 <SysCtlClockGet+0x374>
    20aa:	687b      	ldr	r3, [r7, #4]
    20ac:	f003 53fc 	and.w	r3, r3, #528482304	; 0x1f800000
    20b0:	ea4f 53d3 	mov.w	r3, r3, lsr #23
    20b4:	f103 0301 	add.w	r3, r3, #1
    20b8:	68ba      	ldr	r2, [r7, #8]
    20ba:	fbb2 f3f3 	udiv	r3, r2, r3
    20be:	60bb      	str	r3, [r7, #8]
    20c0:	e00a      	b.n	20d8 <SysCtlClockGet+0x374>
    20c2:	68fb      	ldr	r3, [r7, #12]
    20c4:	f003 63f0 	and.w	r3, r3, #125829120	; 0x7800000
    20c8:	ea4f 53d3 	mov.w	r3, r3, lsr #23
    20cc:	f103 0301 	add.w	r3, r3, #1
    20d0:	68ba      	ldr	r2, [r7, #8]
    20d2:	fbb2 f3f3 	udiv	r3, r2, r3
    20d6:	60bb      	str	r3, [r7, #8]
    20d8:	68bb      	ldr	r3, [r7, #8]
    20da:	4618      	mov	r0, r3
    20dc:	f107 0714 	add.w	r7, r7, #20
    20e0:	46bd      	mov	sp, r7
    20e2:	bc80      	pop	{r7}
    20e4:	4770      	bx	lr
    20e6:	bf00      	nop

000020e8 <GPIO_init>:
    20e8:	b580      	push	{r7, lr}
    20ea:	af00      	add	r7, sp, #0
    20ec:	f04f 0020 	mov.w	r0, #32
    20f0:	f2c2 0000 	movt	r0, #8192	; 0x2000
    20f4:	f7ff fcbe 	bl	1a74 <SysCtlPeripheralEnable>
    20f8:	f44f 40a0 	mov.w	r0, #20480	; 0x5000
    20fc:	f2c4 0002 	movt	r0, #16386	; 0x4002
    2100:	f04f 0101 	mov.w	r1, #1
    2104:	f000 fa12 	bl	252c <GPIOPinTypeGPIOOutput>
    2108:	f44f 40a0 	mov.w	r0, #20480	; 0x5000
    210c:	f2c4 0002 	movt	r0, #16386	; 0x4002
    2110:	f04f 0104 	mov.w	r1, #4
    2114:	f000 fa0a 	bl	252c <GPIOPinTypeGPIOOutput>
    2118:	f44f 40a0 	mov.w	r0, #20480	; 0x5000
    211c:	f2c4 0002 	movt	r0, #16386	; 0x4002
    2120:	f04f 0108 	mov.w	r1, #8
    2124:	f000 fa02 	bl	252c <GPIOPinTypeGPIOOutput>
    2128:	f44f 40a0 	mov.w	r0, #20480	; 0x5000
    212c:	f2c4 0002 	movt	r0, #16386	; 0x4002
    2130:	f04f 0104 	mov.w	r1, #4
    2134:	f04f 0204 	mov.w	r2, #4
    2138:	f000 f9c8 	bl	24cc <GPIOPinWrite>
    213c:	f44f 40a0 	mov.w	r0, #20480	; 0x5000
    2140:	f2c4 0002 	movt	r0, #16386	; 0x4002
    2144:	f04f 0108 	mov.w	r1, #8
    2148:	f04f 0208 	mov.w	r2, #8
    214c:	f000 f9be 	bl	24cc <GPIOPinWrite>
    2150:	bd80      	pop	{r7, pc}
    2152:	bf00      	nop

00002154 <HW_Gpio_LED_Eth_Green_ON>:
    2154:	b580      	push	{r7, lr}
    2156:	af00      	add	r7, sp, #0
    2158:	f44f 40a0 	mov.w	r0, #20480	; 0x5000
    215c:	f2c4 0002 	movt	r0, #16386	; 0x4002
    2160:	f04f 0104 	mov.w	r1, #4
    2164:	f04f 0200 	mov.w	r2, #0
    2168:	f000 f9b0 	bl	24cc <GPIOPinWrite>
    216c:	f44f 40a0 	mov.w	r0, #20480	; 0x5000
    2170:	f2c4 0002 	movt	r0, #16386	; 0x4002
    2174:	f04f 0108 	mov.w	r1, #8
    2178:	f04f 0208 	mov.w	r2, #8
    217c:	f000 f9a6 	bl	24cc <GPIOPinWrite>
    2180:	bd80      	pop	{r7, pc}
    2182:	bf00      	nop

00002184 <HW_Gpio_LED_Eth_Green_OFF>:
    2184:	b580      	push	{r7, lr}
    2186:	af00      	add	r7, sp, #0
    2188:	f44f 40a0 	mov.w	r0, #20480	; 0x5000
    218c:	f2c4 0002 	movt	r0, #16386	; 0x4002
    2190:	f04f 0104 	mov.w	r1, #4
    2194:	f04f 0204 	mov.w	r2, #4
    2198:	f000 f998 	bl	24cc <GPIOPinWrite>
    219c:	f44f 40a0 	mov.w	r0, #20480	; 0x5000
    21a0:	f2c4 0002 	movt	r0, #16386	; 0x4002
    21a4:	f04f 0108 	mov.w	r1, #8
    21a8:	f04f 0208 	mov.w	r2, #8
    21ac:	f000 f98e 	bl	24cc <GPIOPinWrite>
    21b0:	bd80      	pop	{r7, pc}
    21b2:	bf00      	nop

000021b4 <HW_Gpio_Main_ON>:
    21b4:	b580      	push	{r7, lr}
    21b6:	af00      	add	r7, sp, #0
    21b8:	f44f 40a0 	mov.w	r0, #20480	; 0x5000
    21bc:	f2c4 0002 	movt	r0, #16386	; 0x4002
    21c0:	f04f 0101 	mov.w	r1, #1
    21c4:	f04f 0201 	mov.w	r2, #1
    21c8:	f000 f980 	bl	24cc <GPIOPinWrite>
    21cc:	bd80      	pop	{r7, pc}
    21ce:	bf00      	nop

000021d0 <HW_Gpio_Main_OFF>:
    21d0:	b580      	push	{r7, lr}
    21d2:	af00      	add	r7, sp, #0
    21d4:	f44f 40a0 	mov.w	r0, #20480	; 0x5000
    21d8:	f2c4 0002 	movt	r0, #16386	; 0x4002
    21dc:	f04f 0101 	mov.w	r1, #1
    21e0:	f04f 0200 	mov.w	r2, #0
    21e4:	f000 f972 	bl	24cc <GPIOPinWrite>
    21e8:	bd80      	pop	{r7, pc}
    21ea:	bf00      	nop

000021ec <GPIODirModeSet>:
    21ec:	b480      	push	{r7}
    21ee:	b085      	sub	sp, #20
    21f0:	af00      	add	r7, sp, #0
    21f2:	60f8      	str	r0, [r7, #12]
    21f4:	460b      	mov	r3, r1
    21f6:	607a      	str	r2, [r7, #4]
    21f8:	72fb      	strb	r3, [r7, #11]
    21fa:	68fb      	ldr	r3, [r7, #12]
    21fc:	f503 6380 	add.w	r3, r3, #1024	; 0x400
    2200:	461a      	mov	r2, r3
    2202:	687b      	ldr	r3, [r7, #4]
    2204:	f003 0301 	and.w	r3, r3, #1
    2208:	b2db      	uxtb	r3, r3
    220a:	2b00      	cmp	r3, #0
    220c:	d007      	beq.n	221e <GPIODirModeSet+0x32>
    220e:	68fb      	ldr	r3, [r7, #12]
    2210:	f503 6380 	add.w	r3, r3, #1024	; 0x400
    2214:	6819      	ldr	r1, [r3, #0]
    2216:	7afb      	ldrb	r3, [r7, #11]
    2218:	ea41 0303 	orr.w	r3, r1, r3
    221c:	e008      	b.n	2230 <GPIODirModeSet+0x44>
    221e:	68fb      	ldr	r3, [r7, #12]
    2220:	f503 6380 	add.w	r3, r3, #1024	; 0x400
    2224:	6819      	ldr	r1, [r3, #0]
    2226:	7afb      	ldrb	r3, [r7, #11]
    2228:	ea6f 0303 	mvn.w	r3, r3
    222c:	ea01 0303 	and.w	r3, r1, r3
    2230:	6013      	str	r3, [r2, #0]
    2232:	68fb      	ldr	r3, [r7, #12]
    2234:	f503 6384 	add.w	r3, r3, #1056	; 0x420
    2238:	461a      	mov	r2, r3
    223a:	687b      	ldr	r3, [r7, #4]
    223c:	f003 0302 	and.w	r3, r3, #2
    2240:	2b00      	cmp	r3, #0
    2242:	d007      	beq.n	2254 <GPIODirModeSet+0x68>
    2244:	68fb      	ldr	r3, [r7, #12]
    2246:	f503 6384 	add.w	r3, r3, #1056	; 0x420
    224a:	6819      	ldr	r1, [r3, #0]
    224c:	7afb      	ldrb	r3, [r7, #11]
    224e:	ea41 0303 	orr.w	r3, r1, r3
    2252:	e008      	b.n	2266 <GPIODirModeSet+0x7a>
    2254:	68fb      	ldr	r3, [r7, #12]
    2256:	f503 6384 	add.w	r3, r3, #1056	; 0x420
    225a:	6819      	ldr	r1, [r3, #0]
    225c:	7afb      	ldrb	r3, [r7, #11]
    225e:	ea6f 0303 	mvn.w	r3, r3
    2262:	ea01 0303 	and.w	r3, r1, r3
    2266:	6013      	str	r3, [r2, #0]
    2268:	f107 0714 	add.w	r7, r7, #20
    226c:	46bd      	mov	sp, r7
    226e:	bc80      	pop	{r7}
    2270:	4770      	bx	lr
    2272:	bf00      	nop

00002274 <GPIOPadConfigSet>:
    2274:	b480      	push	{r7}
    2276:	b085      	sub	sp, #20
    2278:	af00      	add	r7, sp, #0
    227a:	60f8      	str	r0, [r7, #12]
    227c:	607a      	str	r2, [r7, #4]
    227e:	603b      	str	r3, [r7, #0]
    2280:	460b      	mov	r3, r1
    2282:	72fb      	strb	r3, [r7, #11]
    2284:	68fb      	ldr	r3, [r7, #12]
    2286:	f503 63a0 	add.w	r3, r3, #1280	; 0x500
    228a:	461a      	mov	r2, r3
    228c:	687b      	ldr	r3, [r7, #4]
    228e:	f003 0301 	and.w	r3, r3, #1
    2292:	b2db      	uxtb	r3, r3
    2294:	2b00      	cmp	r3, #0
    2296:	d007      	beq.n	22a8 <GPIOPadConfigSet+0x34>
    2298:	68fb      	ldr	r3, [r7, #12]
    229a:	f503 63a0 	add.w	r3, r3, #1280	; 0x500
    229e:	6819      	ldr	r1, [r3, #0]
    22a0:	7afb      	ldrb	r3, [r7, #11]
    22a2:	ea41 0303 	orr.w	r3, r1, r3
    22a6:	e008      	b.n	22ba <GPIOPadConfigSet+0x46>
    22a8:	68fb      	ldr	r3, [r7, #12]
    22aa:	f503 63a0 	add.w	r3, r3, #1280	; 0x500
    22ae:	6819      	ldr	r1, [r3, #0]
    22b0:	7afb      	ldrb	r3, [r7, #11]
    22b2:	ea6f 0303 	mvn.w	r3, r3
    22b6:	ea01 0303 	and.w	r3, r1, r3
    22ba:	6013      	str	r3, [r2, #0]
    22bc:	68fb      	ldr	r3, [r7, #12]
    22be:	f503 63a0 	add.w	r3, r3, #1280	; 0x500
    22c2:	f103 0304 	add.w	r3, r3, #4
    22c6:	461a      	mov	r2, r3
    22c8:	687b      	ldr	r3, [r7, #4]
    22ca:	f003 0302 	and.w	r3, r3, #2
    22ce:	2b00      	cmp	r3, #0
    22d0:	d009      	beq.n	22e6 <GPIOPadConfigSet+0x72>
    22d2:	68fb      	ldr	r3, [r7, #12]
    22d4:	f503 63a0 	add.w	r3, r3, #1280	; 0x500
    22d8:	f103 0304 	add.w	r3, r3, #4
    22dc:	6819      	ldr	r1, [r3, #0]
    22de:	7afb      	ldrb	r3, [r7, #11]
    22e0:	ea41 0303 	orr.w	r3, r1, r3
    22e4:	e00a      	b.n	22fc <GPIOPadConfigSet+0x88>
    22e6:	68fb      	ldr	r3, [r7, #12]
    22e8:	f503 63a0 	add.w	r3, r3, #1280	; 0x500
    22ec:	f103 0304 	add.w	r3, r3, #4
    22f0:	6819      	ldr	r1, [r3, #0]
    22f2:	7afb      	ldrb	r3, [r7, #11]
    22f4:	ea6f 0303 	mvn.w	r3, r3
    22f8:	ea01 0303 	and.w	r3, r1, r3
    22fc:	6013      	str	r3, [r2, #0]
    22fe:	68fb      	ldr	r3, [r7, #12]
    2300:	f503 63a1 	add.w	r3, r3, #1288	; 0x508
    2304:	461a      	mov	r2, r3
    2306:	687b      	ldr	r3, [r7, #4]
    2308:	f003 0304 	and.w	r3, r3, #4
    230c:	2b00      	cmp	r3, #0
    230e:	d007      	beq.n	2320 <GPIOPadConfigSet+0xac>
    2310:	68fb      	ldr	r3, [r7, #12]
    2312:	f503 63a1 	add.w	r3, r3, #1288	; 0x508
    2316:	6819      	ldr	r1, [r3, #0]
    2318:	7afb      	ldrb	r3, [r7, #11]
    231a:	ea41 0303 	orr.w	r3, r1, r3
    231e:	e008      	b.n	2332 <GPIOPadConfigSet+0xbe>
    2320:	68fb      	ldr	r3, [r7, #12]
    2322:	f503 63a1 	add.w	r3, r3, #1288	; 0x508
    2326:	6819      	ldr	r1, [r3, #0]
    2328:	7afb      	ldrb	r3, [r7, #11]
    232a:	ea6f 0303 	mvn.w	r3, r3
    232e:	ea01 0303 	and.w	r3, r1, r3
    2332:	6013      	str	r3, [r2, #0]
    2334:	68fb      	ldr	r3, [r7, #12]
    2336:	f503 63a3 	add.w	r3, r3, #1304	; 0x518
    233a:	461a      	mov	r2, r3
    233c:	687b      	ldr	r3, [r7, #4]
    233e:	f003 0308 	and.w	r3, r3, #8
    2342:	2b00      	cmp	r3, #0
    2344:	d007      	beq.n	2356 <GPIOPadConfigSet+0xe2>
    2346:	68fb      	ldr	r3, [r7, #12]
    2348:	f503 63a3 	add.w	r3, r3, #1304	; 0x518
    234c:	6819      	ldr	r1, [r3, #0]
    234e:	7afb      	ldrb	r3, [r7, #11]
    2350:	ea41 0303 	orr.w	r3, r1, r3
    2354:	e008      	b.n	2368 <GPIOPadConfigSet+0xf4>
    2356:	68fb      	ldr	r3, [r7, #12]
    2358:	f503 63a3 	add.w	r3, r3, #1304	; 0x518
    235c:	6819      	ldr	r1, [r3, #0]
    235e:	7afb      	ldrb	r3, [r7, #11]
    2360:	ea6f 0303 	mvn.w	r3, r3
    2364:	ea01 0303 	and.w	r3, r1, r3
    2368:	6013      	str	r3, [r2, #0]
    236a:	68fb      	ldr	r3, [r7, #12]
    236c:	f503 63a0 	add.w	r3, r3, #1280	; 0x500
    2370:	f103 030c 	add.w	r3, r3, #12
    2374:	461a      	mov	r2, r3
    2376:	683b      	ldr	r3, [r7, #0]
    2378:	f003 0301 	and.w	r3, r3, #1
    237c:	b2db      	uxtb	r3, r3
    237e:	2b00      	cmp	r3, #0
    2380:	d009      	beq.n	2396 <GPIOPadConfigSet+0x122>
    2382:	68fb      	ldr	r3, [r7, #12]
    2384:	f503 63a0 	add.w	r3, r3, #1280	; 0x500
    2388:	f103 030c 	add.w	r3, r3, #12
    238c:	6819      	ldr	r1, [r3, #0]
    238e:	7afb      	ldrb	r3, [r7, #11]
    2390:	ea41 0303 	orr.w	r3, r1, r3
    2394:	e00a      	b.n	23ac <GPIOPadConfigSet+0x138>
    2396:	68fb      	ldr	r3, [r7, #12]
    2398:	f503 63a0 	add.w	r3, r3, #1280	; 0x500
    239c:	f103 030c 	add.w	r3, r3, #12
    23a0:	6819      	ldr	r1, [r3, #0]
    23a2:	7afb      	ldrb	r3, [r7, #11]
    23a4:	ea6f 0303 	mvn.w	r3, r3
    23a8:	ea01 0303 	and.w	r3, r1, r3
    23ac:	6013      	str	r3, [r2, #0]
    23ae:	68fb      	ldr	r3, [r7, #12]
    23b0:	f503 63a2 	add.w	r3, r3, #1296	; 0x510
    23b4:	461a      	mov	r2, r3
    23b6:	683b      	ldr	r3, [r7, #0]
    23b8:	f003 0302 	and.w	r3, r3, #2
    23bc:	2b00      	cmp	r3, #0
    23be:	d007      	beq.n	23d0 <GPIOPadConfigSet+0x15c>
    23c0:	68fb      	ldr	r3, [r7, #12]
    23c2:	f503 63a2 	add.w	r3, r3, #1296	; 0x510
    23c6:	6819      	ldr	r1, [r3, #0]
    23c8:	7afb      	ldrb	r3, [r7, #11]
    23ca:	ea41 0303 	orr.w	r3, r1, r3
    23ce:	e008      	b.n	23e2 <GPIOPadConfigSet+0x16e>
    23d0:	68fb      	ldr	r3, [r7, #12]
    23d2:	f503 63a2 	add.w	r3, r3, #1296	; 0x510
    23d6:	6819      	ldr	r1, [r3, #0]
    23d8:	7afb      	ldrb	r3, [r7, #11]
    23da:	ea6f 0303 	mvn.w	r3, r3
    23de:	ea01 0303 	and.w	r3, r1, r3
    23e2:	6013      	str	r3, [r2, #0]
    23e4:	68fb      	ldr	r3, [r7, #12]
    23e6:	f503 63a2 	add.w	r3, r3, #1296	; 0x510
    23ea:	f103 0304 	add.w	r3, r3, #4
    23ee:	461a      	mov	r2, r3
    23f0:	683b      	ldr	r3, [r7, #0]
    23f2:	f003 0304 	and.w	r3, r3, #4
    23f6:	2b00      	cmp	r3, #0
    23f8:	d009      	beq.n	240e <GPIOPadConfigSet+0x19a>
    23fa:	68fb      	ldr	r3, [r7, #12]
    23fc:	f503 63a2 	add.w	r3, r3, #1296	; 0x510
    2400:	f103 0304 	add.w	r3, r3, #4
    2404:	6819      	ldr	r1, [r3, #0]
    2406:	7afb      	ldrb	r3, [r7, #11]
    2408:	ea41 0303 	orr.w	r3, r1, r3
    240c:	e00a      	b.n	2424 <GPIOPadConfigSet+0x1b0>
    240e:	68fb      	ldr	r3, [r7, #12]
    2410:	f503 63a2 	add.w	r3, r3, #1296	; 0x510
    2414:	f103 0304 	add.w	r3, r3, #4
    2418:	6819      	ldr	r1, [r3, #0]
    241a:	7afb      	ldrb	r3, [r7, #11]
    241c:	ea6f 0303 	mvn.w	r3, r3
    2420:	ea01 0303 	and.w	r3, r1, r3
    2424:	6013      	str	r3, [r2, #0]
    2426:	68fb      	ldr	r3, [r7, #12]
    2428:	f503 63a2 	add.w	r3, r3, #1296	; 0x510
    242c:	f103 030c 	add.w	r3, r3, #12
    2430:	461a      	mov	r2, r3
    2432:	683b      	ldr	r3, [r7, #0]
    2434:	f003 0308 	and.w	r3, r3, #8
    2438:	2b00      	cmp	r3, #0
    243a:	d009      	beq.n	2450 <GPIOPadConfigSet+0x1dc>
    243c:	68fb      	ldr	r3, [r7, #12]
    243e:	f503 63a2 	add.w	r3, r3, #1296	; 0x510
    2442:	f103 030c 	add.w	r3, r3, #12
    2446:	6819      	ldr	r1, [r3, #0]
    2448:	7afb      	ldrb	r3, [r7, #11]
    244a:	ea41 0303 	orr.w	r3, r1, r3
    244e:	e00a      	b.n	2466 <GPIOPadConfigSet+0x1f2>
    2450:	68fb      	ldr	r3, [r7, #12]
    2452:	f503 63a2 	add.w	r3, r3, #1296	; 0x510
    2456:	f103 030c 	add.w	r3, r3, #12
    245a:	6819      	ldr	r1, [r3, #0]
    245c:	7afb      	ldrb	r3, [r7, #11]
    245e:	ea6f 0303 	mvn.w	r3, r3
    2462:	ea01 0303 	and.w	r3, r1, r3
    2466:	6013      	str	r3, [r2, #0]
    2468:	68fb      	ldr	r3, [r7, #12]
    246a:	f503 63a5 	add.w	r3, r3, #1320	; 0x528
    246e:	461a      	mov	r2, r3
    2470:	683b      	ldr	r3, [r7, #0]
    2472:	2b00      	cmp	r3, #0
    2474:	d107      	bne.n	2486 <GPIOPadConfigSet+0x212>
    2476:	68fb      	ldr	r3, [r7, #12]
    2478:	f503 63a5 	add.w	r3, r3, #1320	; 0x528
    247c:	6819      	ldr	r1, [r3, #0]
    247e:	7afb      	ldrb	r3, [r7, #11]
    2480:	ea41 0303 	orr.w	r3, r1, r3
    2484:	e008      	b.n	2498 <GPIOPadConfigSet+0x224>
    2486:	68fb      	ldr	r3, [r7, #12]
    2488:	f503 63a5 	add.w	r3, r3, #1320	; 0x528
    248c:	6819      	ldr	r1, [r3, #0]
    248e:	7afb      	ldrb	r3, [r7, #11]
    2490:	ea6f 0303 	mvn.w	r3, r3
    2494:	ea01 0303 	and.w	r3, r1, r3
    2498:	6013      	str	r3, [r2, #0]
    249a:	f107 0714 	add.w	r7, r7, #20
    249e:	46bd      	mov	sp, r7
    24a0:	bc80      	pop	{r7}
    24a2:	4770      	bx	lr

000024a4 <GPIOPinRead>:
    24a4:	b480      	push	{r7}
    24a6:	b083      	sub	sp, #12
    24a8:	af00      	add	r7, sp, #0
    24aa:	6078      	str	r0, [r7, #4]
    24ac:	460b      	mov	r3, r1
    24ae:	70fb      	strb	r3, [r7, #3]
    24b0:	78fb      	ldrb	r3, [r7, #3]
    24b2:	ea4f 0383 	mov.w	r3, r3, lsl #2
    24b6:	461a      	mov	r2, r3
    24b8:	687b      	ldr	r3, [r7, #4]
    24ba:	18d3      	adds	r3, r2, r3
    24bc:	681b      	ldr	r3, [r3, #0]
    24be:	4618      	mov	r0, r3
    24c0:	f107 070c 	add.w	r7, r7, #12
    24c4:	46bd      	mov	sp, r7
    24c6:	bc80      	pop	{r7}
    24c8:	4770      	bx	lr
    24ca:	bf00      	nop

000024cc <GPIOPinWrite>:
    24cc:	b480      	push	{r7}
    24ce:	b083      	sub	sp, #12
    24d0:	af00      	add	r7, sp, #0
    24d2:	6078      	str	r0, [r7, #4]
    24d4:	4613      	mov	r3, r2
    24d6:	460a      	mov	r2, r1
    24d8:	70fa      	strb	r2, [r7, #3]
    24da:	70bb      	strb	r3, [r7, #2]
    24dc:	78fb      	ldrb	r3, [r7, #3]
    24de:	ea4f 0383 	mov.w	r3, r3, lsl #2
    24e2:	461a      	mov	r2, r3
    24e4:	687b      	ldr	r3, [r7, #4]
    24e6:	18d3      	adds	r3, r2, r3
    24e8:	78ba      	ldrb	r2, [r7, #2]
    24ea:	601a      	str	r2, [r3, #0]
    24ec:	f107 070c 	add.w	r7, r7, #12
    24f0:	46bd      	mov	sp, r7
    24f2:	bc80      	pop	{r7}
    24f4:	4770      	bx	lr
    24f6:	bf00      	nop

000024f8 <GPIOPinTypeGPIOInput>:
    24f8:	b580      	push	{r7, lr}
    24fa:	b082      	sub	sp, #8
    24fc:	af00      	add	r7, sp, #0
    24fe:	6078      	str	r0, [r7, #4]
    2500:	460b      	mov	r3, r1
    2502:	70fb      	strb	r3, [r7, #3]
    2504:	78fb      	ldrb	r3, [r7, #3]
    2506:	6878      	ldr	r0, [r7, #4]
    2508:	4619      	mov	r1, r3
    250a:	f04f 0200 	mov.w	r2, #0
    250e:	f7ff fe6d 	bl	21ec <GPIODirModeSet>
    2512:	78fb      	ldrb	r3, [r7, #3]
    2514:	6878      	ldr	r0, [r7, #4]
    2516:	4619      	mov	r1, r3
    2518:	f04f 0201 	mov.w	r2, #1
    251c:	f04f 0308 	mov.w	r3, #8
    2520:	f7ff fea8 	bl	2274 <GPIOPadConfigSet>
    2524:	f107 0708 	add.w	r7, r7, #8
    2528:	46bd      	mov	sp, r7
    252a:	bd80      	pop	{r7, pc}

0000252c <GPIOPinTypeGPIOOutput>:
    252c:	b580      	push	{r7, lr}
    252e:	b082      	sub	sp, #8
    2530:	af00      	add	r7, sp, #0
    2532:	6078      	str	r0, [r7, #4]
    2534:	460b      	mov	r3, r1
    2536:	70fb      	strb	r3, [r7, #3]
    2538:	78fb      	ldrb	r3, [r7, #3]
    253a:	6878      	ldr	r0, [r7, #4]
    253c:	4619      	mov	r1, r3
    253e:	f04f 0201 	mov.w	r2, #1
    2542:	f7ff fe53 	bl	21ec <GPIODirModeSet>
    2546:	78fb      	ldrb	r3, [r7, #3]
    2548:	6878      	ldr	r0, [r7, #4]
    254a:	4619      	mov	r1, r3
    254c:	f04f 0201 	mov.w	r2, #1
    2550:	f04f 0308 	mov.w	r3, #8
    2554:	f7ff fe8e 	bl	2274 <GPIOPadConfigSet>
    2558:	f107 0708 	add.w	r7, r7, #8
    255c:	46bd      	mov	sp, r7
    255e:	bd80      	pop	{r7, pc}

00002560 <GPIOPinTypeSSI>:
    2560:	b580      	push	{r7, lr}
    2562:	b082      	sub	sp, #8
    2564:	af00      	add	r7, sp, #0
    2566:	6078      	str	r0, [r7, #4]
    2568:	460b      	mov	r3, r1
    256a:	70fb      	strb	r3, [r7, #3]
    256c:	78fb      	ldrb	r3, [r7, #3]
    256e:	6878      	ldr	r0, [r7, #4]
    2570:	4619      	mov	r1, r3
    2572:	f04f 0202 	mov.w	r2, #2
    2576:	f7ff fe39 	bl	21ec <GPIODirModeSet>
    257a:	78fb      	ldrb	r3, [r7, #3]
    257c:	6878      	ldr	r0, [r7, #4]
    257e:	4619      	mov	r1, r3
    2580:	f04f 0201 	mov.w	r2, #1
    2584:	f04f 0308 	mov.w	r3, #8
    2588:	f7ff fe74 	bl	2274 <GPIOPadConfigSet>
    258c:	f107 0708 	add.w	r7, r7, #8
    2590:	46bd      	mov	sp, r7
    2592:	bd80      	pop	{r7, pc}

00002594 <GPIOPinTypeUART>:
    2594:	b580      	push	{r7, lr}
    2596:	b082      	sub	sp, #8
    2598:	af00      	add	r7, sp, #0
    259a:	6078      	str	r0, [r7, #4]
    259c:	460b      	mov	r3, r1
    259e:	70fb      	strb	r3, [r7, #3]
    25a0:	78fb      	ldrb	r3, [r7, #3]
    25a2:	6878      	ldr	r0, [r7, #4]
    25a4:	4619      	mov	r1, r3
    25a6:	f04f 0202 	mov.w	r2, #2
    25aa:	f7ff fe1f 	bl	21ec <GPIODirModeSet>
    25ae:	78fb      	ldrb	r3, [r7, #3]
    25b0:	6878      	ldr	r0, [r7, #4]
    25b2:	4619      	mov	r1, r3
    25b4:	f04f 0201 	mov.w	r2, #1
    25b8:	f04f 0308 	mov.w	r3, #8
    25bc:	f7ff fe5a 	bl	2274 <GPIOPadConfigSet>
    25c0:	f107 0708 	add.w	r7, r7, #8
    25c4:	46bd      	mov	sp, r7
    25c6:	bd80      	pop	{r7, pc}

000025c8 <IntMasterEnable>:
    25c8:	b580      	push	{r7, lr}
    25ca:	af00      	add	r7, sp, #0
    25cc:	f000 fe2e 	bl	322c <CPUcpsie>
    25d0:	4603      	mov	r3, r0
    25d2:	b2db      	uxtb	r3, r3
    25d4:	4618      	mov	r0, r3
    25d6:	bd80      	pop	{r7, pc}

000025d8 <IntEnable>:
    25d8:	b480      	push	{r7}
    25da:	b083      	sub	sp, #12
    25dc:	af00      	add	r7, sp, #0
    25de:	6078      	str	r0, [r7, #4]
    25e0:	687b      	ldr	r3, [r7, #4]
    25e2:	2b04      	cmp	r3, #4
    25e4:	d10c      	bne.n	2600 <IntEnable+0x28>
    25e6:	f64e 5324 	movw	r3, #60708	; 0xed24
    25ea:	f2ce 0300 	movt	r3, #57344	; 0xe000
    25ee:	f64e 5224 	movw	r2, #60708	; 0xed24
    25f2:	f2ce 0200 	movt	r2, #57344	; 0xe000
    25f6:	6812      	ldr	r2, [r2, #0]
    25f8:	f442 3280 	orr.w	r2, r2, #65536	; 0x10000
    25fc:	601a      	str	r2, [r3, #0]
    25fe:	e051      	b.n	26a4 <IntEnable+0xcc>
    2600:	687b      	ldr	r3, [r7, #4]
    2602:	2b05      	cmp	r3, #5
    2604:	d10c      	bne.n	2620 <IntEnable+0x48>
    2606:	f64e 5324 	movw	r3, #60708	; 0xed24
    260a:	f2ce 0300 	movt	r3, #57344	; 0xe000
    260e:	f64e 5224 	movw	r2, #60708	; 0xed24
    2612:	f2ce 0200 	movt	r2, #57344	; 0xe000
    2616:	6812      	ldr	r2, [r2, #0]
    2618:	f442 3200 	orr.w	r2, r2, #131072	; 0x20000
    261c:	601a      	str	r2, [r3, #0]
    261e:	e041      	b.n	26a4 <IntEnable+0xcc>
    2620:	687b      	ldr	r3, [r7, #4]
    2622:	2b06      	cmp	r3, #6
    2624:	d10c      	bne.n	2640 <IntEnable+0x68>
    2626:	f64e 5324 	movw	r3, #60708	; 0xed24
    262a:	f2ce 0300 	movt	r3, #57344	; 0xe000
    262e:	f64e 5224 	movw	r2, #60708	; 0xed24
    2632:	f2ce 0200 	movt	r2, #57344	; 0xe000
    2636:	6812      	ldr	r2, [r2, #0]
    2638:	f442 2280 	orr.w	r2, r2, #262144	; 0x40000
    263c:	601a      	str	r2, [r3, #0]
    263e:	e031      	b.n	26a4 <IntEnable+0xcc>
    2640:	687b      	ldr	r3, [r7, #4]
    2642:	2b0f      	cmp	r3, #15
    2644:	d10c      	bne.n	2660 <IntEnable+0x88>
    2646:	f24e 0310 	movw	r3, #57360	; 0xe010
    264a:	f2ce 0300 	movt	r3, #57344	; 0xe000
    264e:	f24e 0210 	movw	r2, #57360	; 0xe010
    2652:	f2ce 0200 	movt	r2, #57344	; 0xe000
    2656:	6812      	ldr	r2, [r2, #0]
    2658:	f042 0202 	orr.w	r2, r2, #2
    265c:	601a      	str	r2, [r3, #0]
    265e:	e021      	b.n	26a4 <IntEnable+0xcc>
    2660:	687b      	ldr	r3, [r7, #4]
    2662:	2b0f      	cmp	r3, #15
    2664:	d90f      	bls.n	2686 <IntEnable+0xae>
    2666:	687b      	ldr	r3, [r7, #4]
    2668:	2b2f      	cmp	r3, #47	; 0x2f
    266a:	d80c      	bhi.n	2686 <IntEnable+0xae>
    266c:	f44f 4361 	mov.w	r3, #57600	; 0xe100
    2670:	f2ce 0300 	movt	r3, #57344	; 0xe000
    2674:	687a      	ldr	r2, [r7, #4]
    2676:	f1a2 0210 	sub.w	r2, r2, #16
    267a:	f04f 0101 	mov.w	r1, #1
    267e:	fa01 f202 	lsl.w	r2, r1, r2
    2682:	601a      	str	r2, [r3, #0]
    2684:	e00e      	b.n	26a4 <IntEnable+0xcc>
    2686:	687b      	ldr	r3, [r7, #4]
    2688:	2b2f      	cmp	r3, #47	; 0x2f
    268a:	d90b      	bls.n	26a4 <IntEnable+0xcc>
    268c:	f24e 1304 	movw	r3, #57604	; 0xe104
    2690:	f2ce 0300 	movt	r3, #57344	; 0xe000
    2694:	687a      	ldr	r2, [r7, #4]
    2696:	f1a2 0230 	sub.w	r2, r2, #48	; 0x30
    269a:	f04f 0101 	mov.w	r1, #1
    269e:	fa01 f202 	lsl.w	r2, r1, r2
    26a2:	601a      	str	r2, [r3, #0]
    26a4:	f107 070c 	add.w	r7, r7, #12
    26a8:	46bd      	mov	sp, r7
    26aa:	bc80      	pop	{r7}
    26ac:	4770      	bx	lr
    26ae:	bf00      	nop

000026b0 <IntDisable>:
    26b0:	b480      	push	{r7}
    26b2:	b083      	sub	sp, #12
    26b4:	af00      	add	r7, sp, #0
    26b6:	6078      	str	r0, [r7, #4]
    26b8:	687b      	ldr	r3, [r7, #4]
    26ba:	2b04      	cmp	r3, #4
    26bc:	d10c      	bne.n	26d8 <IntDisable+0x28>
    26be:	f64e 5324 	movw	r3, #60708	; 0xed24
    26c2:	f2ce 0300 	movt	r3, #57344	; 0xe000
    26c6:	f64e 5224 	movw	r2, #60708	; 0xed24
    26ca:	f2ce 0200 	movt	r2, #57344	; 0xe000
    26ce:	6812      	ldr	r2, [r2, #0]
    26d0:	f422 3280 	bic.w	r2, r2, #65536	; 0x10000
    26d4:	601a      	str	r2, [r3, #0]
    26d6:	e051      	b.n	277c <IntDisable+0xcc>
    26d8:	687b      	ldr	r3, [r7, #4]
    26da:	2b05      	cmp	r3, #5
    26dc:	d10c      	bne.n	26f8 <IntDisable+0x48>
    26de:	f64e 5324 	movw	r3, #60708	; 0xed24
    26e2:	f2ce 0300 	movt	r3, #57344	; 0xe000
    26e6:	f64e 5224 	movw	r2, #60708	; 0xed24
    26ea:	f2ce 0200 	movt	r2, #57344	; 0xe000
    26ee:	6812      	ldr	r2, [r2, #0]
    26f0:	f422 3200 	bic.w	r2, r2, #131072	; 0x20000
    26f4:	601a      	str	r2, [r3, #0]
    26f6:	e041      	b.n	277c <IntDisable+0xcc>
    26f8:	687b      	ldr	r3, [r7, #4]
    26fa:	2b06      	cmp	r3, #6
    26fc:	d10c      	bne.n	2718 <IntDisable+0x68>
    26fe:	f64e 5324 	movw	r3, #60708	; 0xed24
    2702:	f2ce 0300 	movt	r3, #57344	; 0xe000
    2706:	f64e 5224 	movw	r2, #60708	; 0xed24
    270a:	f2ce 0200 	movt	r2, #57344	; 0xe000
    270e:	6812      	ldr	r2, [r2, #0]
    2710:	f422 2280 	bic.w	r2, r2, #262144	; 0x40000
    2714:	601a      	str	r2, [r3, #0]
    2716:	e031      	b.n	277c <IntDisable+0xcc>
    2718:	687b      	ldr	r3, [r7, #4]
    271a:	2b0f      	cmp	r3, #15
    271c:	d10c      	bne.n	2738 <IntDisable+0x88>
    271e:	f24e 0310 	movw	r3, #57360	; 0xe010
    2722:	f2ce 0300 	movt	r3, #57344	; 0xe000
    2726:	f24e 0210 	movw	r2, #57360	; 0xe010
    272a:	f2ce 0200 	movt	r2, #57344	; 0xe000
    272e:	6812      	ldr	r2, [r2, #0]
    2730:	f022 0202 	bic.w	r2, r2, #2
    2734:	601a      	str	r2, [r3, #0]
    2736:	e021      	b.n	277c <IntDisable+0xcc>
    2738:	687b      	ldr	r3, [r7, #4]
    273a:	2b0f      	cmp	r3, #15
    273c:	d90f      	bls.n	275e <IntDisable+0xae>
    273e:	687b      	ldr	r3, [r7, #4]
    2740:	2b2f      	cmp	r3, #47	; 0x2f
    2742:	d80c      	bhi.n	275e <IntDisable+0xae>
    2744:	f24e 1380 	movw	r3, #57728	; 0xe180
    2748:	f2ce 0300 	movt	r3, #57344	; 0xe000
    274c:	687a      	ldr	r2, [r7, #4]
    274e:	f1a2 0210 	sub.w	r2, r2, #16
    2752:	f04f 0101 	mov.w	r1, #1
    2756:	fa01 f202 	lsl.w	r2, r1, r2
    275a:	601a      	str	r2, [r3, #0]
    275c:	e00e      	b.n	277c <IntDisable+0xcc>
    275e:	687b      	ldr	r3, [r7, #4]
    2760:	2b2f      	cmp	r3, #47	; 0x2f
    2762:	d90b      	bls.n	277c <IntDisable+0xcc>
    2764:	f24e 1384 	movw	r3, #57732	; 0xe184
    2768:	f2ce 0300 	movt	r3, #57344	; 0xe000
    276c:	687a      	ldr	r2, [r7, #4]
    276e:	f1a2 0230 	sub.w	r2, r2, #48	; 0x30
    2772:	f04f 0101 	mov.w	r1, #1
    2776:	fa01 f202 	lsl.w	r2, r1, r2
    277a:	601a      	str	r2, [r3, #0]
    277c:	f107 070c 	add.w	r7, r7, #12
    2780:	46bd      	mov	sp, r7
    2782:	bc80      	pop	{r7}
    2784:	4770      	bx	lr
    2786:	bf00      	nop

00002788 <RITWriteCommand>:
    2788:	b580      	push	{r7, lr}
    278a:	b082      	sub	sp, #8
    278c:	af00      	add	r7, sp, #0
    278e:	6078      	str	r0, [r7, #4]
    2790:	6039      	str	r1, [r7, #0]
    2792:	f240 53b8 	movw	r3, #1464	; 0x5b8
    2796:	f2c2 0300 	movt	r3, #8192	; 0x2000
    279a:	f003 4270 	and.w	r2, r3, #4026531840	; 0xf0000000
    279e:	f240 53b8 	movw	r3, #1464	; 0x5b8
    27a2:	f2c2 0300 	movt	r3, #8192	; 0x2000
    27a6:	f023 437f 	bic.w	r3, r3, #4278190080	; 0xff000000
    27aa:	f423 0370 	bic.w	r3, r3, #15728640	; 0xf00000
    27ae:	ea4f 1343 	mov.w	r3, r3, lsl #5
    27b2:	ea42 0303 	orr.w	r3, r2, r3
    27b6:	f043 7300 	orr.w	r3, r3, #33554432	; 0x2000000
    27ba:	681b      	ldr	r3, [r3, #0]
    27bc:	2b00      	cmp	r3, #0
    27be:	d05b      	beq.n	2878 <RITWriteCommand+0xf0>
    27c0:	f240 53b8 	movw	r3, #1464	; 0x5b8
    27c4:	f2c2 0300 	movt	r3, #8192	; 0x2000
    27c8:	f003 4270 	and.w	r2, r3, #4026531840	; 0xf0000000
    27cc:	f240 53b8 	movw	r3, #1464	; 0x5b8
    27d0:	f2c2 0300 	movt	r3, #8192	; 0x2000
    27d4:	f023 437f 	bic.w	r3, r3, #4278190080	; 0xff000000
    27d8:	f423 0370 	bic.w	r3, r3, #15728640	; 0xf00000
    27dc:	ea4f 1343 	mov.w	r3, r3, lsl #5
    27e0:	ea42 0303 	orr.w	r3, r2, r3
    27e4:	f043 7300 	orr.w	r3, r3, #33554432	; 0x2000000
    27e8:	f043 0304 	orr.w	r3, r3, #4
    27ec:	681b      	ldr	r3, [r3, #0]
    27ee:	2b00      	cmp	r3, #0
    27f0:	d03e      	beq.n	2870 <RITWriteCommand+0xe8>
    27f2:	bf00      	nop
    27f4:	f44f 4000 	mov.w	r0, #32768	; 0x8000
    27f8:	f2c4 0000 	movt	r0, #16384	; 0x4000
    27fc:	f000 fd00 	bl	3200 <SSIBusy>
    2800:	4603      	mov	r3, r0
    2802:	2b00      	cmp	r3, #0
    2804:	d1f6      	bne.n	27f4 <RITWriteCommand+0x6c>
    2806:	f44f 4080 	mov.w	r0, #16384	; 0x4000
    280a:	f2c4 0000 	movt	r0, #16384	; 0x4000
    280e:	f04f 0140 	mov.w	r1, #64	; 0x40
    2812:	f04f 0200 	mov.w	r2, #0
    2816:	f7ff fe59 	bl	24cc <GPIOPinWrite>
    281a:	f240 53b8 	movw	r3, #1464	; 0x5b8
    281e:	f2c2 0300 	movt	r3, #8192	; 0x2000
    2822:	f003 4270 	and.w	r2, r3, #4026531840	; 0xf0000000
    2826:	f240 53b8 	movw	r3, #1464	; 0x5b8
    282a:	f2c2 0300 	movt	r3, #8192	; 0x2000
    282e:	f023 437f 	bic.w	r3, r3, #4278190080	; 0xff000000
    2832:	f423 0370 	bic.w	r3, r3, #15728640	; 0xf00000
    2836:	ea4f 1343 	mov.w	r3, r3, lsl #5
    283a:	ea42 0303 	orr.w	r3, r2, r3
    283e:	f043 7300 	orr.w	r3, r3, #33554432	; 0x2000000
    2842:	f043 0304 	orr.w	r3, r3, #4
    2846:	f04f 0200 	mov.w	r2, #0
    284a:	601a      	str	r2, [r3, #0]
    284c:	e010      	b.n	2870 <RITWriteCommand+0xe8>
    284e:	687b      	ldr	r3, [r7, #4]
    2850:	781b      	ldrb	r3, [r3, #0]
    2852:	687a      	ldr	r2, [r7, #4]
    2854:	f102 0201 	add.w	r2, r2, #1
    2858:	607a      	str	r2, [r7, #4]
    285a:	f44f 4000 	mov.w	r0, #32768	; 0x8000
    285e:	f2c4 0000 	movt	r0, #16384	; 0x4000
    2862:	4619      	mov	r1, r3
    2864:	f000 fcb4 	bl	31d0 <SSIDataPut>
    2868:	683b      	ldr	r3, [r7, #0]
    286a:	f103 33ff 	add.w	r3, r3, #4294967295
    286e:	603b      	str	r3, [r7, #0]
    2870:	683b      	ldr	r3, [r7, #0]
    2872:	2b00      	cmp	r3, #0
    2874:	d1eb      	bne.n	284e <RITWriteCommand+0xc6>
    2876:	e000      	b.n	287a <RITWriteCommand+0xf2>
    2878:	bf00      	nop
    287a:	f107 0708 	add.w	r7, r7, #8
    287e:	46bd      	mov	sp, r7
    2880:	bd80      	pop	{r7, pc}
    2882:	bf00      	nop

00002884 <RITWriteData>:
    2884:	b580      	push	{r7, lr}
    2886:	b082      	sub	sp, #8
    2888:	af00      	add	r7, sp, #0
    288a:	6078      	str	r0, [r7, #4]
    288c:	6039      	str	r1, [r7, #0]
    288e:	f240 53b8 	movw	r3, #1464	; 0x5b8
    2892:	f2c2 0300 	movt	r3, #8192	; 0x2000
    2896:	f003 4270 	and.w	r2, r3, #4026531840	; 0xf0000000
    289a:	f240 53b8 	movw	r3, #1464	; 0x5b8
    289e:	f2c2 0300 	movt	r3, #8192	; 0x2000
    28a2:	f023 437f 	bic.w	r3, r3, #4278190080	; 0xff000000
    28a6:	f423 0370 	bic.w	r3, r3, #15728640	; 0xf00000
    28aa:	ea4f 1343 	mov.w	r3, r3, lsl #5
    28ae:	ea42 0303 	orr.w	r3, r2, r3
    28b2:	f043 7300 	orr.w	r3, r3, #33554432	; 0x2000000
    28b6:	681b      	ldr	r3, [r3, #0]
    28b8:	2b00      	cmp	r3, #0
    28ba:	d05b      	beq.n	2974 <RITWriteData+0xf0>
    28bc:	f240 53b8 	movw	r3, #1464	; 0x5b8
    28c0:	f2c2 0300 	movt	r3, #8192	; 0x2000
    28c4:	f003 4270 	and.w	r2, r3, #4026531840	; 0xf0000000
    28c8:	f240 53b8 	movw	r3, #1464	; 0x5b8
    28cc:	f2c2 0300 	movt	r3, #8192	; 0x2000
    28d0:	f023 437f 	bic.w	r3, r3, #4278190080	; 0xff000000
    28d4:	f423 0370 	bic.w	r3, r3, #15728640	; 0xf00000
    28d8:	ea4f 1343 	mov.w	r3, r3, lsl #5
    28dc:	ea42 0303 	orr.w	r3, r2, r3
    28e0:	f043 7300 	orr.w	r3, r3, #33554432	; 0x2000000
    28e4:	f043 0304 	orr.w	r3, r3, #4
    28e8:	681b      	ldr	r3, [r3, #0]
    28ea:	2b00      	cmp	r3, #0
    28ec:	d13e      	bne.n	296c <RITWriteData+0xe8>
    28ee:	bf00      	nop
    28f0:	f44f 4000 	mov.w	r0, #32768	; 0x8000
    28f4:	f2c4 0000 	movt	r0, #16384	; 0x4000
    28f8:	f000 fc82 	bl	3200 <SSIBusy>
    28fc:	4603      	mov	r3, r0
    28fe:	2b00      	cmp	r3, #0
    2900:	d1f6      	bne.n	28f0 <RITWriteData+0x6c>
    2902:	f44f 4080 	mov.w	r0, #16384	; 0x4000
    2906:	f2c4 0000 	movt	r0, #16384	; 0x4000
    290a:	f04f 0140 	mov.w	r1, #64	; 0x40
    290e:	f04f 0240 	mov.w	r2, #64	; 0x40
    2912:	f7ff fddb 	bl	24cc <GPIOPinWrite>
    2916:	f240 53b8 	movw	r3, #1464	; 0x5b8
    291a:	f2c2 0300 	movt	r3, #8192	; 0x2000
    291e:	f003 4270 	and.w	r2, r3, #4026531840	; 0xf0000000
    2922:	f240 53b8 	movw	r3, #1464	; 0x5b8
    2926:	f2c2 0300 	movt	r3, #8192	; 0x2000
    292a:	f023 437f 	bic.w	r3, r3, #4278190080	; 0xff000000
    292e:	f423 0370 	bic.w	r3, r3, #15728640	; 0xf00000
    2932:	ea4f 1343 	mov.w	r3, r3, lsl #5
    2936:	ea42 0303 	orr.w	r3, r2, r3
    293a:	f043 7300 	orr.w	r3, r3, #33554432	; 0x2000000
    293e:	f043 0304 	orr.w	r3, r3, #4
    2942:	f04f 0201 	mov.w	r2, #1
    2946:	601a      	str	r2, [r3, #0]
    2948:	e010      	b.n	296c <RITWriteData+0xe8>
    294a:	687b      	ldr	r3, [r7, #4]
    294c:	781b      	ldrb	r3, [r3, #0]
    294e:	687a      	ldr	r2, [r7, #4]
    2950:	f102 0201 	add.w	r2, r2, #1
    2954:	607a      	str	r2, [r7, #4]
    2956:	f44f 4000 	mov.w	r0, #32768	; 0x8000
    295a:	f2c4 0000 	movt	r0, #16384	; 0x4000
    295e:	4619      	mov	r1, r3
    2960:	f000 fc36 	bl	31d0 <SSIDataPut>
    2964:	683b      	ldr	r3, [r7, #0]
    2966:	f103 33ff 	add.w	r3, r3, #4294967295
    296a:	603b      	str	r3, [r7, #0]
    296c:	683b      	ldr	r3, [r7, #0]
    296e:	2b00      	cmp	r3, #0
    2970:	d1eb      	bne.n	294a <RITWriteData+0xc6>
    2972:	e000      	b.n	2976 <RITWriteData+0xf2>
    2974:	bf00      	nop
    2976:	f107 0708 	add.w	r7, r7, #8
    297a:	46bd      	mov	sp, r7
    297c:	bd80      	pop	{r7, pc}
    297e:	bf00      	nop

00002980 <RIT128x96x4Clear>:
    2980:	b580      	push	{r7, lr}
    2982:	b082      	sub	sp, #8
    2984:	af00      	add	r7, sp, #0
    2986:	f240 53bc 	movw	r3, #1468	; 0x5bc
    298a:	f2c2 0300 	movt	r3, #8192	; 0x2000
    298e:	f04f 0200 	mov.w	r2, #0
    2992:	601a      	str	r2, [r3, #0]
    2994:	f240 53bc 	movw	r3, #1468	; 0x5bc
    2998:	f2c2 0300 	movt	r3, #8192	; 0x2000
    299c:	f103 0304 	add.w	r3, r3, #4
    29a0:	f04f 0200 	mov.w	r2, #0
    29a4:	601a      	str	r2, [r3, #0]
    29a6:	f649 2070 	movw	r0, #39536	; 0x9a70
    29aa:	f2c0 0000 	movt	r0, #0
    29ae:	f04f 0103 	mov.w	r1, #3
    29b2:	f7ff fee9 	bl	2788 <RITWriteCommand>
    29b6:	f649 2074 	movw	r0, #39540	; 0x9a74
    29ba:	f2c0 0000 	movt	r0, #0
    29be:	f04f 0103 	mov.w	r1, #3
    29c2:	f7ff fee1 	bl	2788 <RITWriteCommand>
    29c6:	f649 0038 	movw	r0, #38968	; 0x9838
    29ca:	f2c0 0000 	movt	r0, #0
    29ce:	f04f 0102 	mov.w	r1, #2
    29d2:	f7ff fed9 	bl	2788 <RITWriteCommand>
    29d6:	f04f 0300 	mov.w	r3, #0
    29da:	607b      	str	r3, [r7, #4]
    29dc:	e016      	b.n	2a0c <RIT128x96x4Clear+0x8c>
    29de:	f04f 0300 	mov.w	r3, #0
    29e2:	603b      	str	r3, [r7, #0]
    29e4:	e00b      	b.n	29fe <RIT128x96x4Clear+0x7e>
    29e6:	f240 50bc 	movw	r0, #1468	; 0x5bc
    29ea:	f2c2 0000 	movt	r0, #8192	; 0x2000
    29ee:	f04f 0108 	mov.w	r1, #8
    29f2:	f7ff ff47 	bl	2884 <RITWriteData>
    29f6:	683b      	ldr	r3, [r7, #0]
    29f8:	f103 0310 	add.w	r3, r3, #16
    29fc:	603b      	str	r3, [r7, #0]
    29fe:	683b      	ldr	r3, [r7, #0]
    2a00:	2b7f      	cmp	r3, #127	; 0x7f
    2a02:	d9f0      	bls.n	29e6 <RIT128x96x4Clear+0x66>
    2a04:	687b      	ldr	r3, [r7, #4]
    2a06:	f103 0301 	add.w	r3, r3, #1
    2a0a:	607b      	str	r3, [r7, #4]
    2a0c:	687b      	ldr	r3, [r7, #4]
    2a0e:	2b5f      	cmp	r3, #95	; 0x5f
    2a10:	d9e5      	bls.n	29de <RIT128x96x4Clear+0x5e>
    2a12:	f107 0708 	add.w	r7, r7, #8
    2a16:	46bd      	mov	sp, r7
    2a18:	bd80      	pop	{r7, pc}
    2a1a:	bf00      	nop

00002a1c <RIT128x96x4StringDraw>:
    2a1c:	b580      	push	{r7, lr}
    2a1e:	b088      	sub	sp, #32
    2a20:	af00      	add	r7, sp, #0
    2a22:	60f8      	str	r0, [r7, #12]
    2a24:	60b9      	str	r1, [r7, #8]
    2a26:	607a      	str	r2, [r7, #4]
    2a28:	70fb      	strb	r3, [r7, #3]
    2a2a:	f240 53bc 	movw	r3, #1468	; 0x5bc
    2a2e:	f2c2 0300 	movt	r3, #8192	; 0x2000
    2a32:	f04f 0215 	mov.w	r2, #21
    2a36:	701a      	strb	r2, [r3, #0]
    2a38:	68bb      	ldr	r3, [r7, #8]
    2a3a:	ea4f 0353 	mov.w	r3, r3, lsr #1
    2a3e:	b2da      	uxtb	r2, r3
    2a40:	f240 53bc 	movw	r3, #1468	; 0x5bc
    2a44:	f2c2 0300 	movt	r3, #8192	; 0x2000
    2a48:	705a      	strb	r2, [r3, #1]
    2a4a:	f240 53bc 	movw	r3, #1468	; 0x5bc
    2a4e:	f2c2 0300 	movt	r3, #8192	; 0x2000
    2a52:	f04f 023f 	mov.w	r2, #63	; 0x3f
    2a56:	709a      	strb	r2, [r3, #2]
    2a58:	f240 50bc 	movw	r0, #1468	; 0x5bc
    2a5c:	f2c2 0000 	movt	r0, #8192	; 0x2000
    2a60:	f04f 0103 	mov.w	r1, #3
    2a64:	f7ff fe90 	bl	2788 <RITWriteCommand>
    2a68:	f240 53bc 	movw	r3, #1468	; 0x5bc
    2a6c:	f2c2 0300 	movt	r3, #8192	; 0x2000
    2a70:	f04f 0275 	mov.w	r2, #117	; 0x75
    2a74:	701a      	strb	r2, [r3, #0]
    2a76:	687b      	ldr	r3, [r7, #4]
    2a78:	b2da      	uxtb	r2, r3
    2a7a:	f240 53bc 	movw	r3, #1468	; 0x5bc
    2a7e:	f2c2 0300 	movt	r3, #8192	; 0x2000
    2a82:	705a      	strb	r2, [r3, #1]
    2a84:	687b      	ldr	r3, [r7, #4]
    2a86:	b2db      	uxtb	r3, r3
    2a88:	f103 0307 	add.w	r3, r3, #7
    2a8c:	b2da      	uxtb	r2, r3
    2a8e:	f240 53bc 	movw	r3, #1468	; 0x5bc
    2a92:	f2c2 0300 	movt	r3, #8192	; 0x2000
    2a96:	709a      	strb	r2, [r3, #2]
    2a98:	f240 50bc 	movw	r0, #1468	; 0x5bc
    2a9c:	f2c2 0000 	movt	r0, #8192	; 0x2000
    2aa0:	f04f 0103 	mov.w	r1, #3
    2aa4:	f7ff fe70 	bl	2788 <RITWriteCommand>
    2aa8:	f649 0034 	movw	r0, #38964	; 0x9834
    2aac:	f2c0 0000 	movt	r0, #0
    2ab0:	f04f 0102 	mov.w	r1, #2
    2ab4:	f7ff fe68 	bl	2788 <RITWriteCommand>
    2ab8:	e094      	b.n	2be4 <RIT128x96x4StringDraw+0x1c8>
    2aba:	68fb      	ldr	r3, [r7, #12]
    2abc:	781b      	ldrb	r3, [r3, #0]
    2abe:	f003 037f 	and.w	r3, r3, #127	; 0x7f
    2ac2:	75fb      	strb	r3, [r7, #23]
    2ac4:	68fb      	ldr	r3, [r7, #12]
    2ac6:	f103 0301 	add.w	r3, r3, #1
    2aca:	60fb      	str	r3, [r7, #12]
    2acc:	7dfb      	ldrb	r3, [r7, #23]
    2ace:	2b1f      	cmp	r3, #31
    2ad0:	d803      	bhi.n	2ada <RIT128x96x4StringDraw+0xbe>
    2ad2:	f04f 0300 	mov.w	r3, #0
    2ad6:	75fb      	strb	r3, [r7, #23]
    2ad8:	e003      	b.n	2ae2 <RIT128x96x4StringDraw+0xc6>
    2ada:	7dfb      	ldrb	r3, [r7, #23]
    2adc:	f1a3 0320 	sub.w	r3, r3, #32
    2ae0:	75fb      	strb	r3, [r7, #23]
    2ae2:	f04f 0300 	mov.w	r3, #0
    2ae6:	61fb      	str	r3, [r7, #28]
    2ae8:	e079      	b.n	2bde <RIT128x96x4StringDraw+0x1c2>
    2aea:	f04f 0300 	mov.w	r3, #0
    2aee:	61bb      	str	r3, [r7, #24]
    2af0:	e05f      	b.n	2bb2 <RIT128x96x4StringDraw+0x196>
    2af2:	f240 53bc 	movw	r3, #1468	; 0x5bc
    2af6:	f2c2 0300 	movt	r3, #8192	; 0x2000
    2afa:	69ba      	ldr	r2, [r7, #24]
    2afc:	189b      	adds	r3, r3, r2
    2afe:	f04f 0200 	mov.w	r2, #0
    2b02:	701a      	strb	r2, [r3, #0]
    2b04:	7df9      	ldrb	r1, [r7, #23]
    2b06:	f649 023c 	movw	r2, #38972	; 0x983c
    2b0a:	f2c0 0200 	movt	r2, #0
    2b0e:	460b      	mov	r3, r1
    2b10:	ea4f 0383 	mov.w	r3, r3, lsl #2
    2b14:	185b      	adds	r3, r3, r1
    2b16:	69f9      	ldr	r1, [r7, #28]
    2b18:	185b      	adds	r3, r3, r1
    2b1a:	18d3      	adds	r3, r2, r3
    2b1c:	781b      	ldrb	r3, [r3, #0]
    2b1e:	461a      	mov	r2, r3
    2b20:	69bb      	ldr	r3, [r7, #24]
    2b22:	fa42 f303 	asr.w	r3, r2, r3
    2b26:	f003 0301 	and.w	r3, r3, #1
    2b2a:	b2db      	uxtb	r3, r3
    2b2c:	2b00      	cmp	r3, #0
    2b2e:	d00a      	beq.n	2b46 <RIT128x96x4StringDraw+0x12a>
    2b30:	78fb      	ldrb	r3, [r7, #3]
    2b32:	ea4f 1303 	mov.w	r3, r3, lsl #4
    2b36:	b2da      	uxtb	r2, r3
    2b38:	f240 53bc 	movw	r3, #1468	; 0x5bc
    2b3c:	f2c2 0300 	movt	r3, #8192	; 0x2000
    2b40:	69b9      	ldr	r1, [r7, #24]
    2b42:	185b      	adds	r3, r3, r1
    2b44:	701a      	strb	r2, [r3, #0]
    2b46:	69fb      	ldr	r3, [r7, #28]
    2b48:	2b03      	cmp	r3, #3
    2b4a:	d82e      	bhi.n	2baa <RIT128x96x4StringDraw+0x18e>
    2b4c:	7df9      	ldrb	r1, [r7, #23]
    2b4e:	69fb      	ldr	r3, [r7, #28]
    2b50:	f103 0001 	add.w	r0, r3, #1
    2b54:	f649 023c 	movw	r2, #38972	; 0x983c
    2b58:	f2c0 0200 	movt	r2, #0
    2b5c:	460b      	mov	r3, r1
    2b5e:	ea4f 0383 	mov.w	r3, r3, lsl #2
    2b62:	185b      	adds	r3, r3, r1
    2b64:	181b      	adds	r3, r3, r0
    2b66:	18d3      	adds	r3, r2, r3
    2b68:	781b      	ldrb	r3, [r3, #0]
    2b6a:	461a      	mov	r2, r3
    2b6c:	69bb      	ldr	r3, [r7, #24]
    2b6e:	fa42 f303 	asr.w	r3, r2, r3
    2b72:	f003 0301 	and.w	r3, r3, #1
    2b76:	b2db      	uxtb	r3, r3
    2b78:	2b00      	cmp	r3, #0
    2b7a:	d016      	beq.n	2baa <RIT128x96x4StringDraw+0x18e>
    2b7c:	f240 53bc 	movw	r3, #1468	; 0x5bc
    2b80:	f2c2 0300 	movt	r3, #8192	; 0x2000
    2b84:	69ba      	ldr	r2, [r7, #24]
    2b86:	189b      	adds	r3, r3, r2
    2b88:	781b      	ldrb	r3, [r3, #0]
    2b8a:	b2da      	uxtb	r2, r3
    2b8c:	78fb      	ldrb	r3, [r7, #3]
    2b8e:	f003 030f 	and.w	r3, r3, #15
    2b92:	b2db      	uxtb	r3, r3
    2b94:	ea42 0303 	orr.w	r3, r2, r3
    2b98:	b2db      	uxtb	r3, r3
    2b9a:	b2da      	uxtb	r2, r3
    2b9c:	f240 53bc 	movw	r3, #1468	; 0x5bc
    2ba0:	f2c2 0300 	movt	r3, #8192	; 0x2000
    2ba4:	69b9      	ldr	r1, [r7, #24]
    2ba6:	185b      	adds	r3, r3, r1
    2ba8:	701a      	strb	r2, [r3, #0]
    2baa:	69bb      	ldr	r3, [r7, #24]
    2bac:	f103 0301 	add.w	r3, r3, #1
    2bb0:	61bb      	str	r3, [r7, #24]
    2bb2:	69bb      	ldr	r3, [r7, #24]
    2bb4:	2b07      	cmp	r3, #7
    2bb6:	d99c      	bls.n	2af2 <RIT128x96x4StringDraw+0xd6>
    2bb8:	f240 50bc 	movw	r0, #1468	; 0x5bc
    2bbc:	f2c2 0000 	movt	r0, #8192	; 0x2000
    2bc0:	f04f 0108 	mov.w	r1, #8
    2bc4:	f7ff fe5e 	bl	2884 <RITWriteData>
    2bc8:	68bb      	ldr	r3, [r7, #8]
    2bca:	f103 0302 	add.w	r3, r3, #2
    2bce:	60bb      	str	r3, [r7, #8]
    2bd0:	68bb      	ldr	r3, [r7, #8]
    2bd2:	2b80      	cmp	r3, #128	; 0x80
    2bd4:	d00c      	beq.n	2bf0 <RIT128x96x4StringDraw+0x1d4>
    2bd6:	69fb      	ldr	r3, [r7, #28]
    2bd8:	f103 0302 	add.w	r3, r3, #2
    2bdc:	61fb      	str	r3, [r7, #28]
    2bde:	69fb      	ldr	r3, [r7, #28]
    2be0:	2b05      	cmp	r3, #5
    2be2:	d982      	bls.n	2aea <RIT128x96x4StringDraw+0xce>
    2be4:	68fb      	ldr	r3, [r7, #12]
    2be6:	781b      	ldrb	r3, [r3, #0]
    2be8:	2b00      	cmp	r3, #0
    2bea:	f47f af66 	bne.w	2aba <RIT128x96x4StringDraw+0x9e>
    2bee:	e000      	b.n	2bf2 <RIT128x96x4StringDraw+0x1d6>
    2bf0:	bf00      	nop
    2bf2:	f107 0720 	add.w	r7, r7, #32
    2bf6:	46bd      	mov	sp, r7
    2bf8:	bd80      	pop	{r7, pc}
    2bfa:	bf00      	nop

00002bfc <RIT128x96x4Enable>:
    2bfc:	b580      	push	{r7, lr}
    2bfe:	b084      	sub	sp, #16
    2c00:	af02      	add	r7, sp, #8
    2c02:	6078      	str	r0, [r7, #4]
    2c04:	f44f 4000 	mov.w	r0, #32768	; 0x8000
    2c08:	f2c4 0000 	movt	r0, #16384	; 0x4000
    2c0c:	f000 facc 	bl	31a8 <SSIDisable>
    2c10:	f7ff f8a8 	bl	1d64 <SysCtlClockGet>
    2c14:	4603      	mov	r3, r0
    2c16:	687a      	ldr	r2, [r7, #4]
    2c18:	9200      	str	r2, [sp, #0]
    2c1a:	f04f 0208 	mov.w	r2, #8
    2c1e:	9201      	str	r2, [sp, #4]
    2c20:	f44f 4000 	mov.w	r0, #32768	; 0x8000
    2c24:	f2c4 0000 	movt	r0, #16384	; 0x4000
    2c28:	4619      	mov	r1, r3
    2c2a:	f04f 0203 	mov.w	r2, #3
    2c2e:	f04f 0300 	mov.w	r3, #0
    2c32:	f000 fa4b 	bl	30cc <SSIConfigSetExpClk>
    2c36:	f44f 4080 	mov.w	r0, #16384	; 0x4000
    2c3a:	f2c4 0000 	movt	r0, #16384	; 0x4000
    2c3e:	f04f 0108 	mov.w	r1, #8
    2c42:	f7ff fc8d 	bl	2560 <GPIOPinTypeSSI>
    2c46:	f44f 4080 	mov.w	r0, #16384	; 0x4000
    2c4a:	f2c4 0000 	movt	r0, #16384	; 0x4000
    2c4e:	f04f 0108 	mov.w	r1, #8
    2c52:	f04f 0204 	mov.w	r2, #4
    2c56:	f04f 030a 	mov.w	r3, #10
    2c5a:	f7ff fb0b 	bl	2274 <GPIOPadConfigSet>
    2c5e:	f44f 4000 	mov.w	r0, #32768	; 0x8000
    2c62:	f2c4 0000 	movt	r0, #16384	; 0x4000
    2c66:	f000 fa8b 	bl	3180 <SSIEnable>
    2c6a:	f240 53b8 	movw	r3, #1464	; 0x5b8
    2c6e:	f2c2 0300 	movt	r3, #8192	; 0x2000
    2c72:	f003 4270 	and.w	r2, r3, #4026531840	; 0xf0000000
    2c76:	f240 53b8 	movw	r3, #1464	; 0x5b8
    2c7a:	f2c2 0300 	movt	r3, #8192	; 0x2000
    2c7e:	f023 437f 	bic.w	r3, r3, #4278190080	; 0xff000000
    2c82:	f423 0370 	bic.w	r3, r3, #15728640	; 0xf00000
    2c86:	ea4f 1343 	mov.w	r3, r3, lsl #5
    2c8a:	ea42 0303 	orr.w	r3, r2, r3
    2c8e:	f043 7300 	orr.w	r3, r3, #33554432	; 0x2000000
    2c92:	f04f 0201 	mov.w	r2, #1
    2c96:	601a      	str	r2, [r3, #0]
    2c98:	f107 0708 	add.w	r7, r7, #8
    2c9c:	46bd      	mov	sp, r7
    2c9e:	bd80      	pop	{r7, pc}

00002ca0 <RIT128x96x4Init>:
    2ca0:	b580      	push	{r7, lr}
    2ca2:	b084      	sub	sp, #16
    2ca4:	af00      	add	r7, sp, #0
    2ca6:	6078      	str	r0, [r7, #4]
    2ca8:	f04f 0010 	mov.w	r0, #16
    2cac:	f2c1 0000 	movt	r0, #4096	; 0x1000
    2cb0:	f7fe fee0 	bl	1a74 <SysCtlPeripheralEnable>
    2cb4:	f04f 0001 	mov.w	r0, #1
    2cb8:	f2c2 0000 	movt	r0, #8192	; 0x2000
    2cbc:	f7fe feda 	bl	1a74 <SysCtlPeripheralEnable>
    2cc0:	f04f 0001 	mov.w	r0, #1
    2cc4:	f2c2 0000 	movt	r0, #8192	; 0x2000
    2cc8:	f7fe fed4 	bl	1a74 <SysCtlPeripheralEnable>
    2ccc:	f44f 4080 	mov.w	r0, #16384	; 0x4000
    2cd0:	f2c4 0000 	movt	r0, #16384	; 0x4000
    2cd4:	f04f 012c 	mov.w	r1, #44	; 0x2c
    2cd8:	f7ff fc42 	bl	2560 <GPIOPinTypeSSI>
    2cdc:	f44f 4080 	mov.w	r0, #16384	; 0x4000
    2ce0:	f2c4 0000 	movt	r0, #16384	; 0x4000
    2ce4:	f04f 012c 	mov.w	r1, #44	; 0x2c
    2ce8:	f04f 0204 	mov.w	r2, #4
    2cec:	f04f 030a 	mov.w	r3, #10
    2cf0:	f7ff fac0 	bl	2274 <GPIOPadConfigSet>
    2cf4:	f44f 4080 	mov.w	r0, #16384	; 0x4000
    2cf8:	f2c4 0000 	movt	r0, #16384	; 0x4000
    2cfc:	f04f 01c0 	mov.w	r1, #192	; 0xc0
    2d00:	f7ff fc14 	bl	252c <GPIOPinTypeGPIOOutput>
    2d04:	f44f 4080 	mov.w	r0, #16384	; 0x4000
    2d08:	f2c4 0000 	movt	r0, #16384	; 0x4000
    2d0c:	f04f 01c0 	mov.w	r1, #192	; 0xc0
    2d10:	f04f 0204 	mov.w	r2, #4
    2d14:	f04f 0308 	mov.w	r3, #8
    2d18:	f7ff faac 	bl	2274 <GPIOPadConfigSet>
    2d1c:	f44f 4080 	mov.w	r0, #16384	; 0x4000
    2d20:	f2c4 0000 	movt	r0, #16384	; 0x4000
    2d24:	f04f 01c0 	mov.w	r1, #192	; 0xc0
    2d28:	f04f 02c0 	mov.w	r2, #192	; 0xc0
    2d2c:	f7ff fbce 	bl	24cc <GPIOPinWrite>
    2d30:	f240 53b8 	movw	r3, #1464	; 0x5b8
    2d34:	f2c2 0300 	movt	r3, #8192	; 0x2000
    2d38:	f003 4270 	and.w	r2, r3, #4026531840	; 0xf0000000
    2d3c:	f240 53b8 	movw	r3, #1464	; 0x5b8
    2d40:	f2c2 0300 	movt	r3, #8192	; 0x2000
    2d44:	f023 437f 	bic.w	r3, r3, #4278190080	; 0xff000000
    2d48:	f423 0370 	bic.w	r3, r3, #15728640	; 0xf00000
    2d4c:	ea4f 1343 	mov.w	r3, r3, lsl #5
    2d50:	ea42 0303 	orr.w	r3, r2, r3
    2d54:	f043 7300 	orr.w	r3, r3, #33554432	; 0x2000000
    2d58:	f043 0304 	orr.w	r3, r3, #4
    2d5c:	f04f 0201 	mov.w	r2, #1
    2d60:	601a      	str	r2, [r3, #0]
    2d62:	6878      	ldr	r0, [r7, #4]
    2d64:	f7ff ff4a 	bl	2bfc <RIT128x96x4Enable>
    2d68:	f7ff fe0a 	bl	2980 <RIT128x96x4Clear>
    2d6c:	f04f 0300 	mov.w	r3, #0
    2d70:	60fb      	str	r3, [r7, #12]
    2d72:	e021      	b.n	2db8 <RIT128x96x4Init+0x118>
    2d74:	68fb      	ldr	r3, [r7, #12]
    2d76:	f103 0201 	add.w	r2, r3, #1
    2d7a:	f649 231c 	movw	r3, #39452	; 0x9a1c
    2d7e:	f2c0 0300 	movt	r3, #0
    2d82:	18d2      	adds	r2, r2, r3
    2d84:	f649 231c 	movw	r3, #39452	; 0x9a1c
    2d88:	f2c0 0300 	movt	r3, #0
    2d8c:	68f9      	ldr	r1, [r7, #12]
    2d8e:	185b      	adds	r3, r3, r1
    2d90:	781b      	ldrb	r3, [r3, #0]
    2d92:	f103 33ff 	add.w	r3, r3, #4294967295
    2d96:	4610      	mov	r0, r2
    2d98:	4619      	mov	r1, r3
    2d9a:	f7ff fcf5 	bl	2788 <RITWriteCommand>
    2d9e:	f649 231c 	movw	r3, #39452	; 0x9a1c
    2da2:	f2c0 0300 	movt	r3, #0
    2da6:	68fa      	ldr	r2, [r7, #12]
    2da8:	189b      	adds	r3, r3, r2
    2daa:	781b      	ldrb	r3, [r3, #0]
    2dac:	461a      	mov	r2, r3
    2dae:	68fb      	ldr	r3, [r7, #12]
    2db0:	18d3      	adds	r3, r2, r3
    2db2:	f103 0301 	add.w	r3, r3, #1
    2db6:	60fb      	str	r3, [r7, #12]
    2db8:	68fb      	ldr	r3, [r7, #12]
    2dba:	2b4e      	cmp	r3, #78	; 0x4e
    2dbc:	d9da      	bls.n	2d74 <RIT128x96x4Init+0xd4>
    2dbe:	f107 0710 	add.w	r7, r7, #16
    2dc2:	46bd      	mov	sp, r7
    2dc4:	bd80      	pop	{r7, pc}
    2dc6:	bf00      	nop

00002dc8 <KEYPAD_init>:
    2dc8:	b580      	push	{r7, lr}
    2dca:	af00      	add	r7, sp, #0
    2dcc:	f04f 0010 	mov.w	r0, #16
    2dd0:	f2c2 0000 	movt	r0, #8192	; 0x2000
    2dd4:	f7fe fe4e 	bl	1a74 <SysCtlPeripheralEnable>
    2dd8:	f44f 4080 	mov.w	r0, #16384	; 0x4000
    2ddc:	f2c4 0002 	movt	r0, #16386	; 0x4002
    2de0:	f04f 0101 	mov.w	r1, #1
    2de4:	f7ff fb88 	bl	24f8 <GPIOPinTypeGPIOInput>
    2de8:	f44f 4080 	mov.w	r0, #16384	; 0x4000
    2dec:	f2c4 0002 	movt	r0, #16386	; 0x4002
    2df0:	f04f 0101 	mov.w	r1, #1
    2df4:	f04f 0201 	mov.w	r2, #1
    2df8:	f04f 030a 	mov.w	r3, #10
    2dfc:	f7ff fa3a 	bl	2274 <GPIOPadConfigSet>
    2e00:	f44f 4080 	mov.w	r0, #16384	; 0x4000
    2e04:	f2c4 0002 	movt	r0, #16386	; 0x4002
    2e08:	f04f 0102 	mov.w	r1, #2
    2e0c:	f7ff fb74 	bl	24f8 <GPIOPinTypeGPIOInput>
    2e10:	f44f 4080 	mov.w	r0, #16384	; 0x4000
    2e14:	f2c4 0002 	movt	r0, #16386	; 0x4002
    2e18:	f04f 0102 	mov.w	r1, #2
    2e1c:	f04f 0201 	mov.w	r2, #1
    2e20:	f04f 030a 	mov.w	r3, #10
    2e24:	f7ff fa26 	bl	2274 <GPIOPadConfigSet>
    2e28:	f44f 4080 	mov.w	r0, #16384	; 0x4000
    2e2c:	f2c4 0002 	movt	r0, #16386	; 0x4002
    2e30:	f04f 0104 	mov.w	r1, #4
    2e34:	f7ff fb60 	bl	24f8 <GPIOPinTypeGPIOInput>
    2e38:	f44f 4080 	mov.w	r0, #16384	; 0x4000
    2e3c:	f2c4 0002 	movt	r0, #16386	; 0x4002
    2e40:	f04f 0104 	mov.w	r1, #4
    2e44:	f04f 0201 	mov.w	r2, #1
    2e48:	f04f 030a 	mov.w	r3, #10
    2e4c:	f7ff fa12 	bl	2274 <GPIOPadConfigSet>
    2e50:	f44f 4080 	mov.w	r0, #16384	; 0x4000
    2e54:	f2c4 0002 	movt	r0, #16386	; 0x4002
    2e58:	f04f 0108 	mov.w	r1, #8
    2e5c:	f7ff fb4c 	bl	24f8 <GPIOPinTypeGPIOInput>
    2e60:	f44f 4080 	mov.w	r0, #16384	; 0x4000
    2e64:	f2c4 0002 	movt	r0, #16386	; 0x4002
    2e68:	f04f 0108 	mov.w	r1, #8
    2e6c:	f04f 0201 	mov.w	r2, #1
    2e70:	f04f 030a 	mov.w	r3, #10
    2e74:	f7ff f9fe 	bl	2274 <GPIOPadConfigSet>
    2e78:	bd80      	pop	{r7, pc}
    2e7a:	bf00      	nop

00002e7c <Default_Reset_Handler>:
    2e7c:	b580      	push	{r7, lr}
    2e7e:	b082      	sub	sp, #8
    2e80:	af00      	add	r7, sp, #0
    2e82:	f649 4360 	movw	r3, #40032	; 0x9c60
    2e86:	f2c0 0300 	movt	r3, #0
    2e8a:	607b      	str	r3, [r7, #4]
    2e8c:	f240 0300 	movw	r3, #0
    2e90:	f2c2 0300 	movt	r3, #8192	; 0x2000
    2e94:	603b      	str	r3, [r7, #0]
    2e96:	e00b      	b.n	2eb0 <Default_Reset_Handler+0x34>
    2e98:	687b      	ldr	r3, [r7, #4]
    2e9a:	681a      	ldr	r2, [r3, #0]
    2e9c:	683b      	ldr	r3, [r7, #0]
    2e9e:	601a      	str	r2, [r3, #0]
    2ea0:	683b      	ldr	r3, [r7, #0]
    2ea2:	f103 0304 	add.w	r3, r3, #4
    2ea6:	603b      	str	r3, [r7, #0]
    2ea8:	687b      	ldr	r3, [r7, #4]
    2eaa:	f103 0304 	add.w	r3, r3, #4
    2eae:	607b      	str	r3, [r7, #4]
    2eb0:	683a      	ldr	r2, [r7, #0]
    2eb2:	f240 5394 	movw	r3, #1428	; 0x594
    2eb6:	f2c2 0300 	movt	r3, #8192	; 0x2000
    2eba:	429a      	cmp	r2, r3
    2ebc:	d3ec      	bcc.n	2e98 <Default_Reset_Handler+0x1c>
    2ebe:	4808      	ldr	r0, [pc, #32]	; (2ee0 <zero_loop+0x1a>)
    2ec0:	4908      	ldr	r1, [pc, #32]	; (2ee4 <zero_loop+0x1e>)
    2ec2:	f04f 0200 	mov.w	r2, #0

00002ec6 <zero_loop>:
    2ec6:	4288      	cmp	r0, r1
    2ec8:	bfb8      	it	lt
    2eca:	f840 2b04 	strlt.w	r2, [r0], #4
    2ece:	dbfa      	blt.n	2ec6 <zero_loop>
    2ed0:	f7fd f994 	bl	1fc <SystemInit>
    2ed4:	f7fe fda4 	bl	1a20 <main>
    2ed8:	f107 0708 	add.w	r7, r7, #8
    2edc:	46bd      	mov	sp, r7
    2ede:	bd80      	pop	{r7, pc}
    2ee0:	20000594 	.word	0x20000594
    2ee4:	2000072c 	.word	0x2000072c

00002ee8 <ADCSeq0_IRQHandler>:
    2ee8:	b480      	push	{r7}
    2eea:	af00      	add	r7, sp, #0
    2eec:	e7fe      	b.n	2eec <ADCSeq0_IRQHandler+0x4>
    2eee:	bf00      	nop

00002ef0 <_sbrk>:
    2ef0:	b480      	push	{r7}
    2ef2:	b085      	sub	sp, #20
    2ef4:	af00      	add	r7, sp, #0
    2ef6:	6078      	str	r0, [r7, #4]
    2ef8:	f240 53c4 	movw	r3, #1476	; 0x5c4
    2efc:	f2c2 0300 	movt	r3, #8192	; 0x2000
    2f00:	681b      	ldr	r3, [r3, #0]
    2f02:	2b00      	cmp	r3, #0
    2f04:	d108      	bne.n	2f18 <_sbrk+0x28>
    2f06:	f640 3230 	movw	r2, #2864	; 0xb30
    2f0a:	f2c2 0200 	movt	r2, #8192	; 0x2000
    2f0e:	f240 53c4 	movw	r3, #1476	; 0x5c4
    2f12:	f2c2 0300 	movt	r3, #8192	; 0x2000
    2f16:	601a      	str	r2, [r3, #0]
    2f18:	f240 53c4 	movw	r3, #1476	; 0x5c4
    2f1c:	f2c2 0300 	movt	r3, #8192	; 0x2000
    2f20:	681b      	ldr	r3, [r3, #0]
    2f22:	60fb      	str	r3, [r7, #12]
    2f24:	f240 53c4 	movw	r3, #1476	; 0x5c4
    2f28:	f2c2 0300 	movt	r3, #8192	; 0x2000
    2f2c:	681a      	ldr	r2, [r3, #0]
    2f2e:	687b      	ldr	r3, [r7, #4]
    2f30:	18d2      	adds	r2, r2, r3
    2f32:	f240 53c4 	movw	r3, #1476	; 0x5c4
    2f36:	f2c2 0300 	movt	r3, #8192	; 0x2000
    2f3a:	601a      	str	r2, [r3, #0]
    2f3c:	68fb      	ldr	r3, [r7, #12]
    2f3e:	4618      	mov	r0, r3
    2f40:	f107 0714 	add.w	r7, r7, #20
    2f44:	46bd      	mov	sp, r7
    2f46:	bc80      	pop	{r7}
    2f48:	4770      	bx	lr
    2f4a:	bf00      	nop

00002f4c <UART_init>:
    2f4c:	b580      	push	{r7, lr}
    2f4e:	af00      	add	r7, sp, #0
    2f50:	f44f 506e 	mov.w	r0, #15232	; 0x3b80
    2f54:	f2c0 7080 	movt	r0, #1920	; 0x780
    2f58:	f7fe fdbc 	bl	1ad4 <SysCtlClockSet>
    2f5c:	f04f 0001 	mov.w	r0, #1
    2f60:	f2c1 0000 	movt	r0, #4096	; 0x1000
    2f64:	f7fe fd86 	bl	1a74 <SysCtlPeripheralEnable>
    2f68:	f04f 0002 	mov.w	r0, #2
    2f6c:	f2c1 0000 	movt	r0, #4096	; 0x1000
    2f70:	f7fe fd80 	bl	1a74 <SysCtlPeripheralEnable>
    2f74:	f04f 0001 	mov.w	r0, #1
    2f78:	f2c2 0000 	movt	r0, #8192	; 0x2000
    2f7c:	f7fe fd7a 	bl	1a74 <SysCtlPeripheralEnable>
    2f80:	f44f 4080 	mov.w	r0, #16384	; 0x4000
    2f84:	f2c4 0000 	movt	r0, #16384	; 0x4000
    2f88:	f04f 0103 	mov.w	r1, #3
    2f8c:	f7ff fb02 	bl	2594 <GPIOPinTypeUART>
    2f90:	f04f 0008 	mov.w	r0, #8
    2f94:	f2c2 0000 	movt	r0, #8192	; 0x2000
    2f98:	f7fe fd6c 	bl	1a74 <SysCtlPeripheralEnable>
    2f9c:	f44f 40e0 	mov.w	r0, #28672	; 0x7000
    2fa0:	f2c4 0000 	movt	r0, #16384	; 0x4000
    2fa4:	f04f 010c 	mov.w	r1, #12
    2fa8:	f7ff faf4 	bl	2594 <GPIOPinTypeUART>
    2fac:	f44f 4040 	mov.w	r0, #49152	; 0xc000
    2fb0:	f2c4 0000 	movt	r0, #16384	; 0x4000
    2fb4:	f7fd fbf6 	bl	7a4 <UARTDisable>
    2fb8:	f7fe fed4 	bl	1d64 <SysCtlClockGet>
    2fbc:	4603      	mov	r3, r0
    2fbe:	f44f 4040 	mov.w	r0, #49152	; 0xc000
    2fc2:	f2c4 0000 	movt	r0, #16384	; 0x4000
    2fc6:	4619      	mov	r1, r3
    2fc8:	f44f 5216 	mov.w	r2, #9600	; 0x2580
    2fcc:	f04f 036e 	mov.w	r3, #110	; 0x6e
    2fd0:	f7fd fb74 	bl	6bc <UARTConfigSetExpClk>
    2fd4:	f44f 4040 	mov.w	r0, #49152	; 0xc000
    2fd8:	f2c4 0000 	movt	r0, #16384	; 0x4000
    2fdc:	f7fd fbc2 	bl	764 <UARTEnable>
    2fe0:	f44f 4050 	mov.w	r0, #53248	; 0xd000
    2fe4:	f2c4 0000 	movt	r0, #16384	; 0x4000
    2fe8:	f7fd fbdc 	bl	7a4 <UARTDisable>
    2fec:	f7fe feba 	bl	1d64 <SysCtlClockGet>
    2ff0:	4603      	mov	r3, r0
    2ff2:	f44f 4050 	mov.w	r0, #53248	; 0xd000
    2ff6:	f2c4 0000 	movt	r0, #16384	; 0x4000
    2ffa:	4619      	mov	r1, r3
    2ffc:	f44f 5216 	mov.w	r2, #9600	; 0x2580
    3000:	f04f 036e 	mov.w	r3, #110	; 0x6e
    3004:	f7fd fb5a 	bl	6bc <UARTConfigSetExpClk>
    3008:	f44f 4050 	mov.w	r0, #53248	; 0xd000
    300c:	f2c4 0000 	movt	r0, #16384	; 0x4000
    3010:	f7fd fba8 	bl	764 <UARTEnable>
    3014:	f649 2078 	movw	r0, #39544	; 0x9a78
    3018:	f2c0 0000 	movt	r0, #0
    301c:	f04f 010f 	mov.w	r1, #15
    3020:	f04f 0200 	mov.w	r2, #0
    3024:	f000 f80c 	bl	3040 <UARTSend>
    3028:	f649 2078 	movw	r0, #39544	; 0x9a78
    302c:	f2c0 0000 	movt	r0, #0
    3030:	f04f 010f 	mov.w	r1, #15
    3034:	f04f 0201 	mov.w	r2, #1
    3038:	f000 f802 	bl	3040 <UARTSend>
    303c:	bd80      	pop	{r7, pc}
    303e:	bf00      	nop

00003040 <UARTSend>:
    3040:	b580      	push	{r7, lr}
    3042:	b084      	sub	sp, #16
    3044:	af00      	add	r7, sp, #0
    3046:	60f8      	str	r0, [r7, #12]
    3048:	60b9      	str	r1, [r7, #8]
    304a:	607a      	str	r2, [r7, #4]
    304c:	687b      	ldr	r3, [r7, #4]
    304e:	2b00      	cmp	r3, #0
    3050:	d11a      	bne.n	3088 <UARTSend+0x48>
    3052:	e00c      	b.n	306e <UARTSend+0x2e>
    3054:	68fb      	ldr	r3, [r7, #12]
    3056:	781b      	ldrb	r3, [r3, #0]
    3058:	68fa      	ldr	r2, [r7, #12]
    305a:	f102 0201 	add.w	r2, r2, #1
    305e:	60fa      	str	r2, [r7, #12]
    3060:	f44f 4040 	mov.w	r0, #49152	; 0xc000
    3064:	f2c4 0000 	movt	r0, #16384	; 0x4000
    3068:	4619      	mov	r1, r3
    306a:	f7fd fbc5 	bl	7f8 <UARTCharPutNonBlocking>
    306e:	68bb      	ldr	r3, [r7, #8]
    3070:	2b00      	cmp	r3, #0
    3072:	bf0c      	ite	eq
    3074:	2300      	moveq	r3, #0
    3076:	2301      	movne	r3, #1
    3078:	b2db      	uxtb	r3, r3
    307a:	68ba      	ldr	r2, [r7, #8]
    307c:	f102 32ff 	add.w	r2, r2, #4294967295
    3080:	60ba      	str	r2, [r7, #8]
    3082:	2b00      	cmp	r3, #0
    3084:	d1e6      	bne.n	3054 <UARTSend+0x14>
    3086:	e01c      	b.n	30c2 <UARTSend+0x82>
    3088:	687b      	ldr	r3, [r7, #4]
    308a:	2b01      	cmp	r3, #1
    308c:	d119      	bne.n	30c2 <UARTSend+0x82>
    308e:	e00c      	b.n	30aa <UARTSend+0x6a>
    3090:	68fb      	ldr	r3, [r7, #12]
    3092:	781b      	ldrb	r3, [r3, #0]
    3094:	68fa      	ldr	r2, [r7, #12]
    3096:	f102 0201 	add.w	r2, r2, #1
    309a:	60fa      	str	r2, [r7, #12]
    309c:	f44f 4050 	mov.w	r0, #53248	; 0xd000
    30a0:	f2c4 0000 	movt	r0, #16384	; 0x4000
    30a4:	4619      	mov	r1, r3
    30a6:	f7fd fba7 	bl	7f8 <UARTCharPutNonBlocking>
    30aa:	68bb      	ldr	r3, [r7, #8]
    30ac:	2b00      	cmp	r3, #0
    30ae:	bf0c      	ite	eq
    30b0:	2300      	moveq	r3, #0
    30b2:	2301      	movne	r3, #1
    30b4:	b2db      	uxtb	r3, r3
    30b6:	68ba      	ldr	r2, [r7, #8]
    30b8:	f102 32ff 	add.w	r2, r2, #4294967295
    30bc:	60ba      	str	r2, [r7, #8]
    30be:	2b00      	cmp	r3, #0
    30c0:	d1e6      	bne.n	3090 <UARTSend+0x50>
    30c2:	f107 0710 	add.w	r7, r7, #16
    30c6:	46bd      	mov	sp, r7
    30c8:	bd80      	pop	{r7, pc}
    30ca:	bf00      	nop

000030cc <SSIConfigSetExpClk>:
    30cc:	b480      	push	{r7}
    30ce:	b08b      	sub	sp, #44	; 0x2c
    30d0:	af00      	add	r7, sp, #0
    30d2:	60f8      	str	r0, [r7, #12]
    30d4:	60b9      	str	r1, [r7, #8]
    30d6:	607a      	str	r2, [r7, #4]
    30d8:	603b      	str	r3, [r7, #0]
    30da:	683b      	ldr	r3, [r7, #0]
    30dc:	2b02      	cmp	r3, #2
    30de:	d102      	bne.n	30e6 <SSIConfigSetExpClk+0x1a>
    30e0:	f04f 0308 	mov.w	r3, #8
    30e4:	e001      	b.n	30ea <SSIConfigSetExpClk+0x1e>
    30e6:	f04f 0300 	mov.w	r3, #0
    30ea:	623b      	str	r3, [r7, #32]
    30ec:	683b      	ldr	r3, [r7, #0]
    30ee:	2b00      	cmp	r3, #0
    30f0:	d102      	bne.n	30f8 <SSIConfigSetExpClk+0x2c>
    30f2:	f04f 0300 	mov.w	r3, #0
    30f6:	e001      	b.n	30fc <SSIConfigSetExpClk+0x30>
    30f8:	f04f 0304 	mov.w	r3, #4
    30fc:	6a3a      	ldr	r2, [r7, #32]
    30fe:	ea42 0303 	orr.w	r3, r2, r3
    3102:	623b      	str	r3, [r7, #32]
    3104:	68fb      	ldr	r3, [r7, #12]
    3106:	f103 0304 	add.w	r3, r3, #4
    310a:	6a3a      	ldr	r2, [r7, #32]
    310c:	601a      	str	r2, [r3, #0]
    310e:	68ba      	ldr	r2, [r7, #8]
    3110:	6b3b      	ldr	r3, [r7, #48]	; 0x30
    3112:	fbb2 f3f3 	udiv	r3, r2, r3
    3116:	61fb      	str	r3, [r7, #28]
    3118:	f04f 0300 	mov.w	r3, #0
    311c:	627b      	str	r3, [r7, #36]	; 0x24
    311e:	6a7b      	ldr	r3, [r7, #36]	; 0x24
    3120:	f103 0302 	add.w	r3, r3, #2
    3124:	627b      	str	r3, [r7, #36]	; 0x24
    3126:	69fa      	ldr	r2, [r7, #28]
    3128:	6a7b      	ldr	r3, [r7, #36]	; 0x24
    312a:	fbb2 f3f3 	udiv	r3, r2, r3
    312e:	f103 33ff 	add.w	r3, r3, #4294967295
    3132:	61bb      	str	r3, [r7, #24]
    3134:	69bb      	ldr	r3, [r7, #24]
    3136:	2bff      	cmp	r3, #255	; 0xff
    3138:	d8f1      	bhi.n	311e <SSIConfigSetExpClk+0x52>
    313a:	68fb      	ldr	r3, [r7, #12]
    313c:	f103 0310 	add.w	r3, r3, #16
    3140:	6a7a      	ldr	r2, [r7, #36]	; 0x24
    3142:	601a      	str	r2, [r3, #0]
    3144:	687b      	ldr	r3, [r7, #4]
    3146:	ea4f 1383 	mov.w	r3, r3, lsl #6
    314a:	617b      	str	r3, [r7, #20]
    314c:	687b      	ldr	r3, [r7, #4]
    314e:	f003 0330 	and.w	r3, r3, #48	; 0x30
    3152:	607b      	str	r3, [r7, #4]
    3154:	69bb      	ldr	r3, [r7, #24]
    3156:	ea4f 2203 	mov.w	r2, r3, lsl #8
    315a:	697b      	ldr	r3, [r7, #20]
    315c:	431a      	orrs	r2, r3
    315e:	687b      	ldr	r3, [r7, #4]
    3160:	431a      	orrs	r2, r3
    3162:	6b7b      	ldr	r3, [r7, #52]	; 0x34
    3164:	f103 33ff 	add.w	r3, r3, #4294967295
    3168:	ea42 0303 	orr.w	r3, r2, r3
    316c:	623b      	str	r3, [r7, #32]
    316e:	68fb      	ldr	r3, [r7, #12]
    3170:	6a3a      	ldr	r2, [r7, #32]
    3172:	601a      	str	r2, [r3, #0]
    3174:	f107 072c 	add.w	r7, r7, #44	; 0x2c
    3178:	46bd      	mov	sp, r7
    317a:	bc80      	pop	{r7}
    317c:	4770      	bx	lr
    317e:	bf00      	nop

00003180 <SSIEnable>:
    3180:	b480      	push	{r7}
    3182:	b083      	sub	sp, #12
    3184:	af00      	add	r7, sp, #0
    3186:	6078      	str	r0, [r7, #4]
    3188:	687b      	ldr	r3, [r7, #4]
    318a:	f103 0304 	add.w	r3, r3, #4
    318e:	687a      	ldr	r2, [r7, #4]
    3190:	f102 0204 	add.w	r2, r2, #4
    3194:	6812      	ldr	r2, [r2, #0]
    3196:	f042 0202 	orr.w	r2, r2, #2
    319a:	601a      	str	r2, [r3, #0]
    319c:	f107 070c 	add.w	r7, r7, #12
    31a0:	46bd      	mov	sp, r7
    31a2:	bc80      	pop	{r7}
    31a4:	4770      	bx	lr
    31a6:	bf00      	nop

000031a8 <SSIDisable>:
    31a8:	b480      	push	{r7}
    31aa:	b083      	sub	sp, #12
    31ac:	af00      	add	r7, sp, #0
    31ae:	6078      	str	r0, [r7, #4]
    31b0:	687b      	ldr	r3, [r7, #4]
    31b2:	f103 0304 	add.w	r3, r3, #4
    31b6:	687a      	ldr	r2, [r7, #4]
    31b8:	f102 0204 	add.w	r2, r2, #4
    31bc:	6812      	ldr	r2, [r2, #0]
    31be:	f022 0202 	bic.w	r2, r2, #2
    31c2:	601a      	str	r2, [r3, #0]
    31c4:	f107 070c 	add.w	r7, r7, #12
    31c8:	46bd      	mov	sp, r7
    31ca:	bc80      	pop	{r7}
    31cc:	4770      	bx	lr
    31ce:	bf00      	nop

000031d0 <SSIDataPut>:
    31d0:	b480      	push	{r7}
    31d2:	b083      	sub	sp, #12
    31d4:	af00      	add	r7, sp, #0
    31d6:	6078      	str	r0, [r7, #4]
    31d8:	6039      	str	r1, [r7, #0]
    31da:	bf00      	nop
    31dc:	687b      	ldr	r3, [r7, #4]
    31de:	f103 030c 	add.w	r3, r3, #12
    31e2:	681b      	ldr	r3, [r3, #0]
    31e4:	f003 0302 	and.w	r3, r3, #2
    31e8:	2b00      	cmp	r3, #0
    31ea:	d0f7      	beq.n	31dc <SSIDataPut+0xc>
    31ec:	687b      	ldr	r3, [r7, #4]
    31ee:	f103 0308 	add.w	r3, r3, #8
    31f2:	683a      	ldr	r2, [r7, #0]
    31f4:	601a      	str	r2, [r3, #0]
    31f6:	f107 070c 	add.w	r7, r7, #12
    31fa:	46bd      	mov	sp, r7
    31fc:	bc80      	pop	{r7}
    31fe:	4770      	bx	lr

00003200 <SSIBusy>:
    3200:	b480      	push	{r7}
    3202:	b083      	sub	sp, #12
    3204:	af00      	add	r7, sp, #0
    3206:	6078      	str	r0, [r7, #4]
    3208:	687b      	ldr	r3, [r7, #4]
    320a:	f103 030c 	add.w	r3, r3, #12
    320e:	681b      	ldr	r3, [r3, #0]
    3210:	f003 0310 	and.w	r3, r3, #16
    3214:	2b00      	cmp	r3, #0
    3216:	bf0c      	ite	eq
    3218:	2300      	moveq	r3, #0
    321a:	2301      	movne	r3, #1
    321c:	b2db      	uxtb	r3, r3
    321e:	4618      	mov	r0, r3
    3220:	f107 070c 	add.w	r7, r7, #12
    3224:	46bd      	mov	sp, r7
    3226:	bc80      	pop	{r7}
    3228:	4770      	bx	lr
    322a:	bf00      	nop

0000322c <CPUcpsie>:
    322c:	f3ef 8410 	mrs	r4, PRIMASK
    3230:	b662      	cpsie	i
    3232:	4770      	bx	lr
    3234:	4623      	mov	r3, r4
    3236:	4618      	mov	r0, r3

00003238 <initConsole>:
    3238:	b580      	push	{r7, lr}
    323a:	b082      	sub	sp, #8
    323c:	af00      	add	r7, sp, #0
    323e:	f000 f8cf 	bl	33e0 <GENERIC_DISPLAY_init>
    3242:	f04f 0300 	mov.w	r3, #0
    3246:	607b      	str	r3, [r7, #4]
    3248:	e02c      	b.n	32a4 <initConsole+0x6c>
    324a:	f04f 0300 	mov.w	r3, #0
    324e:	603b      	str	r3, [r7, #0]
    3250:	e012      	b.n	3278 <initConsole+0x40>
    3252:	f240 6320 	movw	r3, #1568	; 0x620
    3256:	f2c2 0300 	movt	r3, #8192	; 0x2000
    325a:	687a      	ldr	r2, [r7, #4]
    325c:	f04f 0116 	mov.w	r1, #22
    3260:	fb01 f102 	mul.w	r1, r1, r2
    3264:	683a      	ldr	r2, [r7, #0]
    3266:	188a      	adds	r2, r1, r2
    3268:	189b      	adds	r3, r3, r2
    326a:	f04f 0220 	mov.w	r2, #32
    326e:	701a      	strb	r2, [r3, #0]
    3270:	683b      	ldr	r3, [r7, #0]
    3272:	f103 0301 	add.w	r3, r3, #1
    3276:	603b      	str	r3, [r7, #0]
    3278:	683b      	ldr	r3, [r7, #0]
    327a:	2b14      	cmp	r3, #20
    327c:	dde9      	ble.n	3252 <initConsole+0x1a>
    327e:	f240 6320 	movw	r3, #1568	; 0x620
    3282:	f2c2 0300 	movt	r3, #8192	; 0x2000
    3286:	687a      	ldr	r2, [r7, #4]
    3288:	f04f 0116 	mov.w	r1, #22
    328c:	fb01 f202 	mul.w	r2, r1, r2
    3290:	189b      	adds	r3, r3, r2
    3292:	f103 0315 	add.w	r3, r3, #21
    3296:	f04f 0200 	mov.w	r2, #0
    329a:	701a      	strb	r2, [r3, #0]
    329c:	687b      	ldr	r3, [r7, #4]
    329e:	f103 0301 	add.w	r3, r3, #1
    32a2:	607b      	str	r3, [r7, #4]
    32a4:	687b      	ldr	r3, [r7, #4]
    32a6:	2b0b      	cmp	r3, #11
    32a8:	ddcf      	ble.n	324a <initConsole+0x12>
    32aa:	f107 0708 	add.w	r7, r7, #8
    32ae:	46bd      	mov	sp, r7
    32b0:	bd80      	pop	{r7, pc}
    32b2:	bf00      	nop

000032b4 <consolePrintStr>:
    32b4:	b580      	push	{r7, lr}
    32b6:	b086      	sub	sp, #24
    32b8:	af00      	add	r7, sp, #0
    32ba:	60f8      	str	r0, [r7, #12]
    32bc:	60b9      	str	r1, [r7, #8]
    32be:	607a      	str	r2, [r7, #4]
    32c0:	6878      	ldr	r0, [r7, #4]
    32c2:	f000 f8f3 	bl	34ac <strlen>
    32c6:	4603      	mov	r3, r0
    32c8:	617b      	str	r3, [r7, #20]
    32ca:	68fb      	ldr	r3, [r7, #12]
    32cc:	f1c3 0215 	rsb	r2, r3, #21
    32d0:	697b      	ldr	r3, [r7, #20]
    32d2:	429a      	cmp	r2, r3
    32d4:	da03      	bge.n	32de <consolePrintStr+0x2a>
    32d6:	68fb      	ldr	r3, [r7, #12]
    32d8:	f1c3 0315 	rsb	r3, r3, #21
    32dc:	617b      	str	r3, [r7, #20]
    32de:	f240 6320 	movw	r3, #1568	; 0x620
    32e2:	f2c2 0300 	movt	r3, #8192	; 0x2000
    32e6:	68ba      	ldr	r2, [r7, #8]
    32e8:	f04f 0116 	mov.w	r1, #22
    32ec:	fb01 f102 	mul.w	r1, r1, r2
    32f0:	68fa      	ldr	r2, [r7, #12]
    32f2:	188a      	adds	r2, r1, r2
    32f4:	189a      	adds	r2, r3, r2
    32f6:	697b      	ldr	r3, [r7, #20]
    32f8:	4610      	mov	r0, r2
    32fa:	6879      	ldr	r1, [r7, #4]
    32fc:	461a      	mov	r2, r3
    32fe:	f000 f905 	bl	350c <strncpy>
    3302:	f107 0718 	add.w	r7, r7, #24
    3306:	46bd      	mov	sp, r7
    3308:	bd80      	pop	{r7, pc}
    330a:	bf00      	nop

0000330c <refreshConsole>:
    330c:	b580      	push	{r7, lr}
    330e:	b082      	sub	sp, #8
    3310:	af00      	add	r7, sp, #0
    3312:	f04f 0300 	mov.w	r3, #0
    3316:	607b      	str	r3, [r7, #4]
    3318:	e018      	b.n	334c <refreshConsole+0x40>
    331a:	f240 6320 	movw	r3, #1568	; 0x620
    331e:	f2c2 0300 	movt	r3, #8192	; 0x2000
    3322:	687a      	ldr	r2, [r7, #4]
    3324:	f04f 0116 	mov.w	r1, #22
    3328:	fb01 f202 	mul.w	r2, r1, r2
    332c:	189a      	adds	r2, r3, r2
    332e:	687b      	ldr	r3, [r7, #4]
    3330:	ea4f 03c3 	mov.w	r3, r3, lsl #3
    3334:	4610      	mov	r0, r2
    3336:	f04f 0100 	mov.w	r1, #0
    333a:	461a      	mov	r2, r3
    333c:	f04f 030f 	mov.w	r3, #15
    3340:	f000 f858 	bl	33f4 <GENERIC_DISPLAY_stringDraw>
    3344:	687b      	ldr	r3, [r7, #4]
    3346:	f103 0301 	add.w	r3, r3, #1
    334a:	607b      	str	r3, [r7, #4]
    334c:	687b      	ldr	r3, [r7, #4]
    334e:	2b0b      	cmp	r3, #11
    3350:	dde3      	ble.n	331a <refreshConsole+0xe>
    3352:	f107 0708 	add.w	r7, r7, #8
    3356:	46bd      	mov	sp, r7
    3358:	bd80      	pop	{r7, pc}
    335a:	bf00      	nop

0000335c <refreshConsoleLine>:
    335c:	b580      	push	{r7, lr}
    335e:	b082      	sub	sp, #8
    3360:	af00      	add	r7, sp, #0
    3362:	6078      	str	r0, [r7, #4]
    3364:	f240 6320 	movw	r3, #1568	; 0x620
    3368:	f2c2 0300 	movt	r3, #8192	; 0x2000
    336c:	687a      	ldr	r2, [r7, #4]
    336e:	f04f 0116 	mov.w	r1, #22
    3372:	fb01 f202 	mul.w	r2, r1, r2
    3376:	189a      	adds	r2, r3, r2
    3378:	687b      	ldr	r3, [r7, #4]
    337a:	ea4f 03c3 	mov.w	r3, r3, lsl #3
    337e:	4610      	mov	r0, r2
    3380:	f04f 0100 	mov.w	r1, #0
    3384:	461a      	mov	r2, r3
    3386:	f04f 030f 	mov.w	r3, #15
    338a:	f000 f833 	bl	33f4 <GENERIC_DISPLAY_stringDraw>
    338e:	f107 0708 	add.w	r7, r7, #8
    3392:	46bd      	mov	sp, r7
    3394:	bd80      	pop	{r7, pc}
    3396:	bf00      	nop

00003398 <eraseConsoleLine>:
    3398:	b480      	push	{r7}
    339a:	b085      	sub	sp, #20
    339c:	af00      	add	r7, sp, #0
    339e:	6078      	str	r0, [r7, #4]
    33a0:	f04f 0300 	mov.w	r3, #0
    33a4:	60fb      	str	r3, [r7, #12]
    33a6:	e012      	b.n	33ce <eraseConsoleLine+0x36>
    33a8:	f240 6320 	movw	r3, #1568	; 0x620
    33ac:	f2c2 0300 	movt	r3, #8192	; 0x2000
    33b0:	687a      	ldr	r2, [r7, #4]
    33b2:	f04f 0116 	mov.w	r1, #22
    33b6:	fb01 f102 	mul.w	r1, r1, r2
    33ba:	68fa      	ldr	r2, [r7, #12]
    33bc:	188a      	adds	r2, r1, r2
    33be:	189b      	adds	r3, r3, r2
    33c0:	f04f 0220 	mov.w	r2, #32
    33c4:	701a      	strb	r2, [r3, #0]
    33c6:	68fb      	ldr	r3, [r7, #12]
    33c8:	f103 0301 	add.w	r3, r3, #1
    33cc:	60fb      	str	r3, [r7, #12]
    33ce:	68fb      	ldr	r3, [r7, #12]
    33d0:	2b14      	cmp	r3, #20
    33d2:	dde9      	ble.n	33a8 <eraseConsoleLine+0x10>
    33d4:	f107 0714 	add.w	r7, r7, #20
    33d8:	46bd      	mov	sp, r7
    33da:	bc80      	pop	{r7}
    33dc:	4770      	bx	lr
    33de:	bf00      	nop

000033e0 <GENERIC_DISPLAY_init>:
    33e0:	b580      	push	{r7, lr}
    33e2:	af00      	add	r7, sp, #0
    33e4:	f244 2040 	movw	r0, #16960	; 0x4240
    33e8:	f2c0 000f 	movt	r0, #15
    33ec:	f7ff fc58 	bl	2ca0 <RIT128x96x4Init>
    33f0:	bd80      	pop	{r7, pc}
    33f2:	bf00      	nop

000033f4 <GENERIC_DISPLAY_stringDraw>:
    33f4:	b580      	push	{r7, lr}
    33f6:	b084      	sub	sp, #16
    33f8:	af00      	add	r7, sp, #0
    33fa:	60f8      	str	r0, [r7, #12]
    33fc:	60b9      	str	r1, [r7, #8]
    33fe:	607a      	str	r2, [r7, #4]
    3400:	70fb      	strb	r3, [r7, #3]
    3402:	78fb      	ldrb	r3, [r7, #3]
    3404:	68f8      	ldr	r0, [r7, #12]
    3406:	68b9      	ldr	r1, [r7, #8]
    3408:	687a      	ldr	r2, [r7, #4]
    340a:	f7ff fb07 	bl	2a1c <RIT128x96x4StringDraw>
    340e:	f107 0710 	add.w	r7, r7, #16
    3412:	46bd      	mov	sp, r7
    3414:	bd80      	pop	{r7, pc}
    3416:	bf00      	nop

00003418 <_sprintf_r>:
    3418:	b40c      	push	{r2, r3}
    341a:	f44f 7302 	mov.w	r3, #520	; 0x208
    341e:	b570      	push	{r4, r5, r6, lr}
    3420:	b09c      	sub	sp, #112	; 0x70
    3422:	ac20      	add	r4, sp, #128	; 0x80
    3424:	460e      	mov	r6, r1
    3426:	f8ad 3010 	strh.w	r3, [sp, #16]
    342a:	a901      	add	r1, sp, #4
    342c:	f854 2b04 	ldr.w	r2, [r4], #4
    3430:	f04f 33ff 	mov.w	r3, #4294967295
    3434:	f8ad 3012 	strh.w	r3, [sp, #18]
    3438:	f06f 4500 	mvn.w	r5, #2147483648	; 0x80000000
    343c:	4623      	mov	r3, r4
    343e:	9601      	str	r6, [sp, #4]
    3440:	9605      	str	r6, [sp, #20]
    3442:	9503      	str	r5, [sp, #12]
    3444:	9506      	str	r5, [sp, #24]
    3446:	941b      	str	r4, [sp, #108]	; 0x6c
    3448:	f000 f89e 	bl	3588 <_svfprintf_r>
    344c:	9b01      	ldr	r3, [sp, #4]
    344e:	2200      	movs	r2, #0
    3450:	701a      	strb	r2, [r3, #0]
    3452:	b01c      	add	sp, #112	; 0x70
    3454:	e8bd 4070 	ldmia.w	sp!, {r4, r5, r6, lr}
    3458:	b002      	add	sp, #8
    345a:	4770      	bx	lr

0000345c <sprintf>:
    345c:	b40e      	push	{r1, r2, r3}
    345e:	f240 0314 	movw	r3, #20
    3462:	b5f0      	push	{r4, r5, r6, r7, lr}
    3464:	b09c      	sub	sp, #112	; 0x70
    3466:	ac21      	add	r4, sp, #132	; 0x84
    3468:	f2c2 0300 	movt	r3, #8192	; 0x2000
    346c:	4606      	mov	r6, r0
    346e:	a901      	add	r1, sp, #4
    3470:	f854 2b04 	ldr.w	r2, [r4], #4
    3474:	f06f 4500 	mvn.w	r5, #2147483648	; 0x80000000
    3478:	6818      	ldr	r0, [r3, #0]
    347a:	f44f 7702 	mov.w	r7, #520	; 0x208
    347e:	4623      	mov	r3, r4
    3480:	9601      	str	r6, [sp, #4]
    3482:	9605      	str	r6, [sp, #20]
    3484:	f04f 36ff 	mov.w	r6, #4294967295
    3488:	f8ad 7010 	strh.w	r7, [sp, #16]
    348c:	f8ad 6012 	strh.w	r6, [sp, #18]
    3490:	9503      	str	r5, [sp, #12]
    3492:	9506      	str	r5, [sp, #24]
    3494:	941b      	str	r4, [sp, #108]	; 0x6c
    3496:	f000 f877 	bl	3588 <_svfprintf_r>
    349a:	9b01      	ldr	r3, [sp, #4]
    349c:	2200      	movs	r2, #0
    349e:	701a      	strb	r2, [r3, #0]
    34a0:	b01c      	add	sp, #112	; 0x70
    34a2:	e8bd 40f0 	ldmia.w	sp!, {r4, r5, r6, r7, lr}
    34a6:	b003      	add	sp, #12
    34a8:	4770      	bx	lr
    34aa:	bf00      	nop

000034ac <strlen>:
    34ac:	f020 0103 	bic.w	r1, r0, #3
    34b0:	f010 0003 	ands.w	r0, r0, #3
    34b4:	f1c0 0000 	rsb	r0, r0, #0
    34b8:	f851 3b04 	ldr.w	r3, [r1], #4
    34bc:	f100 0c04 	add.w	ip, r0, #4
    34c0:	ea4f 0ccc 	mov.w	ip, ip, lsl #3
    34c4:	f06f 0200 	mvn.w	r2, #0
    34c8:	bf1c      	itt	ne
    34ca:	fa22 f20c 	lsrne.w	r2, r2, ip
    34ce:	4313      	orrne	r3, r2
    34d0:	f04f 0c01 	mov.w	ip, #1
    34d4:	ea4c 2c0c 	orr.w	ip, ip, ip, lsl #8
    34d8:	ea4c 4c0c 	orr.w	ip, ip, ip, lsl #16
    34dc:	eba3 020c 	sub.w	r2, r3, ip
    34e0:	ea22 0203 	bic.w	r2, r2, r3
    34e4:	ea12 12cc 	ands.w	r2, r2, ip, lsl #7
    34e8:	bf04      	itt	eq
    34ea:	f851 3b04 	ldreq.w	r3, [r1], #4
    34ee:	3004      	addeq	r0, #4
    34f0:	d0f4      	beq.n	34dc <strlen+0x30>
    34f2:	f013 0fff 	tst.w	r3, #255	; 0xff
    34f6:	bf1f      	itttt	ne
    34f8:	3001      	addne	r0, #1
    34fa:	f413 4f7f 	tstne.w	r3, #65280	; 0xff00
    34fe:	3001      	addne	r0, #1
    3500:	f413 0f7f 	tstne.w	r3, #16711680	; 0xff0000
    3504:	bf18      	it	ne
    3506:	3001      	addne	r0, #1
    3508:	4770      	bx	lr
    350a:	bf00      	nop

0000350c <strncpy>:
    350c:	ea41 0300 	orr.w	r3, r1, r0
    3510:	f013 0f03 	tst.w	r3, #3
    3514:	4603      	mov	r3, r0
    3516:	b470      	push	{r4, r5, r6}
    3518:	bf14      	ite	ne
    351a:	2500      	movne	r5, #0
    351c:	2501      	moveq	r5, #1
    351e:	2a03      	cmp	r2, #3
    3520:	bf94      	ite	ls
    3522:	2500      	movls	r5, #0
    3524:	f005 0501 	andhi.w	r5, r5, #1
    3528:	460c      	mov	r4, r1
    352a:	4606      	mov	r6, r0
    352c:	b9cd      	cbnz	r5, 3562 <strncpy+0x56>
    352e:	b1b2      	cbz	r2, 355e <strncpy+0x52>
    3530:	780d      	ldrb	r5, [r1, #0]
    3532:	4634      	mov	r4, r6
    3534:	1e53      	subs	r3, r2, #1
    3536:	f804 5b01 	strb.w	r5, [r4], #1
    353a:	b155      	cbz	r5, 3552 <strncpy+0x46>
    353c:	1cb2      	adds	r2, r6, #2
    353e:	b173      	cbz	r3, 355e <strncpy+0x52>
    3540:	f811 5f01 	ldrb.w	r5, [r1, #1]!
    3544:	4614      	mov	r4, r2
    3546:	3b01      	subs	r3, #1
    3548:	f802 5c01 	strb.w	r5, [r2, #-1]
    354c:	3201      	adds	r2, #1
    354e:	2d00      	cmp	r5, #0
    3550:	d1f5      	bne.n	353e <strncpy+0x32>
    3552:	b123      	cbz	r3, 355e <strncpy+0x52>
    3554:	2200      	movs	r2, #0
    3556:	3b01      	subs	r3, #1
    3558:	f804 2b01 	strb.w	r2, [r4], #1
    355c:	d1fb      	bne.n	3556 <strncpy+0x4a>
    355e:	bc70      	pop	{r4, r5, r6}
    3560:	4770      	bx	lr
    3562:	4621      	mov	r1, r4
    3564:	f854 5b04 	ldr.w	r5, [r4], #4
    3568:	f1a5 3601 	sub.w	r6, r5, #16843009	; 0x1010101
    356c:	ea26 0605 	bic.w	r6, r6, r5
    3570:	f016 3f80 	tst.w	r6, #2155905152	; 0x80808080
    3574:	d105      	bne.n	3582 <strncpy+0x76>
    3576:	3a04      	subs	r2, #4
    3578:	f843 5b04 	str.w	r5, [r3], #4
    357c:	2a03      	cmp	r2, #3
    357e:	4621      	mov	r1, r4
    3580:	d8ef      	bhi.n	3562 <strncpy+0x56>
    3582:	461e      	mov	r6, r3
    3584:	e7d3      	b.n	352e <strncpy+0x22>
    3586:	bf00      	nop

00003588 <_svfprintf_r>:
    3588:	e92d 4ff0 	stmdb	sp!, {r4, r5, r6, r7, r8, r9, sl, fp, lr}
    358c:	b0c5      	sub	sp, #276	; 0x114
    358e:	4614      	mov	r4, r2
    3590:	9312      	str	r3, [sp, #72]	; 0x48
    3592:	910c      	str	r1, [sp, #48]	; 0x30
    3594:	9011      	str	r0, [sp, #68]	; 0x44
    3596:	f002 fb63 	bl	5c60 <_localeconv_r>
    359a:	6800      	ldr	r0, [r0, #0]
    359c:	9019      	str	r0, [sp, #100]	; 0x64
    359e:	f7ff ff85 	bl	34ac <strlen>
    35a2:	901c      	str	r0, [sp, #112]	; 0x70
    35a4:	980c      	ldr	r0, [sp, #48]	; 0x30
    35a6:	8983      	ldrh	r3, [r0, #12]
    35a8:	f013 0f80 	tst.w	r3, #128	; 0x80
    35ac:	d003      	beq.n	35b6 <_svfprintf_r+0x2e>
    35ae:	6903      	ldr	r3, [r0, #16]
    35b0:	2b00      	cmp	r3, #0
    35b2:	f001 8184 	beq.w	48be <_svfprintf_r+0x1336>
    35b6:	f10d 0a7c 	add.w	sl, sp, #124	; 0x7c
    35ba:	2300      	movs	r3, #0
    35bc:	4656      	mov	r6, sl
    35be:	f10d 01f7 	add.w	r1, sp, #247	; 0xf7
    35c2:	930e      	str	r3, [sp, #56]	; 0x38
    35c4:	9409      	str	r4, [sp, #36]	; 0x24
    35c6:	931a      	str	r3, [sp, #104]	; 0x68
    35c8:	931b      	str	r3, [sp, #108]	; 0x6c
    35ca:	9317      	str	r3, [sp, #92]	; 0x5c
    35cc:	931d      	str	r3, [sp, #116]	; 0x74
    35ce:	930f      	str	r3, [sp, #60]	; 0x3c
    35d0:	9107      	str	r1, [sp, #28]
    35d2:	f8cd a0e4 	str.w	sl, [sp, #228]	; 0xe4
    35d6:	933b      	str	r3, [sp, #236]	; 0xec
    35d8:	933a      	str	r3, [sp, #232]	; 0xe8
    35da:	9a09      	ldr	r2, [sp, #36]	; 0x24
    35dc:	7813      	ldrb	r3, [r2, #0]
    35de:	f1b3 0225 	subs.w	r2, r3, #37	; 0x25
    35e2:	bf18      	it	ne
    35e4:	2201      	movne	r2, #1
    35e6:	2b00      	cmp	r3, #0
    35e8:	bf0c      	ite	eq
    35ea:	2300      	moveq	r3, #0
    35ec:	f002 0301 	andne.w	r3, r2, #1
    35f0:	2b00      	cmp	r3, #0
    35f2:	f000 80bd 	beq.w	3770 <_svfprintf_r+0x1e8>
    35f6:	9b09      	ldr	r3, [sp, #36]	; 0x24
    35f8:	1c5a      	adds	r2, r3, #1
    35fa:	4617      	mov	r7, r2
    35fc:	3201      	adds	r2, #1
    35fe:	783b      	ldrb	r3, [r7, #0]
    3600:	1e19      	subs	r1, r3, #0
    3602:	bf18      	it	ne
    3604:	2101      	movne	r1, #1
    3606:	2b25      	cmp	r3, #37	; 0x25
    3608:	bf0c      	ite	eq
    360a:	2300      	moveq	r3, #0
    360c:	f001 0301 	andne.w	r3, r1, #1
    3610:	2b00      	cmp	r3, #0
    3612:	d1f2      	bne.n	35fa <_svfprintf_r+0x72>
    3614:	9c09      	ldr	r4, [sp, #36]	; 0x24
    3616:	ebb7 0804 	subs.w	r8, r7, r4
    361a:	d010      	beq.n	363e <_svfprintf_r+0xb6>
    361c:	9c3a      	ldr	r4, [sp, #232]	; 0xe8
    361e:	9809      	ldr	r0, [sp, #36]	; 0x24
    3620:	3401      	adds	r4, #1
    3622:	9d3b      	ldr	r5, [sp, #236]	; 0xec
    3624:	2c07      	cmp	r4, #7
    3626:	f8c6 8004 	str.w	r8, [r6, #4]
    362a:	6030      	str	r0, [r6, #0]
    362c:	4445      	add	r5, r8
    362e:	943a      	str	r4, [sp, #232]	; 0xe8
    3630:	953b      	str	r5, [sp, #236]	; 0xec
    3632:	f300 8081 	bgt.w	3738 <_svfprintf_r+0x1b0>
    3636:	3608      	adds	r6, #8
    3638:	990f      	ldr	r1, [sp, #60]	; 0x3c
    363a:	4441      	add	r1, r8
    363c:	910f      	str	r1, [sp, #60]	; 0x3c
    363e:	783b      	ldrb	r3, [r7, #0]
    3640:	2b00      	cmp	r3, #0
    3642:	f000 8081 	beq.w	3748 <_svfprintf_r+0x1c0>
    3646:	1c7c      	adds	r4, r7, #1
    3648:	2200      	movs	r2, #0
    364a:	2300      	movs	r3, #0
    364c:	920d      	str	r2, [sp, #52]	; 0x34
    364e:	f88d 310f 	strb.w	r3, [sp, #271]	; 0x10f
    3652:	2520      	movs	r5, #32
    3654:	9409      	str	r4, [sp, #36]	; 0x24
    3656:	212b      	movs	r1, #43	; 0x2b
    3658:	787b      	ldrb	r3, [r7, #1]
    365a:	f04f 37ff 	mov.w	r7, #4294967295
    365e:	9208      	str	r2, [sp, #32]
    3660:	4622      	mov	r2, r4
    3662:	3201      	adds	r2, #1
    3664:	f1a3 0020 	sub.w	r0, r3, #32
    3668:	2858      	cmp	r0, #88	; 0x58
    366a:	f200 831d 	bhi.w	3ca8 <_svfprintf_r+0x720>
    366e:	e8df f010 	tbh	[pc, r0, lsl #1]
    3672:	032e      	.short	0x032e
    3674:	031b031b 	.word	0x031b031b
    3678:	031b0337 	.word	0x031b0337
    367c:	031b031b 	.word	0x031b031b
    3680:	031b031b 	.word	0x031b031b
    3684:	03c8031b 	.word	0x03c8031b
    3688:	031b0081 	.word	0x031b0081
    368c:	0085005d 	.word	0x0085005d
    3690:	009f031b 	.word	0x009f031b
    3694:	00a500a5 	.word	0x00a500a5
    3698:	00a500a5 	.word	0x00a500a5
    369c:	00a500a5 	.word	0x00a500a5
    36a0:	00a500a5 	.word	0x00a500a5
    36a4:	031b00a5 	.word	0x031b00a5
    36a8:	031b031b 	.word	0x031b031b
    36ac:	031b031b 	.word	0x031b031b
    36b0:	031b031b 	.word	0x031b031b
    36b4:	031b031b 	.word	0x031b031b
    36b8:	00b7031b 	.word	0x00b7031b
    36bc:	031b0242 	.word	0x031b0242
    36c0:	031b0242 	.word	0x031b0242
    36c4:	031b031b 	.word	0x031b031b
    36c8:	0280031b 	.word	0x0280031b
    36cc:	031b031b 	.word	0x031b031b
    36d0:	031b0286 	.word	0x031b0286
    36d4:	031b031b 	.word	0x031b031b
    36d8:	031b031b 	.word	0x031b031b
    36dc:	031b02a4 	.word	0x031b02a4
    36e0:	02b3031b 	.word	0x02b3031b
    36e4:	031b031b 	.word	0x031b031b
    36e8:	031b031b 	.word	0x031b031b
    36ec:	031b031b 	.word	0x031b031b
    36f0:	031b031b 	.word	0x031b031b
    36f4:	031b031b 	.word	0x031b031b
    36f8:	033d0355 	.word	0x033d0355
    36fc:	02420242 	.word	0x02420242
    3700:	034f0242 	.word	0x034f0242
    3704:	031b033d 	.word	0x031b033d
    3708:	030c031b 	.word	0x030c031b
    370c:	039b031b 	.word	0x039b031b
    3710:	037f0369 	.word	0x037f0369
    3714:	031b02de 	.word	0x031b02de
    3718:	031b02e4 	.word	0x031b02e4
    371c:	031b03ac 	.word	0x031b03ac
    3720:	03d3031b 	.word	0x03d3031b
    3724:	9b0d      	ldr	r3, [sp, #52]	; 0x34
    3726:	9012      	str	r0, [sp, #72]	; 0x48
    3728:	425b      	negs	r3, r3
    372a:	930d      	str	r3, [sp, #52]	; 0x34
    372c:	9c08      	ldr	r4, [sp, #32]
    372e:	f044 0404 	orr.w	r4, r4, #4
    3732:	9408      	str	r4, [sp, #32]
    3734:	7813      	ldrb	r3, [r2, #0]
    3736:	e794      	b.n	3662 <_svfprintf_r+0xda>
    3738:	9811      	ldr	r0, [sp, #68]	; 0x44
    373a:	aa39      	add	r2, sp, #228	; 0xe4
    373c:	990c      	ldr	r1, [sp, #48]	; 0x30
    373e:	f003 fc37 	bl	6fb0 <__ssprint_r>
    3742:	b940      	cbnz	r0, 3756 <_svfprintf_r+0x1ce>
    3744:	4656      	mov	r6, sl
    3746:	e777      	b.n	3638 <_svfprintf_r+0xb0>
    3748:	9b3b      	ldr	r3, [sp, #236]	; 0xec
    374a:	b123      	cbz	r3, 3756 <_svfprintf_r+0x1ce>
    374c:	9811      	ldr	r0, [sp, #68]	; 0x44
    374e:	aa39      	add	r2, sp, #228	; 0xe4
    3750:	990c      	ldr	r1, [sp, #48]	; 0x30
    3752:	f003 fc2d 	bl	6fb0 <__ssprint_r>
    3756:	990c      	ldr	r1, [sp, #48]	; 0x30
    3758:	9a0f      	ldr	r2, [sp, #60]	; 0x3c
    375a:	898b      	ldrh	r3, [r1, #12]
    375c:	f013 0f40 	tst.w	r3, #64	; 0x40
    3760:	bf18      	it	ne
    3762:	f04f 32ff 	movne.w	r2, #4294967295
    3766:	920f      	str	r2, [sp, #60]	; 0x3c
    3768:	980f      	ldr	r0, [sp, #60]	; 0x3c
    376a:	b045      	add	sp, #276	; 0x114
    376c:	e8bd 8ff0 	ldmia.w	sp!, {r4, r5, r6, r7, r8, r9, sl, fp, pc}
    3770:	9f09      	ldr	r7, [sp, #36]	; 0x24
    3772:	e764      	b.n	363e <_svfprintf_r+0xb6>
    3774:	f88d 110f 	strb.w	r1, [sp, #271]	; 0x10f
    3778:	7813      	ldrb	r3, [r2, #0]
    377a:	e772      	b.n	3662 <_svfprintf_r+0xda>
    377c:	f812 3b01 	ldrb.w	r3, [r2], #1
    3780:	2b2a      	cmp	r3, #42	; 0x2a
    3782:	f001 820b 	beq.w	4b9c <_svfprintf_r+0x1614>
    3786:	f1a3 0030 	sub.w	r0, r3, #48	; 0x30
    378a:	2809      	cmp	r0, #9
    378c:	f201 81c1 	bhi.w	4b12 <_svfprintf_r+0x158a>
    3790:	4614      	mov	r4, r2
    3792:	2700      	movs	r7, #0
    3794:	f814 3b01 	ldrb.w	r3, [r4], #1
    3798:	eb07 0787 	add.w	r7, r7, r7, lsl #2
    379c:	eb00 0747 	add.w	r7, r0, r7, lsl #1
    37a0:	f1a3 0030 	sub.w	r0, r3, #48	; 0x30
    37a4:	2809      	cmp	r0, #9
    37a6:	4622      	mov	r2, r4
    37a8:	d9f4      	bls.n	3794 <_svfprintf_r+0x20c>
    37aa:	ea47 77e7 	orr.w	r7, r7, r7, asr #31
    37ae:	e759      	b.n	3664 <_svfprintf_r+0xdc>
    37b0:	9b08      	ldr	r3, [sp, #32]
    37b2:	f043 0380 	orr.w	r3, r3, #128	; 0x80
    37b6:	9308      	str	r3, [sp, #32]
    37b8:	7813      	ldrb	r3, [r2, #0]
    37ba:	e752      	b.n	3662 <_svfprintf_r+0xda>
    37bc:	4614      	mov	r4, r2
    37be:	2000      	movs	r0, #0
    37c0:	f1a3 0830 	sub.w	r8, r3, #48	; 0x30
    37c4:	f814 3b01 	ldrb.w	r3, [r4], #1
    37c8:	eb00 0080 	add.w	r0, r0, r0, lsl #2
    37cc:	f1a3 0c30 	sub.w	ip, r3, #48	; 0x30
    37d0:	4622      	mov	r2, r4
    37d2:	f1bc 0f09 	cmp.w	ip, #9
    37d6:	eb08 0040 	add.w	r0, r8, r0, lsl #1
    37da:	d9f1      	bls.n	37c0 <_svfprintf_r+0x238>
    37dc:	900d      	str	r0, [sp, #52]	; 0x34
    37de:	e741      	b.n	3664 <_svfprintf_r+0xdc>
    37e0:	9209      	str	r2, [sp, #36]	; 0x24
    37e2:	9a08      	ldr	r2, [sp, #32]
    37e4:	9316      	str	r3, [sp, #88]	; 0x58
    37e6:	f042 0210 	orr.w	r2, r2, #16
    37ea:	9208      	str	r2, [sp, #32]
    37ec:	9b08      	ldr	r3, [sp, #32]
    37ee:	f013 0f20 	tst.w	r3, #32
    37f2:	f000 8282 	beq.w	3cfa <_svfprintf_r+0x772>
    37f6:	9c12      	ldr	r4, [sp, #72]	; 0x48
    37f8:	1de3      	adds	r3, r4, #7
    37fa:	f023 0307 	bic.w	r3, r3, #7
    37fe:	f103 0008 	add.w	r0, r3, #8
    3802:	9012      	str	r0, [sp, #72]	; 0x48
    3804:	e9d3 4500 	ldrd	r4, r5, [r3]
    3808:	2c00      	cmp	r4, #0
    380a:	f175 0200 	sbcs.w	r2, r5, #0
    380e:	f2c0 85ce 	blt.w	43ae <_svfprintf_r+0xe26>
    3812:	ea54 0305 	orrs.w	r3, r4, r5
    3816:	f04f 0301 	mov.w	r3, #1
    381a:	bf0c      	ite	eq
    381c:	2200      	moveq	r2, #0
    381e:	2201      	movne	r2, #1
    3820:	2f00      	cmp	r7, #0
    3822:	bfa2      	ittt	ge
    3824:	9908      	ldrge	r1, [sp, #32]
    3826:	f021 0180 	bicge.w	r1, r1, #128	; 0x80
    382a:	9108      	strge	r1, [sp, #32]
    382c:	2f00      	cmp	r7, #0
    382e:	bf18      	it	ne
    3830:	f042 0201 	orrne.w	r2, r2, #1
    3834:	2a00      	cmp	r2, #0
    3836:	f000 83ad 	beq.w	3f94 <_svfprintf_r+0xa0c>
    383a:	2b01      	cmp	r3, #1
    383c:	f000 84ff 	beq.w	423e <_svfprintf_r+0xcb6>
    3840:	2b02      	cmp	r3, #2
    3842:	f000 84df 	beq.w	4204 <_svfprintf_r+0xc7c>
    3846:	f10d 0bbc 	add.w	fp, sp, #188	; 0xbc
    384a:	f10b 0327 	add.w	r3, fp, #39	; 0x27
    384e:	08ea      	lsrs	r2, r5, #3
    3850:	ea4f 08d4 	mov.w	r8, r4, lsr #3
    3854:	ea48 7845 	orr.w	r8, r8, r5, lsl #29
    3858:	f004 0407 	and.w	r4, r4, #7
    385c:	4611      	mov	r1, r2
    385e:	f104 0230 	add.w	r2, r4, #48	; 0x30
    3862:	460d      	mov	r5, r1
    3864:	4644      	mov	r4, r8
    3866:	ea54 0005 	orrs.w	r0, r4, r5
    386a:	469c      	mov	ip, r3
    386c:	701a      	strb	r2, [r3, #0]
    386e:	f103 33ff 	add.w	r3, r3, #4294967295
    3872:	d1ec      	bne.n	384e <_svfprintf_r+0x2c6>
    3874:	9908      	ldr	r1, [sp, #32]
    3876:	f8cd c04c 	str.w	ip, [sp, #76]	; 0x4c
    387a:	f011 0f01 	tst.w	r1, #1
    387e:	f040 8588 	bne.w	4392 <_svfprintf_r+0xe0a>
    3882:	f10b 0b28 	add.w	fp, fp, #40	; 0x28
    3886:	ebcc 020b 	rsb	r2, ip, fp
    388a:	9210      	str	r2, [sp, #64]	; 0x40
    388c:	f89d 210f 	ldrb.w	r2, [sp, #271]	; 0x10f
    3890:	2000      	movs	r0, #0
    3892:	9c10      	ldr	r4, [sp, #64]	; 0x40
    3894:	9715      	str	r7, [sp, #84]	; 0x54
    3896:	42bc      	cmp	r4, r7
    3898:	bfb8      	it	lt
    389a:	463c      	movlt	r4, r7
    389c:	9018      	str	r0, [sp, #96]	; 0x60
    389e:	940a      	str	r4, [sp, #40]	; 0x28
    38a0:	b112      	cbz	r2, 38a8 <_svfprintf_r+0x320>
    38a2:	980a      	ldr	r0, [sp, #40]	; 0x28
    38a4:	3001      	adds	r0, #1
    38a6:	900a      	str	r0, [sp, #40]	; 0x28
    38a8:	9908      	ldr	r1, [sp, #32]
    38aa:	f011 0b02 	ands.w	fp, r1, #2
    38ae:	d002      	beq.n	38b6 <_svfprintf_r+0x32e>
    38b0:	9b0a      	ldr	r3, [sp, #40]	; 0x28
    38b2:	3302      	adds	r3, #2
    38b4:	930a      	str	r3, [sp, #40]	; 0x28
    38b6:	9c08      	ldr	r4, [sp, #32]
    38b8:	f014 0484 	ands.w	r4, r4, #132	; 0x84
    38bc:	9414      	str	r4, [sp, #80]	; 0x50
    38be:	f040 82cd 	bne.w	3e5c <_svfprintf_r+0x8d4>
    38c2:	980d      	ldr	r0, [sp, #52]	; 0x34
    38c4:	990a      	ldr	r1, [sp, #40]	; 0x28
    38c6:	1a47      	subs	r7, r0, r1
    38c8:	2f00      	cmp	r7, #0
    38ca:	f340 82c7 	ble.w	3e5c <_svfprintf_r+0x8d4>
    38ce:	2f10      	cmp	r7, #16
    38d0:	f341 8079 	ble.w	49c6 <_svfprintf_r+0x143e>
    38d4:	9d3b      	ldr	r5, [sp, #236]	; 0xec
    38d6:	f649 2888 	movw	r8, #39560	; 0x9a88
    38da:	9c3a      	ldr	r4, [sp, #232]	; 0xe8
    38dc:	f2c0 0800 	movt	r8, #0
    38e0:	4629      	mov	r1, r5
    38e2:	f04f 0910 	mov.w	r9, #16
    38e6:	4622      	mov	r2, r4
    38e8:	9d0c      	ldr	r5, [sp, #48]	; 0x30
    38ea:	4644      	mov	r4, r8
    38ec:	f8dd 8044 	ldr.w	r8, [sp, #68]	; 0x44
    38f0:	e002      	b.n	38f8 <_svfprintf_r+0x370>
    38f2:	3f10      	subs	r7, #16
    38f4:	2f10      	cmp	r7, #16
    38f6:	dd1b      	ble.n	3930 <_svfprintf_r+0x3a8>
    38f8:	3201      	adds	r2, #1
    38fa:	6034      	str	r4, [r6, #0]
    38fc:	f8c6 9004 	str.w	r9, [r6, #4]
    3900:	3110      	adds	r1, #16
    3902:	3608      	adds	r6, #8
    3904:	2a07      	cmp	r2, #7
    3906:	923a      	str	r2, [sp, #232]	; 0xe8
    3908:	f106 0308 	add.w	r3, r6, #8
    390c:	913b      	str	r1, [sp, #236]	; 0xec
    390e:	ddf0      	ble.n	38f2 <_svfprintf_r+0x36a>
    3910:	4640      	mov	r0, r8
    3912:	4629      	mov	r1, r5
    3914:	aa39      	add	r2, sp, #228	; 0xe4
    3916:	4656      	mov	r6, sl
    3918:	f003 fb4a 	bl	6fb0 <__ssprint_r>
    391c:	f10a 0308 	add.w	r3, sl, #8
    3920:	2800      	cmp	r0, #0
    3922:	f47f af18 	bne.w	3756 <_svfprintf_r+0x1ce>
    3926:	3f10      	subs	r7, #16
    3928:	993b      	ldr	r1, [sp, #236]	; 0xec
    392a:	2f10      	cmp	r7, #16
    392c:	9a3a      	ldr	r2, [sp, #232]	; 0xe8
    392e:	dce3      	bgt.n	38f8 <_svfprintf_r+0x370>
    3930:	46a0      	mov	r8, r4
    3932:	460d      	mov	r5, r1
    3934:	4614      	mov	r4, r2
    3936:	3401      	adds	r4, #1
    3938:	f8c6 8000 	str.w	r8, [r6]
    393c:	2c07      	cmp	r4, #7
    393e:	6077      	str	r7, [r6, #4]
    3940:	443d      	add	r5, r7
    3942:	943a      	str	r4, [sp, #232]	; 0xe8
    3944:	953b      	str	r5, [sp, #236]	; 0xec
    3946:	f300 827e 	bgt.w	3e46 <_svfprintf_r+0x8be>
    394a:	f89d 210f 	ldrb.w	r2, [sp, #271]	; 0x10f
    394e:	461e      	mov	r6, r3
    3950:	b16a      	cbz	r2, 396e <_svfprintf_r+0x3e6>
    3952:	9c3a      	ldr	r4, [sp, #232]	; 0xe8
    3954:	ab43      	add	r3, sp, #268	; 0x10c
    3956:	3303      	adds	r3, #3
    3958:	6033      	str	r3, [r6, #0]
    395a:	3401      	adds	r4, #1
    395c:	2301      	movs	r3, #1
    395e:	2c07      	cmp	r4, #7
    3960:	6073      	str	r3, [r6, #4]
    3962:	441d      	add	r5, r3
    3964:	943a      	str	r4, [sp, #232]	; 0xe8
    3966:	953b      	str	r5, [sp, #236]	; 0xec
    3968:	f300 83e9 	bgt.w	413e <_svfprintf_r+0xbb6>
    396c:	3608      	adds	r6, #8
    396e:	f1bb 0f00 	cmp.w	fp, #0
    3972:	d00c      	beq.n	398e <_svfprintf_r+0x406>
    3974:	9c3a      	ldr	r4, [sp, #232]	; 0xe8
    3976:	ab43      	add	r3, sp, #268	; 0x10c
    3978:	6033      	str	r3, [r6, #0]
    397a:	2302      	movs	r3, #2
    397c:	3401      	adds	r4, #1
    397e:	6073      	str	r3, [r6, #4]
    3980:	2c07      	cmp	r4, #7
    3982:	441d      	add	r5, r3
    3984:	943a      	str	r4, [sp, #232]	; 0xe8
    3986:	953b      	str	r5, [sp, #236]	; 0xec
    3988:	f300 83ce 	bgt.w	4128 <_svfprintf_r+0xba0>
    398c:	3608      	adds	r6, #8
    398e:	9a14      	ldr	r2, [sp, #80]	; 0x50
    3990:	2a80      	cmp	r2, #128	; 0x80
    3992:	f000 8310 	beq.w	3fb6 <_svfprintf_r+0xa2e>
    3996:	9915      	ldr	r1, [sp, #84]	; 0x54
    3998:	9810      	ldr	r0, [sp, #64]	; 0x40
    399a:	1a0f      	subs	r7, r1, r0
    399c:	2f00      	cmp	r7, #0
    399e:	f340 835b 	ble.w	4058 <_svfprintf_r+0xad0>
    39a2:	2f10      	cmp	r7, #16
    39a4:	f340 85ec 	ble.w	4580 <_svfprintf_r+0xff8>
    39a8:	9c3a      	ldr	r4, [sp, #232]	; 0xe8
    39aa:	462a      	mov	r2, r5
    39ac:	f8df 8a98 	ldr.w	r8, [pc, #2712]	; 4448 <_svfprintf_r+0xec0>
    39b0:	f04f 0b10 	mov.w	fp, #16
    39b4:	4623      	mov	r3, r4
    39b6:	9d0c      	ldr	r5, [sp, #48]	; 0x30
    39b8:	4644      	mov	r4, r8
    39ba:	f8dd 8044 	ldr.w	r8, [sp, #68]	; 0x44
    39be:	e002      	b.n	39c6 <_svfprintf_r+0x43e>
    39c0:	3f10      	subs	r7, #16
    39c2:	2f10      	cmp	r7, #16
    39c4:	dd1b      	ble.n	39fe <_svfprintf_r+0x476>
    39c6:	3301      	adds	r3, #1
    39c8:	6034      	str	r4, [r6, #0]
    39ca:	f8c6 b004 	str.w	fp, [r6, #4]
    39ce:	3210      	adds	r2, #16
    39d0:	3608      	adds	r6, #8
    39d2:	2b07      	cmp	r3, #7
    39d4:	933a      	str	r3, [sp, #232]	; 0xe8
    39d6:	f106 0908 	add.w	r9, r6, #8
    39da:	923b      	str	r2, [sp, #236]	; 0xec
    39dc:	ddf0      	ble.n	39c0 <_svfprintf_r+0x438>
    39de:	4640      	mov	r0, r8
    39e0:	4629      	mov	r1, r5
    39e2:	aa39      	add	r2, sp, #228	; 0xe4
    39e4:	f10a 0908 	add.w	r9, sl, #8
    39e8:	f003 fae2 	bl	6fb0 <__ssprint_r>
    39ec:	4656      	mov	r6, sl
    39ee:	2800      	cmp	r0, #0
    39f0:	f47f aeb1 	bne.w	3756 <_svfprintf_r+0x1ce>
    39f4:	3f10      	subs	r7, #16
    39f6:	9a3b      	ldr	r2, [sp, #236]	; 0xec
    39f8:	2f10      	cmp	r7, #16
    39fa:	9b3a      	ldr	r3, [sp, #232]	; 0xe8
    39fc:	dce3      	bgt.n	39c6 <_svfprintf_r+0x43e>
    39fe:	46a0      	mov	r8, r4
    3a00:	4615      	mov	r5, r2
    3a02:	461c      	mov	r4, r3
    3a04:	3401      	adds	r4, #1
    3a06:	f8c6 8000 	str.w	r8, [r6]
    3a0a:	2c07      	cmp	r4, #7
    3a0c:	6077      	str	r7, [r6, #4]
    3a0e:	443d      	add	r5, r7
    3a10:	943a      	str	r4, [sp, #232]	; 0xe8
    3a12:	953b      	str	r5, [sp, #236]	; 0xec
    3a14:	f300 837d 	bgt.w	4112 <_svfprintf_r+0xb8a>
    3a18:	9a08      	ldr	r2, [sp, #32]
    3a1a:	f412 7f80 	tst.w	r2, #256	; 0x100
    3a1e:	f040 824e 	bne.w	3ebe <_svfprintf_r+0x936>
    3a22:	9c3a      	ldr	r4, [sp, #232]	; 0xe8
    3a24:	9b10      	ldr	r3, [sp, #64]	; 0x40
    3a26:	3401      	adds	r4, #1
    3a28:	9813      	ldr	r0, [sp, #76]	; 0x4c
    3a2a:	2c07      	cmp	r4, #7
    3a2c:	441d      	add	r5, r3
    3a2e:	f8c9 3004 	str.w	r3, [r9, #4]
    3a32:	f8c9 0000 	str.w	r0, [r9]
    3a36:	953b      	str	r5, [sp, #236]	; 0xec
    3a38:	943a      	str	r4, [sp, #232]	; 0xe8
    3a3a:	f300 8235 	bgt.w	3ea8 <_svfprintf_r+0x920>
    3a3e:	f109 0908 	add.w	r9, r9, #8
    3a42:	9c08      	ldr	r4, [sp, #32]
    3a44:	f014 0f04 	tst.w	r4, #4
    3a48:	d046      	beq.n	3ad8 <_svfprintf_r+0x550>
    3a4a:	980d      	ldr	r0, [sp, #52]	; 0x34
    3a4c:	990a      	ldr	r1, [sp, #40]	; 0x28
    3a4e:	1a46      	subs	r6, r0, r1
    3a50:	2e00      	cmp	r6, #0
    3a52:	dd41      	ble.n	3ad8 <_svfprintf_r+0x550>
    3a54:	2e10      	cmp	r6, #16
    3a56:	f341 800b 	ble.w	4a70 <_svfprintf_r+0x14e8>
    3a5a:	9c3a      	ldr	r4, [sp, #232]	; 0xe8
    3a5c:	f649 2888 	movw	r8, #39560	; 0x9a88
    3a60:	f2c0 0800 	movt	r8, #0
    3a64:	2710      	movs	r7, #16
    3a66:	4623      	mov	r3, r4
    3a68:	f8dd b030 	ldr.w	fp, [sp, #48]	; 0x30
    3a6c:	4644      	mov	r4, r8
    3a6e:	f8dd 8044 	ldr.w	r8, [sp, #68]	; 0x44
    3a72:	e002      	b.n	3a7a <_svfprintf_r+0x4f2>
    3a74:	3e10      	subs	r6, #16
    3a76:	2e10      	cmp	r6, #16
    3a78:	dd19      	ble.n	3aae <_svfprintf_r+0x526>
    3a7a:	3301      	adds	r3, #1
    3a7c:	3510      	adds	r5, #16
    3a7e:	2b07      	cmp	r3, #7
    3a80:	f8c9 4000 	str.w	r4, [r9]
    3a84:	f8c9 7004 	str.w	r7, [r9, #4]
    3a88:	f109 0908 	add.w	r9, r9, #8
    3a8c:	933a      	str	r3, [sp, #232]	; 0xe8
    3a8e:	953b      	str	r5, [sp, #236]	; 0xec
    3a90:	ddf0      	ble.n	3a74 <_svfprintf_r+0x4ec>
    3a92:	4640      	mov	r0, r8
    3a94:	4659      	mov	r1, fp
    3a96:	aa39      	add	r2, sp, #228	; 0xe4
    3a98:	46d1      	mov	r9, sl
    3a9a:	f003 fa89 	bl	6fb0 <__ssprint_r>
    3a9e:	2800      	cmp	r0, #0
    3aa0:	f47f ae59 	bne.w	3756 <_svfprintf_r+0x1ce>
    3aa4:	3e10      	subs	r6, #16
    3aa6:	9d3b      	ldr	r5, [sp, #236]	; 0xec
    3aa8:	2e10      	cmp	r6, #16
    3aaa:	9b3a      	ldr	r3, [sp, #232]	; 0xe8
    3aac:	dce5      	bgt.n	3a7a <_svfprintf_r+0x4f2>
    3aae:	46a0      	mov	r8, r4
    3ab0:	461c      	mov	r4, r3
    3ab2:	3401      	adds	r4, #1
    3ab4:	f8c9 8000 	str.w	r8, [r9]
    3ab8:	2c07      	cmp	r4, #7
    3aba:	f8c9 6004 	str.w	r6, [r9, #4]
    3abe:	4435      	add	r5, r6
    3ac0:	943a      	str	r4, [sp, #232]	; 0xe8
    3ac2:	953b      	str	r5, [sp, #236]	; 0xec
    3ac4:	dd08      	ble.n	3ad8 <_svfprintf_r+0x550>
    3ac6:	9811      	ldr	r0, [sp, #68]	; 0x44
    3ac8:	aa39      	add	r2, sp, #228	; 0xe4
    3aca:	990c      	ldr	r1, [sp, #48]	; 0x30
    3acc:	f003 fa70 	bl	6fb0 <__ssprint_r>
    3ad0:	2800      	cmp	r0, #0
    3ad2:	f47f ae40 	bne.w	3756 <_svfprintf_r+0x1ce>
    3ad6:	9d3b      	ldr	r5, [sp, #236]	; 0xec
    3ad8:	9a0f      	ldr	r2, [sp, #60]	; 0x3c
    3ada:	9c0a      	ldr	r4, [sp, #40]	; 0x28
    3adc:	9b0d      	ldr	r3, [sp, #52]	; 0x34
    3ade:	429c      	cmp	r4, r3
    3ae0:	bfac      	ite	ge
    3ae2:	1912      	addge	r2, r2, r4
    3ae4:	18d2      	addlt	r2, r2, r3
    3ae6:	920f      	str	r2, [sp, #60]	; 0x3c
    3ae8:	2d00      	cmp	r5, #0
    3aea:	f040 8303 	bne.w	40f4 <_svfprintf_r+0xb6c>
    3aee:	2000      	movs	r0, #0
    3af0:	4656      	mov	r6, sl
    3af2:	903a      	str	r0, [sp, #232]	; 0xe8
    3af4:	e571      	b.n	35da <_svfprintf_r+0x52>
    3af6:	9908      	ldr	r1, [sp, #32]
    3af8:	461d      	mov	r5, r3
    3afa:	9209      	str	r2, [sp, #36]	; 0x24
    3afc:	f011 0f08 	tst.w	r1, #8
    3b00:	9316      	str	r3, [sp, #88]	; 0x58
    3b02:	f000 8487 	beq.w	4414 <_svfprintf_r+0xe8c>
    3b06:	9a12      	ldr	r2, [sp, #72]	; 0x48
    3b08:	1dd3      	adds	r3, r2, #7
    3b0a:	f023 0307 	bic.w	r3, r3, #7
    3b0e:	f103 0408 	add.w	r4, r3, #8
    3b12:	9412      	str	r4, [sp, #72]	; 0x48
    3b14:	6818      	ldr	r0, [r3, #0]
    3b16:	901a      	str	r0, [sp, #104]	; 0x68
    3b18:	685b      	ldr	r3, [r3, #4]
    3b1a:	931b      	str	r3, [sp, #108]	; 0x6c
    3b1c:	981a      	ldr	r0, [sp, #104]	; 0x68
    3b1e:	991b      	ldr	r1, [sp, #108]	; 0x6c
    3b20:	f003 f8fc 	bl	6d1c <__fpclassifyd>
    3b24:	2801      	cmp	r0, #1
    3b26:	f040 8450 	bne.w	43ca <_svfprintf_r+0xe42>
    3b2a:	981a      	ldr	r0, [sp, #104]	; 0x68
    3b2c:	2200      	movs	r2, #0
    3b2e:	2300      	movs	r3, #0
    3b30:	991b      	ldr	r1, [sp, #108]	; 0x6c
    3b32:	f005 f99d 	bl	8e70 <__aeabi_dcmplt>
    3b36:	2800      	cmp	r0, #0
    3b38:	f040 872e 	bne.w	4998 <_svfprintf_r+0x1410>
    3b3c:	f89d 210f 	ldrb.w	r2, [sp, #271]	; 0x10f
    3b40:	2003      	movs	r0, #3
    3b42:	f649 23ac 	movw	r3, #39596	; 0x9aac
    3b46:	f649 21a8 	movw	r1, #39592	; 0x9aa8
    3b4a:	900a      	str	r0, [sp, #40]	; 0x28
    3b4c:	9816      	ldr	r0, [sp, #88]	; 0x58
    3b4e:	f2c0 0100 	movt	r1, #0
    3b52:	f2c0 0300 	movt	r3, #0
    3b56:	2400      	movs	r4, #0
    3b58:	2847      	cmp	r0, #71	; 0x47
    3b5a:	bfd8      	it	le
    3b5c:	460b      	movle	r3, r1
    3b5e:	9908      	ldr	r1, [sp, #32]
    3b60:	9313      	str	r3, [sp, #76]	; 0x4c
    3b62:	2303      	movs	r3, #3
    3b64:	f021 0180 	bic.w	r1, r1, #128	; 0x80
    3b68:	9415      	str	r4, [sp, #84]	; 0x54
    3b6a:	9108      	str	r1, [sp, #32]
    3b6c:	9310      	str	r3, [sp, #64]	; 0x40
    3b6e:	9418      	str	r4, [sp, #96]	; 0x60
    3b70:	e696      	b.n	38a0 <_svfprintf_r+0x318>
    3b72:	9c08      	ldr	r4, [sp, #32]
    3b74:	f044 0408 	orr.w	r4, r4, #8
    3b78:	9408      	str	r4, [sp, #32]
    3b7a:	7813      	ldrb	r3, [r2, #0]
    3b7c:	e571      	b.n	3662 <_svfprintf_r+0xda>
    3b7e:	9908      	ldr	r1, [sp, #32]
    3b80:	9209      	str	r2, [sp, #36]	; 0x24
    3b82:	f041 0110 	orr.w	r1, r1, #16
    3b86:	9108      	str	r1, [sp, #32]
    3b88:	9a08      	ldr	r2, [sp, #32]
    3b8a:	9316      	str	r3, [sp, #88]	; 0x58
    3b8c:	f012 0320 	ands.w	r3, r2, #32
    3b90:	f000 80df 	beq.w	3d52 <_svfprintf_r+0x7ca>
    3b94:	9b12      	ldr	r3, [sp, #72]	; 0x48
    3b96:	1dda      	adds	r2, r3, #7
    3b98:	2300      	movs	r3, #0
    3b9a:	f022 0207 	bic.w	r2, r2, #7
    3b9e:	f102 0408 	add.w	r4, r2, #8
    3ba2:	9412      	str	r4, [sp, #72]	; 0x48
    3ba4:	e9d2 4500 	ldrd	r4, r5, [r2]
    3ba8:	ea54 0005 	orrs.w	r0, r4, r5
    3bac:	bf0c      	ite	eq
    3bae:	2200      	moveq	r2, #0
    3bb0:	2201      	movne	r2, #1
    3bb2:	2000      	movs	r0, #0
    3bb4:	f88d 010f 	strb.w	r0, [sp, #271]	; 0x10f
    3bb8:	e632      	b.n	3820 <_svfprintf_r+0x298>
    3bba:	9c08      	ldr	r4, [sp, #32]
    3bbc:	9209      	str	r2, [sp, #36]	; 0x24
    3bbe:	f044 0410 	orr.w	r4, r4, #16
    3bc2:	9408      	str	r4, [sp, #32]
    3bc4:	9808      	ldr	r0, [sp, #32]
    3bc6:	9316      	str	r3, [sp, #88]	; 0x58
    3bc8:	f010 0f20 	tst.w	r0, #32
    3bcc:	f000 8104 	beq.w	3dd8 <_svfprintf_r+0x850>
    3bd0:	9912      	ldr	r1, [sp, #72]	; 0x48
    3bd2:	2301      	movs	r3, #1
    3bd4:	1dca      	adds	r2, r1, #7
    3bd6:	e7e0      	b.n	3b9a <_svfprintf_r+0x612>
    3bd8:	9209      	str	r2, [sp, #36]	; 0x24
    3bda:	f649 21b8 	movw	r1, #39608	; 0x9ab8
    3bde:	9a08      	ldr	r2, [sp, #32]
    3be0:	f2c0 0100 	movt	r1, #0
    3be4:	9316      	str	r3, [sp, #88]	; 0x58
    3be6:	f012 0f20 	tst.w	r2, #32
    3bea:	9117      	str	r1, [sp, #92]	; 0x5c
    3bec:	f000 8120 	beq.w	3e30 <_svfprintf_r+0x8a8>
    3bf0:	9c12      	ldr	r4, [sp, #72]	; 0x48
    3bf2:	1de3      	adds	r3, r4, #7
    3bf4:	f023 0307 	bic.w	r3, r3, #7
    3bf8:	f103 0008 	add.w	r0, r3, #8
    3bfc:	9012      	str	r0, [sp, #72]	; 0x48
    3bfe:	e9d3 4500 	ldrd	r4, r5, [r3]
    3c02:	ea54 0205 	orrs.w	r2, r4, r5
    3c06:	9b08      	ldr	r3, [sp, #32]
    3c08:	bf0c      	ite	eq
    3c0a:	2200      	moveq	r2, #0
    3c0c:	2201      	movne	r2, #1
    3c0e:	4213      	tst	r3, r2
    3c10:	f000 8369 	beq.w	42e6 <_svfprintf_r+0xd5e>
    3c14:	9816      	ldr	r0, [sp, #88]	; 0x58
    3c16:	2330      	movs	r3, #48	; 0x30
    3c18:	9908      	ldr	r1, [sp, #32]
    3c1a:	2201      	movs	r2, #1
    3c1c:	f88d 310c 	strb.w	r3, [sp, #268]	; 0x10c
    3c20:	2302      	movs	r3, #2
    3c22:	f041 0102 	orr.w	r1, r1, #2
    3c26:	f88d 010d 	strb.w	r0, [sp, #269]	; 0x10d
    3c2a:	9108      	str	r1, [sp, #32]
    3c2c:	e7c1      	b.n	3bb2 <_svfprintf_r+0x62a>
    3c2e:	9808      	ldr	r0, [sp, #32]
    3c30:	f040 0020 	orr.w	r0, r0, #32
    3c34:	9008      	str	r0, [sp, #32]
    3c36:	7813      	ldrb	r3, [r2, #0]
    3c38:	e513      	b.n	3662 <_svfprintf_r+0xda>
    3c3a:	9209      	str	r2, [sp, #36]	; 0x24
    3c3c:	2100      	movs	r1, #0
    3c3e:	9a12      	ldr	r2, [sp, #72]	; 0x48
    3c40:	9316      	str	r3, [sp, #88]	; 0x58
    3c42:	f88d 110f 	strb.w	r1, [sp, #271]	; 0x10f
    3c46:	1d14      	adds	r4, r2, #4
    3c48:	6813      	ldr	r3, [r2, #0]
    3c4a:	9313      	str	r3, [sp, #76]	; 0x4c
    3c4c:	2b00      	cmp	r3, #0
    3c4e:	f000 86fd 	beq.w	4a4c <_svfprintf_r+0x14c4>
    3c52:	2f00      	cmp	r7, #0
    3c54:	f2c0 86a7 	blt.w	49a6 <_svfprintf_r+0x141e>
    3c58:	9813      	ldr	r0, [sp, #76]	; 0x4c
    3c5a:	2100      	movs	r1, #0
    3c5c:	463a      	mov	r2, r7
    3c5e:	f002 fadd 	bl	621c <memchr>
    3c62:	2800      	cmp	r0, #0
    3c64:	f000 874a 	beq.w	4afc <_svfprintf_r+0x1574>
    3c68:	9b13      	ldr	r3, [sp, #76]	; 0x4c
    3c6a:	1ac0      	subs	r0, r0, r3
    3c6c:	9010      	str	r0, [sp, #64]	; 0x40
    3c6e:	42b8      	cmp	r0, r7
    3c70:	f340 84f5 	ble.w	465e <_svfprintf_r+0x10d6>
    3c74:	2000      	movs	r0, #0
    3c76:	ea27 71e7 	bic.w	r1, r7, r7, asr #31
    3c7a:	9015      	str	r0, [sp, #84]	; 0x54
    3c7c:	910a      	str	r1, [sp, #40]	; 0x28
    3c7e:	f89d 210f 	ldrb.w	r2, [sp, #271]	; 0x10f
    3c82:	9412      	str	r4, [sp, #72]	; 0x48
    3c84:	9710      	str	r7, [sp, #64]	; 0x40
    3c86:	9018      	str	r0, [sp, #96]	; 0x60
    3c88:	e60a      	b.n	38a0 <_svfprintf_r+0x318>
    3c8a:	7813      	ldrb	r3, [r2, #0]
    3c8c:	2b6c      	cmp	r3, #108	; 0x6c
    3c8e:	bf0b      	itete	eq
    3c90:	9b08      	ldreq	r3, [sp, #32]
    3c92:	9c08      	ldrne	r4, [sp, #32]
    3c94:	f043 0320 	orreq.w	r3, r3, #32
    3c98:	f044 0410 	orrne.w	r4, r4, #16
    3c9c:	bf0a      	itet	eq
    3c9e:	9308      	streq	r3, [sp, #32]
    3ca0:	9408      	strne	r4, [sp, #32]
    3ca2:	f812 3f01 	ldrbeq.w	r3, [r2, #1]!
    3ca6:	e4dc      	b.n	3662 <_svfprintf_r+0xda>
    3ca8:	9209      	str	r2, [sp, #36]	; 0x24
    3caa:	9316      	str	r3, [sp, #88]	; 0x58
    3cac:	2b00      	cmp	r3, #0
    3cae:	f43f ad4b 	beq.w	3748 <_svfprintf_r+0x1c0>
    3cb2:	2200      	movs	r2, #0
    3cb4:	2101      	movs	r1, #1
    3cb6:	f88d 30bc 	strb.w	r3, [sp, #188]	; 0xbc
    3cba:	ac2f      	add	r4, sp, #188	; 0xbc
    3cbc:	2300      	movs	r3, #0
    3cbe:	910a      	str	r1, [sp, #40]	; 0x28
    3cc0:	9110      	str	r1, [sp, #64]	; 0x40
    3cc2:	f88d 310f 	strb.w	r3, [sp, #271]	; 0x10f
    3cc6:	9215      	str	r2, [sp, #84]	; 0x54
    3cc8:	9218      	str	r2, [sp, #96]	; 0x60
    3cca:	9413      	str	r4, [sp, #76]	; 0x4c
    3ccc:	e5ec      	b.n	38a8 <_svfprintf_r+0x320>
    3cce:	f89d 310f 	ldrb.w	r3, [sp, #271]	; 0x10f
    3cd2:	2b00      	cmp	r3, #0
    3cd4:	f040 839b 	bne.w	440e <_svfprintf_r+0xe86>
    3cd8:	f88d 510f 	strb.w	r5, [sp, #271]	; 0x10f
    3cdc:	7813      	ldrb	r3, [r2, #0]
    3cde:	e4c0      	b.n	3662 <_svfprintf_r+0xda>
    3ce0:	9808      	ldr	r0, [sp, #32]
    3ce2:	f040 0001 	orr.w	r0, r0, #1
    3ce6:	9008      	str	r0, [sp, #32]
    3ce8:	7813      	ldrb	r3, [r2, #0]
    3cea:	e4ba      	b.n	3662 <_svfprintf_r+0xda>
    3cec:	9316      	str	r3, [sp, #88]	; 0x58
    3cee:	9b08      	ldr	r3, [sp, #32]
    3cf0:	9209      	str	r2, [sp, #36]	; 0x24
    3cf2:	f013 0f20 	tst.w	r3, #32
    3cf6:	f47f ad7e 	bne.w	37f6 <_svfprintf_r+0x26e>
    3cfa:	9908      	ldr	r1, [sp, #32]
    3cfc:	f011 0f10 	tst.w	r1, #16
    3d00:	f000 83a4 	beq.w	444c <_svfprintf_r+0xec4>
    3d04:	9a12      	ldr	r2, [sp, #72]	; 0x48
    3d06:	6814      	ldr	r4, [r2, #0]
    3d08:	3204      	adds	r2, #4
    3d0a:	9212      	str	r2, [sp, #72]	; 0x48
    3d0c:	17e5      	asrs	r5, r4, #31
    3d0e:	e57b      	b.n	3808 <_svfprintf_r+0x280>
    3d10:	9808      	ldr	r0, [sp, #32]
    3d12:	f040 0040 	orr.w	r0, r0, #64	; 0x40
    3d16:	9008      	str	r0, [sp, #32]
    3d18:	7813      	ldrb	r3, [r2, #0]
    3d1a:	e4a2      	b.n	3662 <_svfprintf_r+0xda>
    3d1c:	9316      	str	r3, [sp, #88]	; 0x58
    3d1e:	2101      	movs	r1, #1
    3d20:	9b12      	ldr	r3, [sp, #72]	; 0x48
    3d22:	2000      	movs	r0, #0
    3d24:	9209      	str	r2, [sp, #36]	; 0x24
    3d26:	2200      	movs	r2, #0
    3d28:	1d1c      	adds	r4, r3, #4
    3d2a:	910a      	str	r1, [sp, #40]	; 0x28
    3d2c:	681b      	ldr	r3, [r3, #0]
    3d2e:	9412      	str	r4, [sp, #72]	; 0x48
    3d30:	9110      	str	r1, [sp, #64]	; 0x40
    3d32:	a92f      	add	r1, sp, #188	; 0xbc
    3d34:	f88d 010f 	strb.w	r0, [sp, #271]	; 0x10f
    3d38:	9215      	str	r2, [sp, #84]	; 0x54
    3d3a:	9218      	str	r2, [sp, #96]	; 0x60
    3d3c:	9113      	str	r1, [sp, #76]	; 0x4c
    3d3e:	f88d 30bc 	strb.w	r3, [sp, #188]	; 0xbc
    3d42:	e5b1      	b.n	38a8 <_svfprintf_r+0x320>
    3d44:	9209      	str	r2, [sp, #36]	; 0x24
    3d46:	9a08      	ldr	r2, [sp, #32]
    3d48:	9316      	str	r3, [sp, #88]	; 0x58
    3d4a:	f012 0320 	ands.w	r3, r2, #32
    3d4e:	f47f af21 	bne.w	3b94 <_svfprintf_r+0x60c>
    3d52:	9908      	ldr	r1, [sp, #32]
    3d54:	f011 0210 	ands.w	r2, r1, #16
    3d58:	f000 8392 	beq.w	4480 <_svfprintf_r+0xef8>
    3d5c:	9c12      	ldr	r4, [sp, #72]	; 0x48
    3d5e:	6822      	ldr	r2, [r4, #0]
    3d60:	3404      	adds	r4, #4
    3d62:	2500      	movs	r5, #0
    3d64:	9412      	str	r4, [sp, #72]	; 0x48
    3d66:	4614      	mov	r4, r2
    3d68:	3a00      	subs	r2, #0
    3d6a:	bf18      	it	ne
    3d6c:	2201      	movne	r2, #1
    3d6e:	e720      	b.n	3bb2 <_svfprintf_r+0x62a>
    3d70:	9b12      	ldr	r3, [sp, #72]	; 0x48
    3d72:	2178      	movs	r1, #120	; 0x78
    3d74:	9c08      	ldr	r4, [sp, #32]
    3d76:	2500      	movs	r5, #0
    3d78:	9209      	str	r2, [sp, #36]	; 0x24
    3d7a:	f649 20cc 	movw	r0, #39628	; 0x9acc
    3d7e:	681a      	ldr	r2, [r3, #0]
    3d80:	f044 0402 	orr.w	r4, r4, #2
    3d84:	3304      	adds	r3, #4
    3d86:	9408      	str	r4, [sp, #32]
    3d88:	9312      	str	r3, [sp, #72]	; 0x48
    3d8a:	4614      	mov	r4, r2
    3d8c:	2330      	movs	r3, #48	; 0x30
    3d8e:	3a00      	subs	r2, #0
    3d90:	f88d 310c 	strb.w	r3, [sp, #268]	; 0x10c
    3d94:	bf18      	it	ne
    3d96:	2201      	movne	r2, #1
    3d98:	f2c0 0000 	movt	r0, #0
    3d9c:	f88d 110d 	strb.w	r1, [sp, #269]	; 0x10d
    3da0:	9017      	str	r0, [sp, #92]	; 0x5c
    3da2:	2302      	movs	r3, #2
    3da4:	9116      	str	r1, [sp, #88]	; 0x58
    3da6:	e704      	b.n	3bb2 <_svfprintf_r+0x62a>
    3da8:	9908      	ldr	r1, [sp, #32]
    3daa:	9209      	str	r2, [sp, #36]	; 0x24
    3dac:	f011 0f20 	tst.w	r1, #32
    3db0:	f000 8359 	beq.w	4466 <_svfprintf_r+0xede>
    3db4:	9a12      	ldr	r2, [sp, #72]	; 0x48
    3db6:	9c0f      	ldr	r4, [sp, #60]	; 0x3c
    3db8:	9812      	ldr	r0, [sp, #72]	; 0x48
    3dba:	6811      	ldr	r1, [r2, #0]
    3dbc:	4622      	mov	r2, r4
    3dbe:	17e3      	asrs	r3, r4, #31
    3dc0:	3004      	adds	r0, #4
    3dc2:	9012      	str	r0, [sp, #72]	; 0x48
    3dc4:	e9c1 2300 	strd	r2, r3, [r1]
    3dc8:	e407      	b.n	35da <_svfprintf_r+0x52>
    3dca:	9808      	ldr	r0, [sp, #32]
    3dcc:	9209      	str	r2, [sp, #36]	; 0x24
    3dce:	f010 0f20 	tst.w	r0, #32
    3dd2:	9316      	str	r3, [sp, #88]	; 0x58
    3dd4:	f47f aefc 	bne.w	3bd0 <_svfprintf_r+0x648>
    3dd8:	9908      	ldr	r1, [sp, #32]
    3dda:	f011 0f10 	tst.w	r1, #16
    3dde:	f040 8291 	bne.w	4304 <_svfprintf_r+0xd7c>
    3de2:	9808      	ldr	r0, [sp, #32]
    3de4:	f010 0f40 	tst.w	r0, #64	; 0x40
    3de8:	f000 828c 	beq.w	4304 <_svfprintf_r+0xd7c>
    3dec:	9912      	ldr	r1, [sp, #72]	; 0x48
    3dee:	2301      	movs	r3, #1
    3df0:	2500      	movs	r5, #0
    3df2:	880a      	ldrh	r2, [r1, #0]
    3df4:	3104      	adds	r1, #4
    3df6:	9112      	str	r1, [sp, #72]	; 0x48
    3df8:	4614      	mov	r4, r2
    3dfa:	3a00      	subs	r2, #0
    3dfc:	bf18      	it	ne
    3dfe:	2201      	movne	r2, #1
    3e00:	e6d7      	b.n	3bb2 <_svfprintf_r+0x62a>
    3e02:	9b12      	ldr	r3, [sp, #72]	; 0x48
    3e04:	9c12      	ldr	r4, [sp, #72]	; 0x48
    3e06:	681b      	ldr	r3, [r3, #0]
    3e08:	1d20      	adds	r0, r4, #4
    3e0a:	2b00      	cmp	r3, #0
    3e0c:	930d      	str	r3, [sp, #52]	; 0x34
    3e0e:	f6ff ac89 	blt.w	3724 <_svfprintf_r+0x19c>
    3e12:	7813      	ldrb	r3, [r2, #0]
    3e14:	9012      	str	r0, [sp, #72]	; 0x48
    3e16:	e424      	b.n	3662 <_svfprintf_r+0xda>
    3e18:	9209      	str	r2, [sp, #36]	; 0x24
    3e1a:	f649 20cc 	movw	r0, #39628	; 0x9acc
    3e1e:	9a08      	ldr	r2, [sp, #32]
    3e20:	f2c0 0000 	movt	r0, #0
    3e24:	9316      	str	r3, [sp, #88]	; 0x58
    3e26:	f012 0f20 	tst.w	r2, #32
    3e2a:	9017      	str	r0, [sp, #92]	; 0x5c
    3e2c:	f47f aee0 	bne.w	3bf0 <_svfprintf_r+0x668>
    3e30:	9908      	ldr	r1, [sp, #32]
    3e32:	f011 0f10 	tst.w	r1, #16
    3e36:	f000 82fa 	beq.w	442e <_svfprintf_r+0xea6>
    3e3a:	9a12      	ldr	r2, [sp, #72]	; 0x48
    3e3c:	2500      	movs	r5, #0
    3e3e:	6814      	ldr	r4, [r2, #0]
    3e40:	3204      	adds	r2, #4
    3e42:	9212      	str	r2, [sp, #72]	; 0x48
    3e44:	e6dd      	b.n	3c02 <_svfprintf_r+0x67a>
    3e46:	9811      	ldr	r0, [sp, #68]	; 0x44
    3e48:	aa39      	add	r2, sp, #228	; 0xe4
    3e4a:	990c      	ldr	r1, [sp, #48]	; 0x30
    3e4c:	f003 f8b0 	bl	6fb0 <__ssprint_r>
    3e50:	2800      	cmp	r0, #0
    3e52:	f47f ac80 	bne.w	3756 <_svfprintf_r+0x1ce>
    3e56:	f89d 210f 	ldrb.w	r2, [sp, #271]	; 0x10f
    3e5a:	4656      	mov	r6, sl
    3e5c:	9d3b      	ldr	r5, [sp, #236]	; 0xec
    3e5e:	e577      	b.n	3950 <_svfprintf_r+0x3c8>
    3e60:	9a08      	ldr	r2, [sp, #32]
    3e62:	f012 0f01 	tst.w	r2, #1
    3e66:	f040 80fd 	bne.w	4064 <_svfprintf_r+0xadc>
    3e6a:	9c3a      	ldr	r4, [sp, #232]	; 0xe8
    3e6c:	3501      	adds	r5, #1
    3e6e:	9a13      	ldr	r2, [sp, #76]	; 0x4c
    3e70:	2301      	movs	r3, #1
    3e72:	3401      	adds	r4, #1
    3e74:	f8c9 3004 	str.w	r3, [r9, #4]
    3e78:	2c07      	cmp	r4, #7
    3e7a:	f8c9 2000 	str.w	r2, [r9]
    3e7e:	953b      	str	r5, [sp, #236]	; 0xec
    3e80:	943a      	str	r4, [sp, #232]	; 0xe8
    3e82:	f300 8533 	bgt.w	48ec <_svfprintf_r+0x1364>
    3e86:	f109 0b08 	add.w	fp, r9, #8
    3e8a:	f10b 0908 	add.w	r9, fp, #8
    3e8e:	9b1d      	ldr	r3, [sp, #116]	; 0x74
    3e90:	3401      	adds	r4, #1
    3e92:	2c07      	cmp	r4, #7
    3e94:	441d      	add	r5, r3
    3e96:	f8cb 3004 	str.w	r3, [fp, #4]
    3e9a:	ab3e      	add	r3, sp, #248	; 0xf8
    3e9c:	f8cb 3000 	str.w	r3, [fp]
    3ea0:	953b      	str	r5, [sp, #236]	; 0xec
    3ea2:	943a      	str	r4, [sp, #232]	; 0xe8
    3ea4:	f77f adcd 	ble.w	3a42 <_svfprintf_r+0x4ba>
    3ea8:	9811      	ldr	r0, [sp, #68]	; 0x44
    3eaa:	aa39      	add	r2, sp, #228	; 0xe4
    3eac:	990c      	ldr	r1, [sp, #48]	; 0x30
    3eae:	f003 f87f 	bl	6fb0 <__ssprint_r>
    3eb2:	2800      	cmp	r0, #0
    3eb4:	f47f ac4f 	bne.w	3756 <_svfprintf_r+0x1ce>
    3eb8:	46d1      	mov	r9, sl
    3eba:	9d3b      	ldr	r5, [sp, #236]	; 0xec
    3ebc:	e5c1      	b.n	3a42 <_svfprintf_r+0x4ba>
    3ebe:	9916      	ldr	r1, [sp, #88]	; 0x58
    3ec0:	2965      	cmp	r1, #101	; 0x65
    3ec2:	f340 80cb 	ble.w	405c <_svfprintf_r+0xad4>
    3ec6:	981a      	ldr	r0, [sp, #104]	; 0x68
    3ec8:	2200      	movs	r2, #0
    3eca:	2300      	movs	r3, #0
    3ecc:	991b      	ldr	r1, [sp, #108]	; 0x6c
    3ece:	f004 ffc5 	bl	8e5c <__aeabi_dcmpeq>
    3ed2:	2800      	cmp	r0, #0
    3ed4:	f000 813e 	beq.w	4154 <_svfprintf_r+0xbcc>
    3ed8:	9c3a      	ldr	r4, [sp, #232]	; 0xe8
    3eda:	f649 23e8 	movw	r3, #39656	; 0x9ae8
    3ede:	f2c0 0300 	movt	r3, #0
    3ee2:	f8c9 3000 	str.w	r3, [r9]
    3ee6:	3401      	adds	r4, #1
    3ee8:	2301      	movs	r3, #1
    3eea:	2c07      	cmp	r4, #7
    3eec:	f8c9 3004 	str.w	r3, [r9, #4]
    3ef0:	441d      	add	r5, r3
    3ef2:	943a      	str	r4, [sp, #232]	; 0xe8
    3ef4:	953b      	str	r5, [sp, #236]	; 0xec
    3ef6:	bfd8      	it	le
    3ef8:	f109 0908 	addle.w	r9, r9, #8
    3efc:	f300 8347 	bgt.w	458e <_svfprintf_r+0x1006>
    3f00:	9b42      	ldr	r3, [sp, #264]	; 0x108
    3f02:	9a0e      	ldr	r2, [sp, #56]	; 0x38
    3f04:	4293      	cmp	r3, r2
    3f06:	db04      	blt.n	3f12 <_svfprintf_r+0x98a>
    3f08:	9b08      	ldr	r3, [sp, #32]
    3f0a:	f013 0f01 	tst.w	r3, #1
    3f0e:	f43f ad98 	beq.w	3a42 <_svfprintf_r+0x4ba>
    3f12:	9c3a      	ldr	r4, [sp, #232]	; 0xe8
    3f14:	981c      	ldr	r0, [sp, #112]	; 0x70
    3f16:	3401      	adds	r4, #1
    3f18:	9919      	ldr	r1, [sp, #100]	; 0x64
    3f1a:	2c07      	cmp	r4, #7
    3f1c:	4405      	add	r5, r0
    3f1e:	f8c9 0004 	str.w	r0, [r9, #4]
    3f22:	bfd8      	it	le
    3f24:	f109 0308 	addle.w	r3, r9, #8
    3f28:	f8c9 1000 	str.w	r1, [r9]
    3f2c:	953b      	str	r5, [sp, #236]	; 0xec
    3f2e:	943a      	str	r4, [sp, #232]	; 0xe8
    3f30:	f300 83bd 	bgt.w	46ae <_svfprintf_r+0x1126>
    3f34:	9a0e      	ldr	r2, [sp, #56]	; 0x38
    3f36:	1e56      	subs	r6, r2, #1
    3f38:	2e00      	cmp	r6, #0
    3f3a:	f340 831e 	ble.w	457a <_svfprintf_r+0xff2>
    3f3e:	2e10      	cmp	r6, #16
    3f40:	f340 8601 	ble.w	4b46 <_svfprintf_r+0x15be>
    3f44:	9c3a      	ldr	r4, [sp, #232]	; 0xe8
    3f46:	2710      	movs	r7, #16
    3f48:	f8df 84fc 	ldr.w	r8, [pc, #1276]	; 4448 <_svfprintf_r+0xec0>
    3f4c:	4622      	mov	r2, r4
    3f4e:	f8dd b030 	ldr.w	fp, [sp, #48]	; 0x30
    3f52:	4644      	mov	r4, r8
    3f54:	f8dd 8044 	ldr.w	r8, [sp, #68]	; 0x44
    3f58:	e003      	b.n	3f62 <_svfprintf_r+0x9da>
    3f5a:	3e10      	subs	r6, #16
    3f5c:	2e10      	cmp	r6, #16
    3f5e:	f340 81c4 	ble.w	42ea <_svfprintf_r+0xd62>
    3f62:	3201      	adds	r2, #1
    3f64:	601c      	str	r4, [r3, #0]
    3f66:	605f      	str	r7, [r3, #4]
    3f68:	3510      	adds	r5, #16
    3f6a:	3308      	adds	r3, #8
    3f6c:	2a07      	cmp	r2, #7
    3f6e:	923a      	str	r2, [sp, #232]	; 0xe8
    3f70:	f103 0908 	add.w	r9, r3, #8
    3f74:	953b      	str	r5, [sp, #236]	; 0xec
    3f76:	ddf0      	ble.n	3f5a <_svfprintf_r+0x9d2>
    3f78:	4640      	mov	r0, r8
    3f7a:	4659      	mov	r1, fp
    3f7c:	aa39      	add	r2, sp, #228	; 0xe4
    3f7e:	f10a 0908 	add.w	r9, sl, #8
    3f82:	f003 f815 	bl	6fb0 <__ssprint_r>
    3f86:	4653      	mov	r3, sl
    3f88:	2800      	cmp	r0, #0
    3f8a:	f47f abe4 	bne.w	3756 <_svfprintf_r+0x1ce>
    3f8e:	9d3b      	ldr	r5, [sp, #236]	; 0xec
    3f90:	9a3a      	ldr	r2, [sp, #232]	; 0xe8
    3f92:	e7e2      	b.n	3f5a <_svfprintf_r+0x9d2>
    3f94:	2b00      	cmp	r3, #0
    3f96:	f040 80b7 	bne.w	4108 <_svfprintf_r+0xb80>
    3f9a:	9c08      	ldr	r4, [sp, #32]
    3f9c:	f014 0f01 	tst.w	r4, #1
    3fa0:	f000 812b 	beq.w	41fa <_svfprintf_r+0xc72>
    3fa4:	2001      	movs	r0, #1
    3fa6:	2330      	movs	r3, #48	; 0x30
    3fa8:	f10d 01e3 	add.w	r1, sp, #227	; 0xe3
    3fac:	9010      	str	r0, [sp, #64]	; 0x40
    3fae:	f88d 30e3 	strb.w	r3, [sp, #227]	; 0xe3
    3fb2:	9113      	str	r1, [sp, #76]	; 0x4c
    3fb4:	e46a      	b.n	388c <_svfprintf_r+0x304>
    3fb6:	9b0d      	ldr	r3, [sp, #52]	; 0x34
    3fb8:	9c0a      	ldr	r4, [sp, #40]	; 0x28
    3fba:	1b1f      	subs	r7, r3, r4
    3fbc:	2f00      	cmp	r7, #0
    3fbe:	f77f acea 	ble.w	3996 <_svfprintf_r+0x40e>
    3fc2:	2f10      	cmp	r7, #16
    3fc4:	f340 8588 	ble.w	4ad8 <_svfprintf_r+0x1550>
    3fc8:	9c3a      	ldr	r4, [sp, #232]	; 0xe8
    3fca:	4633      	mov	r3, r6
    3fcc:	f8df 8478 	ldr.w	r8, [pc, #1144]	; 4448 <_svfprintf_r+0xec0>
    3fd0:	f04f 0910 	mov.w	r9, #16
    3fd4:	4622      	mov	r2, r4
    3fd6:	f8dd b030 	ldr.w	fp, [sp, #48]	; 0x30
    3fda:	4644      	mov	r4, r8
    3fdc:	f8dd 8044 	ldr.w	r8, [sp, #68]	; 0x44
    3fe0:	e002      	b.n	3fe8 <_svfprintf_r+0xa60>
    3fe2:	3f10      	subs	r7, #16
    3fe4:	2f10      	cmp	r7, #16
    3fe6:	dd1b      	ble.n	4020 <_svfprintf_r+0xa98>
    3fe8:	3201      	adds	r2, #1
    3fea:	601c      	str	r4, [r3, #0]
    3fec:	f8c3 9004 	str.w	r9, [r3, #4]
    3ff0:	3510      	adds	r5, #16
    3ff2:	3308      	adds	r3, #8
    3ff4:	2a07      	cmp	r2, #7
    3ff6:	923a      	str	r2, [sp, #232]	; 0xe8
    3ff8:	f103 0608 	add.w	r6, r3, #8
    3ffc:	953b      	str	r5, [sp, #236]	; 0xec
    3ffe:	ddf0      	ble.n	3fe2 <_svfprintf_r+0xa5a>
    4000:	4640      	mov	r0, r8
    4002:	4659      	mov	r1, fp
    4004:	aa39      	add	r2, sp, #228	; 0xe4
    4006:	f10a 0608 	add.w	r6, sl, #8
    400a:	f002 ffd1 	bl	6fb0 <__ssprint_r>
    400e:	4653      	mov	r3, sl
    4010:	2800      	cmp	r0, #0
    4012:	f47f aba0 	bne.w	3756 <_svfprintf_r+0x1ce>
    4016:	3f10      	subs	r7, #16
    4018:	9d3b      	ldr	r5, [sp, #236]	; 0xec
    401a:	2f10      	cmp	r7, #16
    401c:	9a3a      	ldr	r2, [sp, #232]	; 0xe8
    401e:	dce3      	bgt.n	3fe8 <_svfprintf_r+0xa60>
    4020:	46a0      	mov	r8, r4
    4022:	4614      	mov	r4, r2
    4024:	3401      	adds	r4, #1
    4026:	f8c3 8000 	str.w	r8, [r3]
    402a:	2c07      	cmp	r4, #7
    402c:	605f      	str	r7, [r3, #4]
    402e:	443d      	add	r5, r7
    4030:	943a      	str	r4, [sp, #232]	; 0xe8
    4032:	953b      	str	r5, [sp, #236]	; 0xec
    4034:	f77f acaf 	ble.w	3996 <_svfprintf_r+0x40e>
    4038:	9811      	ldr	r0, [sp, #68]	; 0x44
    403a:	aa39      	add	r2, sp, #228	; 0xe4
    403c:	990c      	ldr	r1, [sp, #48]	; 0x30
    403e:	f002 ffb7 	bl	6fb0 <__ssprint_r>
    4042:	2800      	cmp	r0, #0
    4044:	f47f ab87 	bne.w	3756 <_svfprintf_r+0x1ce>
    4048:	9915      	ldr	r1, [sp, #84]	; 0x54
    404a:	4656      	mov	r6, sl
    404c:	9810      	ldr	r0, [sp, #64]	; 0x40
    404e:	9d3b      	ldr	r5, [sp, #236]	; 0xec
    4050:	1a0f      	subs	r7, r1, r0
    4052:	2f00      	cmp	r7, #0
    4054:	f73f aca5 	bgt.w	39a2 <_svfprintf_r+0x41a>
    4058:	46b1      	mov	r9, r6
    405a:	e4dd      	b.n	3a18 <_svfprintf_r+0x490>
    405c:	990e      	ldr	r1, [sp, #56]	; 0x38
    405e:	2901      	cmp	r1, #1
    4060:	f77f aefe 	ble.w	3e60 <_svfprintf_r+0x8d8>
    4064:	9c3a      	ldr	r4, [sp, #232]	; 0xe8
    4066:	3501      	adds	r5, #1
    4068:	9b13      	ldr	r3, [sp, #76]	; 0x4c
    406a:	3401      	adds	r4, #1
    406c:	f8c9 3000 	str.w	r3, [r9]
    4070:	2301      	movs	r3, #1
    4072:	2c07      	cmp	r4, #7
    4074:	f8c9 3004 	str.w	r3, [r9, #4]
    4078:	bfd8      	it	le
    407a:	f109 0908 	addle.w	r9, r9, #8
    407e:	953b      	str	r5, [sp, #236]	; 0xec
    4080:	943a      	str	r4, [sp, #232]	; 0xe8
    4082:	bfd8      	it	le
    4084:	f109 0608 	addle.w	r6, r9, #8
    4088:	f300 8141 	bgt.w	430e <_svfprintf_r+0xd86>
    408c:	3401      	adds	r4, #1
    408e:	991c      	ldr	r1, [sp, #112]	; 0x70
    4090:	9819      	ldr	r0, [sp, #100]	; 0x64
    4092:	2c07      	cmp	r4, #7
    4094:	440d      	add	r5, r1
    4096:	bfd8      	it	le
    4098:	f106 0b08 	addle.w	fp, r6, #8
    409c:	f8c9 1004 	str.w	r1, [r9, #4]
    40a0:	f8c9 0000 	str.w	r0, [r9]
    40a4:	943a      	str	r4, [sp, #232]	; 0xe8
    40a6:	953b      	str	r5, [sp, #236]	; 0xec
    40a8:	f300 813f 	bgt.w	432a <_svfprintf_r+0xda2>
    40ac:	981a      	ldr	r0, [sp, #104]	; 0x68
    40ae:	2200      	movs	r2, #0
    40b0:	2300      	movs	r3, #0
    40b2:	991b      	ldr	r1, [sp, #108]	; 0x6c
    40b4:	f004 fed2 	bl	8e5c <__aeabi_dcmpeq>
    40b8:	2800      	cmp	r0, #0
    40ba:	f040 80ce 	bne.w	425a <_svfprintf_r+0xcd2>
    40be:	9b0e      	ldr	r3, [sp, #56]	; 0x38
    40c0:	3401      	adds	r4, #1
    40c2:	9813      	ldr	r0, [sp, #76]	; 0x4c
    40c4:	1e5a      	subs	r2, r3, #1
    40c6:	6072      	str	r2, [r6, #4]
    40c8:	1c43      	adds	r3, r0, #1
    40ca:	2c07      	cmp	r4, #7
    40cc:	6033      	str	r3, [r6, #0]
    40ce:	4415      	add	r5, r2
    40d0:	943a      	str	r4, [sp, #232]	; 0xe8
    40d2:	953b      	str	r5, [sp, #236]	; 0xec
    40d4:	f77f aed9 	ble.w	3e8a <_svfprintf_r+0x902>
    40d8:	9811      	ldr	r0, [sp, #68]	; 0x44
    40da:	aa39      	add	r2, sp, #228	; 0xe4
    40dc:	990c      	ldr	r1, [sp, #48]	; 0x30
    40de:	f002 ff67 	bl	6fb0 <__ssprint_r>
    40e2:	2800      	cmp	r0, #0
    40e4:	f47f ab37 	bne.w	3756 <_svfprintf_r+0x1ce>
    40e8:	f10a 0908 	add.w	r9, sl, #8
    40ec:	46d3      	mov	fp, sl
    40ee:	9d3b      	ldr	r5, [sp, #236]	; 0xec
    40f0:	9c3a      	ldr	r4, [sp, #232]	; 0xe8
    40f2:	e6cc      	b.n	3e8e <_svfprintf_r+0x906>
    40f4:	9811      	ldr	r0, [sp, #68]	; 0x44
    40f6:	aa39      	add	r2, sp, #228	; 0xe4
    40f8:	990c      	ldr	r1, [sp, #48]	; 0x30
    40fa:	f002 ff59 	bl	6fb0 <__ssprint_r>
    40fe:	2800      	cmp	r0, #0
    4100:	f43f acf5 	beq.w	3aee <_svfprintf_r+0x566>
    4104:	f7ff bb27 	b.w	3756 <_svfprintf_r+0x1ce>
    4108:	9210      	str	r2, [sp, #64]	; 0x40
    410a:	aa39      	add	r2, sp, #228	; 0xe4
    410c:	9213      	str	r2, [sp, #76]	; 0x4c
    410e:	f7ff bbbd 	b.w	388c <_svfprintf_r+0x304>
    4112:	9811      	ldr	r0, [sp, #68]	; 0x44
    4114:	aa39      	add	r2, sp, #228	; 0xe4
    4116:	990c      	ldr	r1, [sp, #48]	; 0x30
    4118:	f002 ff4a 	bl	6fb0 <__ssprint_r>
    411c:	2800      	cmp	r0, #0
    411e:	f47f ab1a 	bne.w	3756 <_svfprintf_r+0x1ce>
    4122:	46d1      	mov	r9, sl
    4124:	9d3b      	ldr	r5, [sp, #236]	; 0xec
    4126:	e477      	b.n	3a18 <_svfprintf_r+0x490>
    4128:	9811      	ldr	r0, [sp, #68]	; 0x44
    412a:	aa39      	add	r2, sp, #228	; 0xe4
    412c:	990c      	ldr	r1, [sp, #48]	; 0x30
    412e:	f002 ff3f 	bl	6fb0 <__ssprint_r>
    4132:	2800      	cmp	r0, #0
    4134:	f47f ab0f 	bne.w	3756 <_svfprintf_r+0x1ce>
    4138:	9d3b      	ldr	r5, [sp, #236]	; 0xec
    413a:	4656      	mov	r6, sl
    413c:	e427      	b.n	398e <_svfprintf_r+0x406>
    413e:	9811      	ldr	r0, [sp, #68]	; 0x44
    4140:	aa39      	add	r2, sp, #228	; 0xe4
    4142:	990c      	ldr	r1, [sp, #48]	; 0x30
    4144:	f002 ff34 	bl	6fb0 <__ssprint_r>
    4148:	2800      	cmp	r0, #0
    414a:	f47f ab04 	bne.w	3756 <_svfprintf_r+0x1ce>
    414e:	9d3b      	ldr	r5, [sp, #236]	; 0xec
    4150:	4656      	mov	r6, sl
    4152:	e40c      	b.n	396e <_svfprintf_r+0x3e6>
    4154:	9e42      	ldr	r6, [sp, #264]	; 0x108
    4156:	2e00      	cmp	r6, #0
    4158:	f340 8224 	ble.w	45a4 <_svfprintf_r+0x101c>
    415c:	9e0e      	ldr	r6, [sp, #56]	; 0x38
    415e:	9c18      	ldr	r4, [sp, #96]	; 0x60
    4160:	9813      	ldr	r0, [sp, #76]	; 0x4c
    4162:	42a6      	cmp	r6, r4
    4164:	bfa8      	it	ge
    4166:	4626      	movge	r6, r4
    4168:	990e      	ldr	r1, [sp, #56]	; 0x38
    416a:	2e00      	cmp	r6, #0
    416c:	eb00 0b01 	add.w	fp, r0, r1
    4170:	dd0e      	ble.n	4190 <_svfprintf_r+0xc08>
    4172:	9c3a      	ldr	r4, [sp, #232]	; 0xe8
    4174:	19ad      	adds	r5, r5, r6
    4176:	f8c9 0000 	str.w	r0, [r9]
    417a:	3401      	adds	r4, #1
    417c:	f8c9 6004 	str.w	r6, [r9, #4]
    4180:	2c07      	cmp	r4, #7
    4182:	953b      	str	r5, [sp, #236]	; 0xec
    4184:	943a      	str	r4, [sp, #232]	; 0xe8
    4186:	bfd8      	it	le
    4188:	f109 0908 	addle.w	r9, r9, #8
    418c:	f300 8425 	bgt.w	49da <_svfprintf_r+0x1452>
    4190:	9a18      	ldr	r2, [sp, #96]	; 0x60
    4192:	ea26 76e6 	bic.w	r6, r6, r6, asr #31
    4196:	1b96      	subs	r6, r2, r6
    4198:	2e00      	cmp	r6, #0
    419a:	f340 8402 	ble.w	49a2 <_svfprintf_r+0x141a>
    419e:	2e10      	cmp	r6, #16
    41a0:	f340 84f6 	ble.w	4b90 <_svfprintf_r+0x1608>
    41a4:	9c3a      	ldr	r4, [sp, #232]	; 0xe8
    41a6:	4629      	mov	r1, r5
    41a8:	f8df 829c 	ldr.w	r8, [pc, #668]	; 4448 <_svfprintf_r+0xec0>
    41ac:	2710      	movs	r7, #16
    41ae:	4622      	mov	r2, r4
    41b0:	9d0c      	ldr	r5, [sp, #48]	; 0x30
    41b2:	4644      	mov	r4, r8
    41b4:	f8dd 8044 	ldr.w	r8, [sp, #68]	; 0x44
    41b8:	e003      	b.n	41c2 <_svfprintf_r+0xc3a>
    41ba:	3e10      	subs	r6, #16
    41bc:	2e10      	cmp	r6, #16
    41be:	f340 8171 	ble.w	44a4 <_svfprintf_r+0xf1c>
    41c2:	3201      	adds	r2, #1
    41c4:	3110      	adds	r1, #16
    41c6:	2a07      	cmp	r2, #7
    41c8:	f8c9 4000 	str.w	r4, [r9]
    41cc:	f8c9 7004 	str.w	r7, [r9, #4]
    41d0:	f109 0908 	add.w	r9, r9, #8
    41d4:	923a      	str	r2, [sp, #232]	; 0xe8
    41d6:	f109 0308 	add.w	r3, r9, #8
    41da:	913b      	str	r1, [sp, #236]	; 0xec
    41dc:	dded      	ble.n	41ba <_svfprintf_r+0xc32>
    41de:	4640      	mov	r0, r8
    41e0:	4629      	mov	r1, r5
    41e2:	aa39      	add	r2, sp, #228	; 0xe4
    41e4:	46d1      	mov	r9, sl
    41e6:	f002 fee3 	bl	6fb0 <__ssprint_r>
    41ea:	f10a 0308 	add.w	r3, sl, #8
    41ee:	2800      	cmp	r0, #0
    41f0:	f47f aab1 	bne.w	3756 <_svfprintf_r+0x1ce>
    41f4:	993b      	ldr	r1, [sp, #236]	; 0xec
    41f6:	9a3a      	ldr	r2, [sp, #232]	; 0xe8
    41f8:	e7df      	b.n	41ba <_svfprintf_r+0xc32>
    41fa:	9310      	str	r3, [sp, #64]	; 0x40
    41fc:	ab39      	add	r3, sp, #228	; 0xe4
    41fe:	9313      	str	r3, [sp, #76]	; 0x4c
    4200:	f7ff bb44 	b.w	388c <_svfprintf_r+0x304>
    4204:	f10d 0bbc 	add.w	fp, sp, #188	; 0xbc
    4208:	9917      	ldr	r1, [sp, #92]	; 0x5c
    420a:	f10b 0027 	add.w	r0, fp, #39	; 0x27
    420e:	f004 020f 	and.w	r2, r4, #15
    4212:	0923      	lsrs	r3, r4, #4
    4214:	ea43 7305 	orr.w	r3, r3, r5, lsl #28
    4218:	ea4f 1c15 	mov.w	ip, r5, lsr #4
    421c:	5c8a      	ldrb	r2, [r1, r2]
    421e:	461c      	mov	r4, r3
    4220:	4603      	mov	r3, r0
    4222:	4665      	mov	r5, ip
    4224:	3801      	subs	r0, #1
    4226:	701a      	strb	r2, [r3, #0]
    4228:	ea54 0205 	orrs.w	r2, r4, r5
    422c:	d1ef      	bne.n	420e <_svfprintf_r+0xc86>
    422e:	f10b 0b28 	add.w	fp, fp, #40	; 0x28
    4232:	9313      	str	r3, [sp, #76]	; 0x4c
    4234:	ebc3 030b 	rsb	r3, r3, fp
    4238:	9310      	str	r3, [sp, #64]	; 0x40
    423a:	f7ff bb27 	b.w	388c <_svfprintf_r+0x304>
    423e:	2c0a      	cmp	r4, #10
    4240:	f175 0100 	sbcs.w	r1, r5, #0
    4244:	d27f      	bcs.n	4346 <_svfprintf_r+0xdbe>
    4246:	3430      	adds	r4, #48	; 0x30
    4248:	2201      	movs	r2, #1
    424a:	f10d 03e3 	add.w	r3, sp, #227	; 0xe3
    424e:	9210      	str	r2, [sp, #64]	; 0x40
    4250:	f88d 40e3 	strb.w	r4, [sp, #227]	; 0xe3
    4254:	9313      	str	r3, [sp, #76]	; 0x4c
    4256:	f7ff bb19 	b.w	388c <_svfprintf_r+0x304>
    425a:	990e      	ldr	r1, [sp, #56]	; 0x38
    425c:	1e4f      	subs	r7, r1, #1
    425e:	2f00      	cmp	r7, #0
    4260:	bfdc      	itt	le
    4262:	f106 0908 	addle.w	r9, r6, #8
    4266:	46b3      	movle	fp, r6
    4268:	f77f ae11 	ble.w	3e8e <_svfprintf_r+0x906>
    426c:	2f10      	cmp	r7, #16
    426e:	bfd8      	it	le
    4270:	f8df 81d4 	ldrle.w	r8, [pc, #468]	; 4448 <_svfprintf_r+0xec0>
    4274:	dd2c      	ble.n	42d0 <_svfprintf_r+0xd48>
    4276:	f8df 81d0 	ldr.w	r8, [pc, #464]	; 4448 <_svfprintf_r+0xec0>
    427a:	4623      	mov	r3, r4
    427c:	462a      	mov	r2, r5
    427e:	f04f 0910 	mov.w	r9, #16
    4282:	4644      	mov	r4, r8
    4284:	9d0c      	ldr	r5, [sp, #48]	; 0x30
    4286:	f8dd 8044 	ldr.w	r8, [sp, #68]	; 0x44
    428a:	e002      	b.n	4292 <_svfprintf_r+0xd0a>
    428c:	3f10      	subs	r7, #16
    428e:	2f10      	cmp	r7, #16
    4290:	dd1b      	ble.n	42ca <_svfprintf_r+0xd42>
    4292:	3301      	adds	r3, #1
    4294:	6034      	str	r4, [r6, #0]
    4296:	f8c6 9004 	str.w	r9, [r6, #4]
    429a:	3210      	adds	r2, #16
    429c:	3608      	adds	r6, #8
    429e:	2b07      	cmp	r3, #7
    42a0:	933a      	str	r3, [sp, #232]	; 0xe8
    42a2:	f106 0b08 	add.w	fp, r6, #8
    42a6:	923b      	str	r2, [sp, #236]	; 0xec
    42a8:	ddf0      	ble.n	428c <_svfprintf_r+0xd04>
    42aa:	4640      	mov	r0, r8
    42ac:	4629      	mov	r1, r5
    42ae:	aa39      	add	r2, sp, #228	; 0xe4
    42b0:	f10a 0b08 	add.w	fp, sl, #8
    42b4:	f002 fe7c 	bl	6fb0 <__ssprint_r>
    42b8:	4656      	mov	r6, sl
    42ba:	2800      	cmp	r0, #0
    42bc:	f47f aa4b 	bne.w	3756 <_svfprintf_r+0x1ce>
    42c0:	3f10      	subs	r7, #16
    42c2:	9a3b      	ldr	r2, [sp, #236]	; 0xec
    42c4:	2f10      	cmp	r7, #16
    42c6:	9b3a      	ldr	r3, [sp, #232]	; 0xe8
    42c8:	dce3      	bgt.n	4292 <_svfprintf_r+0xd0a>
    42ca:	46a0      	mov	r8, r4
    42cc:	4615      	mov	r5, r2
    42ce:	461c      	mov	r4, r3
    42d0:	3401      	adds	r4, #1
    42d2:	f8c6 8000 	str.w	r8, [r6]
    42d6:	2c07      	cmp	r4, #7
    42d8:	6077      	str	r7, [r6, #4]
    42da:	443d      	add	r5, r7
    42dc:	943a      	str	r4, [sp, #232]	; 0xe8
    42de:	953b      	str	r5, [sp, #236]	; 0xec
    42e0:	f77f add3 	ble.w	3e8a <_svfprintf_r+0x902>
    42e4:	e6f8      	b.n	40d8 <_svfprintf_r+0xb50>
    42e6:	2302      	movs	r3, #2
    42e8:	e463      	b.n	3bb2 <_svfprintf_r+0x62a>
    42ea:	46a0      	mov	r8, r4
    42ec:	4614      	mov	r4, r2
    42ee:	3401      	adds	r4, #1
    42f0:	f8c3 8000 	str.w	r8, [r3]
    42f4:	2c07      	cmp	r4, #7
    42f6:	605e      	str	r6, [r3, #4]
    42f8:	4435      	add	r5, r6
    42fa:	943a      	str	r4, [sp, #232]	; 0xe8
    42fc:	953b      	str	r5, [sp, #236]	; 0xec
    42fe:	f77f aba0 	ble.w	3a42 <_svfprintf_r+0x4ba>
    4302:	e5d1      	b.n	3ea8 <_svfprintf_r+0x920>
    4304:	9b12      	ldr	r3, [sp, #72]	; 0x48
    4306:	9c12      	ldr	r4, [sp, #72]	; 0x48
    4308:	681a      	ldr	r2, [r3, #0]
    430a:	2301      	movs	r3, #1
    430c:	e528      	b.n	3d60 <_svfprintf_r+0x7d8>
    430e:	9811      	ldr	r0, [sp, #68]	; 0x44
    4310:	aa39      	add	r2, sp, #228	; 0xe4
    4312:	990c      	ldr	r1, [sp, #48]	; 0x30
    4314:	f002 fe4c 	bl	6fb0 <__ssprint_r>
    4318:	2800      	cmp	r0, #0
    431a:	f47f aa1c 	bne.w	3756 <_svfprintf_r+0x1ce>
    431e:	9d3b      	ldr	r5, [sp, #236]	; 0xec
    4320:	f10a 0608 	add.w	r6, sl, #8
    4324:	9c3a      	ldr	r4, [sp, #232]	; 0xe8
    4326:	46d1      	mov	r9, sl
    4328:	e6b0      	b.n	408c <_svfprintf_r+0xb04>
    432a:	9811      	ldr	r0, [sp, #68]	; 0x44
    432c:	aa39      	add	r2, sp, #228	; 0xe4
    432e:	990c      	ldr	r1, [sp, #48]	; 0x30
    4330:	f002 fe3e 	bl	6fb0 <__ssprint_r>
    4334:	2800      	cmp	r0, #0
    4336:	f47f aa0e 	bne.w	3756 <_svfprintf_r+0x1ce>
    433a:	9d3b      	ldr	r5, [sp, #236]	; 0xec
    433c:	f10a 0b08 	add.w	fp, sl, #8
    4340:	9c3a      	ldr	r4, [sp, #232]	; 0xe8
    4342:	4656      	mov	r6, sl
    4344:	e6b2      	b.n	40ac <_svfprintf_r+0xb24>
    4346:	f10d 0bbc 	add.w	fp, sp, #188	; 0xbc
    434a:	46b1      	mov	r9, r6
    434c:	f10b 0827 	add.w	r8, fp, #39	; 0x27
    4350:	4620      	mov	r0, r4
    4352:	4629      	mov	r1, r5
    4354:	220a      	movs	r2, #10
    4356:	2300      	movs	r3, #0
    4358:	f004 fdda 	bl	8f10 <__aeabi_uldivmod>
    435c:	4646      	mov	r6, r8
    435e:	4620      	mov	r0, r4
    4360:	4629      	mov	r1, r5
    4362:	2300      	movs	r3, #0
    4364:	f108 38ff 	add.w	r8, r8, #4294967295
    4368:	f102 0430 	add.w	r4, r2, #48	; 0x30
    436c:	220a      	movs	r2, #10
    436e:	7034      	strb	r4, [r6, #0]
    4370:	f004 fdce 	bl	8f10 <__aeabi_uldivmod>
    4374:	4604      	mov	r4, r0
    4376:	460d      	mov	r5, r1
    4378:	ea54 0005 	orrs.w	r0, r4, r5
    437c:	d1e8      	bne.n	4350 <_svfprintf_r+0xdc8>
    437e:	9613      	str	r6, [sp, #76]	; 0x4c
    4380:	f10b 0b28 	add.w	fp, fp, #40	; 0x28
    4384:	9913      	ldr	r1, [sp, #76]	; 0x4c
    4386:	464e      	mov	r6, r9
    4388:	ebc1 010b 	rsb	r1, r1, fp
    438c:	9110      	str	r1, [sp, #64]	; 0x40
    438e:	f7ff ba7d 	b.w	388c <_svfprintf_r+0x304>
    4392:	2a30      	cmp	r2, #48	; 0x30
    4394:	f000 8347 	beq.w	4a26 <_svfprintf_r+0x149e>
    4398:	9313      	str	r3, [sp, #76]	; 0x4c
    439a:	f10b 0b28 	add.w	fp, fp, #40	; 0x28
    439e:	9813      	ldr	r0, [sp, #76]	; 0x4c
    43a0:	ebc3 040b 	rsb	r4, r3, fp
    43a4:	2330      	movs	r3, #48	; 0x30
    43a6:	9410      	str	r4, [sp, #64]	; 0x40
    43a8:	7003      	strb	r3, [r0, #0]
    43aa:	f7ff ba6f 	b.w	388c <_svfprintf_r+0x304>
    43ae:	4264      	negs	r4, r4
    43b0:	eb65 0545 	sbc.w	r5, r5, r5, lsl #1
    43b4:	232d      	movs	r3, #45	; 0x2d
    43b6:	ea54 0005 	orrs.w	r0, r4, r5
    43ba:	f88d 310f 	strb.w	r3, [sp, #271]	; 0x10f
    43be:	bf0c      	ite	eq
    43c0:	2200      	moveq	r2, #0
    43c2:	2201      	movne	r2, #1
    43c4:	2301      	movs	r3, #1
    43c6:	f7ff ba2b 	b.w	3820 <_svfprintf_r+0x298>
    43ca:	981a      	ldr	r0, [sp, #104]	; 0x68
    43cc:	991b      	ldr	r1, [sp, #108]	; 0x6c
    43ce:	f002 fca5 	bl	6d1c <__fpclassifyd>
    43d2:	2800      	cmp	r0, #0
    43d4:	f040 8176 	bne.w	46c4 <_svfprintf_r+0x113c>
    43d8:	9015      	str	r0, [sp, #84]	; 0x54
    43da:	f649 23b4 	movw	r3, #39604	; 0x9ab4
    43de:	f649 22b0 	movw	r2, #39600	; 0x9ab0
    43e2:	9816      	ldr	r0, [sp, #88]	; 0x58
    43e4:	f2c0 0200 	movt	r2, #0
    43e8:	f2c0 0300 	movt	r3, #0
    43ec:	2847      	cmp	r0, #71	; 0x47
    43ee:	bfd8      	it	le
    43f0:	4613      	movle	r3, r2
    43f2:	9313      	str	r3, [sp, #76]	; 0x4c
    43f4:	9b15      	ldr	r3, [sp, #84]	; 0x54
    43f6:	2403      	movs	r4, #3
    43f8:	9908      	ldr	r1, [sp, #32]
    43fa:	940a      	str	r4, [sp, #40]	; 0x28
    43fc:	f021 0180 	bic.w	r1, r1, #128	; 0x80
    4400:	f89d 210f 	ldrb.w	r2, [sp, #271]	; 0x10f
    4404:	9108      	str	r1, [sp, #32]
    4406:	9410      	str	r4, [sp, #64]	; 0x40
    4408:	9318      	str	r3, [sp, #96]	; 0x60
    440a:	f7ff ba49 	b.w	38a0 <_svfprintf_r+0x318>
    440e:	7813      	ldrb	r3, [r2, #0]
    4410:	f7ff b927 	b.w	3662 <_svfprintf_r+0xda>
    4414:	9912      	ldr	r1, [sp, #72]	; 0x48
    4416:	1dcb      	adds	r3, r1, #7
    4418:	f023 0307 	bic.w	r3, r3, #7
    441c:	f103 0208 	add.w	r2, r3, #8
    4420:	9212      	str	r2, [sp, #72]	; 0x48
    4422:	681c      	ldr	r4, [r3, #0]
    4424:	941a      	str	r4, [sp, #104]	; 0x68
    4426:	685b      	ldr	r3, [r3, #4]
    4428:	931b      	str	r3, [sp, #108]	; 0x6c
    442a:	f7ff bb77 	b.w	3b1c <_svfprintf_r+0x594>
    442e:	9b08      	ldr	r3, [sp, #32]
    4430:	f013 0f40 	tst.w	r3, #64	; 0x40
    4434:	f000 8127 	beq.w	4686 <_svfprintf_r+0x10fe>
    4438:	9812      	ldr	r0, [sp, #72]	; 0x48
    443a:	2500      	movs	r5, #0
    443c:	8804      	ldrh	r4, [r0, #0]
    443e:	3004      	adds	r0, #4
    4440:	9012      	str	r0, [sp, #72]	; 0x48
    4442:	f7ff bbde 	b.w	3c02 <_svfprintf_r+0x67a>
    4446:	bf00      	nop
    4448:	00009a98 	.word	0x00009a98
    444c:	9b08      	ldr	r3, [sp, #32]
    444e:	f013 0f40 	tst.w	r3, #64	; 0x40
    4452:	f000 8111 	beq.w	4678 <_svfprintf_r+0x10f0>
    4456:	9812      	ldr	r0, [sp, #72]	; 0x48
    4458:	f9b0 4000 	ldrsh.w	r4, [r0]
    445c:	3004      	adds	r0, #4
    445e:	9012      	str	r0, [sp, #72]	; 0x48
    4460:	17e5      	asrs	r5, r4, #31
    4462:	f7ff b9d1 	b.w	3808 <_svfprintf_r+0x280>
    4466:	9908      	ldr	r1, [sp, #32]
    4468:	f011 0f10 	tst.w	r1, #16
    446c:	f000 8112 	beq.w	4694 <_svfprintf_r+0x110c>
    4470:	9a12      	ldr	r2, [sp, #72]	; 0x48
    4472:	9c0f      	ldr	r4, [sp, #60]	; 0x3c
    4474:	6813      	ldr	r3, [r2, #0]
    4476:	3204      	adds	r2, #4
    4478:	9212      	str	r2, [sp, #72]	; 0x48
    447a:	601c      	str	r4, [r3, #0]
    447c:	f7ff b8ad 	b.w	35da <_svfprintf_r+0x52>
    4480:	9808      	ldr	r0, [sp, #32]
    4482:	f010 0340 	ands.w	r3, r0, #64	; 0x40
    4486:	f000 820f 	beq.w	48a8 <_svfprintf_r+0x1320>
    448a:	9b12      	ldr	r3, [sp, #72]	; 0x48
    448c:	2500      	movs	r5, #0
    448e:	9c12      	ldr	r4, [sp, #72]	; 0x48
    4490:	8819      	ldrh	r1, [r3, #0]
    4492:	3404      	adds	r4, #4
    4494:	4613      	mov	r3, r2
    4496:	9412      	str	r4, [sp, #72]	; 0x48
    4498:	1e0a      	subs	r2, r1, #0
    449a:	460c      	mov	r4, r1
    449c:	bf18      	it	ne
    449e:	2201      	movne	r2, #1
    44a0:	f7ff bb87 	b.w	3bb2 <_svfprintf_r+0x62a>
    44a4:	46a0      	mov	r8, r4
    44a6:	460d      	mov	r5, r1
    44a8:	4614      	mov	r4, r2
    44aa:	3401      	adds	r4, #1
    44ac:	f8c9 8000 	str.w	r8, [r9]
    44b0:	2c07      	cmp	r4, #7
    44b2:	f8c9 6004 	str.w	r6, [r9, #4]
    44b6:	4435      	add	r5, r6
    44b8:	943a      	str	r4, [sp, #232]	; 0xe8
    44ba:	953b      	str	r5, [sp, #236]	; 0xec
    44bc:	f300 82bb 	bgt.w	4a36 <_svfprintf_r+0x14ae>
    44c0:	9a42      	ldr	r2, [sp, #264]	; 0x108
    44c2:	9c0e      	ldr	r4, [sp, #56]	; 0x38
    44c4:	42a2      	cmp	r2, r4
    44c6:	db4a      	blt.n	455e <_svfprintf_r+0xfd6>
    44c8:	9808      	ldr	r0, [sp, #32]
    44ca:	f010 0f01 	tst.w	r0, #1
    44ce:	d146      	bne.n	455e <_svfprintf_r+0xfd6>
    44d0:	9c13      	ldr	r4, [sp, #76]	; 0x4c
    44d2:	9818      	ldr	r0, [sp, #96]	; 0x60
    44d4:	1821      	adds	r1, r4, r0
    44d6:	9c0e      	ldr	r4, [sp, #56]	; 0x38
    44d8:	ebc1 070b 	rsb	r7, r1, fp
    44dc:	1aa2      	subs	r2, r4, r2
    44de:	42ba      	cmp	r2, r7
    44e0:	bfb8      	it	lt
    44e2:	4617      	movlt	r7, r2
    44e4:	2f00      	cmp	r7, #0
    44e6:	dd0a      	ble.n	44fe <_svfprintf_r+0xf76>
    44e8:	9c3a      	ldr	r4, [sp, #232]	; 0xe8
    44ea:	19ed      	adds	r5, r5, r7
    44ec:	6019      	str	r1, [r3, #0]
    44ee:	3401      	adds	r4, #1
    44f0:	605f      	str	r7, [r3, #4]
    44f2:	2c07      	cmp	r4, #7
    44f4:	953b      	str	r5, [sp, #236]	; 0xec
    44f6:	943a      	str	r4, [sp, #232]	; 0xe8
    44f8:	f300 8287 	bgt.w	4a0a <_svfprintf_r+0x1482>
    44fc:	3308      	adds	r3, #8
    44fe:	ea27 76e7 	bic.w	r6, r7, r7, asr #31
    4502:	1b96      	subs	r6, r2, r6
    4504:	2e00      	cmp	r6, #0
    4506:	dd38      	ble.n	457a <_svfprintf_r+0xff2>
    4508:	2e10      	cmp	r6, #16
    450a:	f340 831c 	ble.w	4b46 <_svfprintf_r+0x15be>
    450e:	9c3a      	ldr	r4, [sp, #232]	; 0xe8
    4510:	2710      	movs	r7, #16
    4512:	f8df 86c8 	ldr.w	r8, [pc, #1736]	; 4bdc <_svfprintf_r+0x1654>
    4516:	4622      	mov	r2, r4
    4518:	f8dd b030 	ldr.w	fp, [sp, #48]	; 0x30
    451c:	4644      	mov	r4, r8
    451e:	f8dd 8044 	ldr.w	r8, [sp, #68]	; 0x44
    4522:	e003      	b.n	452c <_svfprintf_r+0xfa4>
    4524:	3e10      	subs	r6, #16
    4526:	2e10      	cmp	r6, #16
    4528:	f77f aedf 	ble.w	42ea <_svfprintf_r+0xd62>
    452c:	3201      	adds	r2, #1
    452e:	601c      	str	r4, [r3, #0]
    4530:	605f      	str	r7, [r3, #4]
    4532:	3510      	adds	r5, #16
    4534:	3308      	adds	r3, #8
    4536:	2a07      	cmp	r2, #7
    4538:	923a      	str	r2, [sp, #232]	; 0xe8
    453a:	f103 0908 	add.w	r9, r3, #8
    453e:	953b      	str	r5, [sp, #236]	; 0xec
    4540:	ddf0      	ble.n	4524 <_svfprintf_r+0xf9c>
    4542:	4640      	mov	r0, r8
    4544:	4659      	mov	r1, fp
    4546:	aa39      	add	r2, sp, #228	; 0xe4
    4548:	f10a 0908 	add.w	r9, sl, #8
    454c:	f002 fd30 	bl	6fb0 <__ssprint_r>
    4550:	4653      	mov	r3, sl
    4552:	2800      	cmp	r0, #0
    4554:	f47f a8ff 	bne.w	3756 <_svfprintf_r+0x1ce>
    4558:	9d3b      	ldr	r5, [sp, #236]	; 0xec
    455a:	9a3a      	ldr	r2, [sp, #232]	; 0xe8
    455c:	e7e2      	b.n	4524 <_svfprintf_r+0xf9c>
    455e:	9c3a      	ldr	r4, [sp, #232]	; 0xe8
    4560:	991c      	ldr	r1, [sp, #112]	; 0x70
    4562:	3401      	adds	r4, #1
    4564:	9819      	ldr	r0, [sp, #100]	; 0x64
    4566:	2c07      	cmp	r4, #7
    4568:	440d      	add	r5, r1
    456a:	6059      	str	r1, [r3, #4]
    456c:	6018      	str	r0, [r3, #0]
    456e:	953b      	str	r5, [sp, #236]	; 0xec
    4570:	943a      	str	r4, [sp, #232]	; 0xe8
    4572:	f300 823e 	bgt.w	49f2 <_svfprintf_r+0x146a>
    4576:	3308      	adds	r3, #8
    4578:	e7aa      	b.n	44d0 <_svfprintf_r+0xf48>
    457a:	4699      	mov	r9, r3
    457c:	f7ff ba61 	b.w	3a42 <_svfprintf_r+0x4ba>
    4580:	f106 0908 	add.w	r9, r6, #8
    4584:	9c3a      	ldr	r4, [sp, #232]	; 0xe8
    4586:	f8df 8654 	ldr.w	r8, [pc, #1620]	; 4bdc <_svfprintf_r+0x1654>
    458a:	f7ff ba3b 	b.w	3a04 <_svfprintf_r+0x47c>
    458e:	9811      	ldr	r0, [sp, #68]	; 0x44
    4590:	aa39      	add	r2, sp, #228	; 0xe4
    4592:	990c      	ldr	r1, [sp, #48]	; 0x30
    4594:	f002 fd0c 	bl	6fb0 <__ssprint_r>
    4598:	2800      	cmp	r0, #0
    459a:	f47f a8dc 	bne.w	3756 <_svfprintf_r+0x1ce>
    459e:	9d3b      	ldr	r5, [sp, #236]	; 0xec
    45a0:	46d1      	mov	r9, sl
    45a2:	e4ad      	b.n	3f00 <_svfprintf_r+0x978>
    45a4:	9c3a      	ldr	r4, [sp, #232]	; 0xe8
    45a6:	f649 23e8 	movw	r3, #39656	; 0x9ae8
    45aa:	f2c0 0300 	movt	r3, #0
    45ae:	f8c9 3000 	str.w	r3, [r9]
    45b2:	3401      	adds	r4, #1
    45b4:	2301      	movs	r3, #1
    45b6:	2c07      	cmp	r4, #7
    45b8:	f8c9 3004 	str.w	r3, [r9, #4]
    45bc:	441d      	add	r5, r3
    45be:	943a      	str	r4, [sp, #232]	; 0xe8
    45c0:	953b      	str	r5, [sp, #236]	; 0xec
    45c2:	bfd8      	it	le
    45c4:	f109 0908 	addle.w	r9, r9, #8
    45c8:	f300 819f 	bgt.w	490a <_svfprintf_r+0x1382>
    45cc:	b936      	cbnz	r6, 45dc <_svfprintf_r+0x1054>
    45ce:	9b0e      	ldr	r3, [sp, #56]	; 0x38
    45d0:	b923      	cbnz	r3, 45dc <_svfprintf_r+0x1054>
    45d2:	9c08      	ldr	r4, [sp, #32]
    45d4:	f014 0f01 	tst.w	r4, #1
    45d8:	f43f aa33 	beq.w	3a42 <_svfprintf_r+0x4ba>
    45dc:	9c3a      	ldr	r4, [sp, #232]	; 0xe8
    45de:	981c      	ldr	r0, [sp, #112]	; 0x70
    45e0:	3401      	adds	r4, #1
    45e2:	9919      	ldr	r1, [sp, #100]	; 0x64
    45e4:	2c07      	cmp	r4, #7
    45e6:	4405      	add	r5, r0
    45e8:	f8c9 0004 	str.w	r0, [r9, #4]
    45ec:	f8c9 1000 	str.w	r1, [r9]
    45f0:	bfd8      	it	le
    45f2:	f109 0908 	addle.w	r9, r9, #8
    45f6:	953b      	str	r5, [sp, #236]	; 0xec
    45f8:	943a      	str	r4, [sp, #232]	; 0xe8
    45fa:	f300 81be 	bgt.w	497a <_svfprintf_r+0x13f2>
    45fe:	4276      	negs	r6, r6
    4600:	2e00      	cmp	r6, #0
    4602:	f340 81ab 	ble.w	495c <_svfprintf_r+0x13d4>
    4606:	2e10      	cmp	r6, #16
    4608:	bfd8      	it	le
    460a:	f8df 85d0 	ldrle.w	r8, [pc, #1488]	; 4bdc <_svfprintf_r+0x1654>
    460e:	f340 818d 	ble.w	492c <_svfprintf_r+0x13a4>
    4612:	f8df 85c8 	ldr.w	r8, [pc, #1480]	; 4bdc <_svfprintf_r+0x1654>
    4616:	4623      	mov	r3, r4
    4618:	2710      	movs	r7, #16
    461a:	f8dd b030 	ldr.w	fp, [sp, #48]	; 0x30
    461e:	4644      	mov	r4, r8
    4620:	f8dd 8044 	ldr.w	r8, [sp, #68]	; 0x44
    4624:	e003      	b.n	462e <_svfprintf_r+0x10a6>
    4626:	3e10      	subs	r6, #16
    4628:	2e10      	cmp	r6, #16
    462a:	f340 817d 	ble.w	4928 <_svfprintf_r+0x13a0>
    462e:	3301      	adds	r3, #1
    4630:	3510      	adds	r5, #16
    4632:	2b07      	cmp	r3, #7
    4634:	f8c9 4000 	str.w	r4, [r9]
    4638:	f8c9 7004 	str.w	r7, [r9, #4]
    463c:	f109 0908 	add.w	r9, r9, #8
    4640:	933a      	str	r3, [sp, #232]	; 0xe8
    4642:	953b      	str	r5, [sp, #236]	; 0xec
    4644:	ddef      	ble.n	4626 <_svfprintf_r+0x109e>
    4646:	4640      	mov	r0, r8
    4648:	4659      	mov	r1, fp
    464a:	aa39      	add	r2, sp, #228	; 0xe4
    464c:	46d1      	mov	r9, sl
    464e:	f002 fcaf 	bl	6fb0 <__ssprint_r>
    4652:	2800      	cmp	r0, #0
    4654:	f47f a87f 	bne.w	3756 <_svfprintf_r+0x1ce>
    4658:	9d3b      	ldr	r5, [sp, #236]	; 0xec
    465a:	9b3a      	ldr	r3, [sp, #232]	; 0xe8
    465c:	e7e3      	b.n	4626 <_svfprintf_r+0x109e>
    465e:	9b10      	ldr	r3, [sp, #64]	; 0x40
    4660:	2200      	movs	r2, #0
    4662:	9412      	str	r4, [sp, #72]	; 0x48
    4664:	2400      	movs	r4, #0
    4666:	9215      	str	r2, [sp, #84]	; 0x54
    4668:	ea23 73e3 	bic.w	r3, r3, r3, asr #31
    466c:	f89d 210f 	ldrb.w	r2, [sp, #271]	; 0x10f
    4670:	930a      	str	r3, [sp, #40]	; 0x28
    4672:	9418      	str	r4, [sp, #96]	; 0x60
    4674:	f7ff b914 	b.w	38a0 <_svfprintf_r+0x318>
    4678:	9912      	ldr	r1, [sp, #72]	; 0x48
    467a:	680c      	ldr	r4, [r1, #0]
    467c:	3104      	adds	r1, #4
    467e:	9112      	str	r1, [sp, #72]	; 0x48
    4680:	17e5      	asrs	r5, r4, #31
    4682:	f7ff b8c1 	b.w	3808 <_svfprintf_r+0x280>
    4686:	9912      	ldr	r1, [sp, #72]	; 0x48
    4688:	2500      	movs	r5, #0
    468a:	680c      	ldr	r4, [r1, #0]
    468c:	3104      	adds	r1, #4
    468e:	9112      	str	r1, [sp, #72]	; 0x48
    4690:	f7ff bab7 	b.w	3c02 <_svfprintf_r+0x67a>
    4694:	9808      	ldr	r0, [sp, #32]
    4696:	f010 0f40 	tst.w	r0, #64	; 0x40
    469a:	f000 811f 	beq.w	48dc <_svfprintf_r+0x1354>
    469e:	9912      	ldr	r1, [sp, #72]	; 0x48
    46a0:	9a0f      	ldr	r2, [sp, #60]	; 0x3c
    46a2:	680b      	ldr	r3, [r1, #0]
    46a4:	3104      	adds	r1, #4
    46a6:	9112      	str	r1, [sp, #72]	; 0x48
    46a8:	801a      	strh	r2, [r3, #0]
    46aa:	f7fe bf96 	b.w	35da <_svfprintf_r+0x52>
    46ae:	9811      	ldr	r0, [sp, #68]	; 0x44
    46b0:	aa39      	add	r2, sp, #228	; 0xe4
    46b2:	990c      	ldr	r1, [sp, #48]	; 0x30
    46b4:	f002 fc7c 	bl	6fb0 <__ssprint_r>
    46b8:	2800      	cmp	r0, #0
    46ba:	f47f a84c 	bne.w	3756 <_svfprintf_r+0x1ce>
    46be:	9d3b      	ldr	r5, [sp, #236]	; 0xec
    46c0:	4653      	mov	r3, sl
    46c2:	e437      	b.n	3f34 <_svfprintf_r+0x9ac>
    46c4:	f1b7 3fff 	cmp.w	r7, #4294967295
    46c8:	f000 8164 	beq.w	4994 <_svfprintf_r+0x140c>
    46cc:	9c16      	ldr	r4, [sp, #88]	; 0x58
    46ce:	f1a4 0e67 	sub.w	lr, r4, #103	; 0x67
    46d2:	f1de 0300 	rsbs	r3, lr, #0
    46d6:	eb43 030e 	adc.w	r3, r3, lr
    46da:	2c47      	cmp	r4, #71	; 0x47
    46dc:	bf08      	it	eq
    46de:	f043 0301 	orreq.w	r3, r3, #1
    46e2:	b113      	cbz	r3, 46ea <_svfprintf_r+0x1162>
    46e4:	2f00      	cmp	r7, #0
    46e6:	bf08      	it	eq
    46e8:	2701      	moveq	r7, #1
    46ea:	9b1b      	ldr	r3, [sp, #108]	; 0x6c
    46ec:	9916      	ldr	r1, [sp, #88]	; 0x58
    46ee:	2b00      	cmp	r3, #0
    46f0:	9808      	ldr	r0, [sp, #32]
    46f2:	f1a1 0466 	sub.w	r4, r1, #102	; 0x66
    46f6:	bfb9      	ittee	lt
    46f8:	f103 4900 	addlt.w	r9, r3, #2147483648	; 0x80000000
    46fc:	f04f 0b2d 	movlt.w	fp, #45	; 0x2d
    4700:	f8dd 906c 	ldrge.w	r9, [sp, #108]	; 0x6c
    4704:	f04f 0b00 	movge.w	fp, #0
    4708:	f1d4 0c00 	rsbs	ip, r4, #0
    470c:	eb4c 0c04 	adc.w	ip, ip, r4
    4710:	f440 7080 	orr.w	r0, r0, #256	; 0x100
    4714:	2946      	cmp	r1, #70	; 0x46
    4716:	bf08      	it	eq
    4718:	f04c 0c01 	orreq.w	ip, ip, #1
    471c:	9008      	str	r0, [sp, #32]
    471e:	f1bc 0f00 	cmp.w	ip, #0
    4722:	f040 81b7 	bne.w	4a94 <_svfprintf_r+0x150c>
    4726:	f1a1 0065 	sub.w	r0, r1, #101	; 0x65
    472a:	4243      	negs	r3, r0
    472c:	eb43 0300 	adc.w	r3, r3, r0
    4730:	2945      	cmp	r1, #69	; 0x45
    4732:	bf08      	it	eq
    4734:	f043 0301 	orreq.w	r3, r3, #1
    4738:	2b00      	cmp	r3, #0
    473a:	f000 81ef 	beq.w	4b1c <_svfprintf_r+0x1594>
    473e:	f107 0801 	add.w	r8, r7, #1
    4742:	2302      	movs	r3, #2
    4744:	9a1a      	ldr	r2, [sp, #104]	; 0x68
    4746:	a942      	add	r1, sp, #264	; 0x108
    4748:	f8cd 902c 	str.w	r9, [sp, #44]	; 0x2c
    474c:	9300      	str	r3, [sp, #0]
    474e:	920a      	str	r2, [sp, #40]	; 0x28
    4750:	e9dd 230a 	ldrd	r2, r3, [sp, #40]	; 0x28
    4754:	9811      	ldr	r0, [sp, #68]	; 0x44
    4756:	9102      	str	r1, [sp, #8]
    4758:	a941      	add	r1, sp, #260	; 0x104
    475a:	f8cd c018 	str.w	ip, [sp, #24]
    475e:	9103      	str	r1, [sp, #12]
    4760:	a940      	add	r1, sp, #256	; 0x100
    4762:	f8cd 8004 	str.w	r8, [sp, #4]
    4766:	9104      	str	r1, [sp, #16]
    4768:	f000 fad0 	bl	4d0c <_dtoa_r>
    476c:	f8dd c018 	ldr.w	ip, [sp, #24]
    4770:	9013      	str	r0, [sp, #76]	; 0x4c
    4772:	9816      	ldr	r0, [sp, #88]	; 0x58
    4774:	f1b0 0367 	subs.w	r3, r0, #103	; 0x67
    4778:	bf18      	it	ne
    477a:	2301      	movne	r3, #1
    477c:	2847      	cmp	r0, #71	; 0x47
    477e:	bf0c      	ite	eq
    4780:	2300      	moveq	r3, #0
    4782:	f003 0301 	andne.w	r3, r3, #1
    4786:	b92b      	cbnz	r3, 4794 <_svfprintf_r+0x120c>
    4788:	9908      	ldr	r1, [sp, #32]
    478a:	f011 0f01 	tst.w	r1, #1
    478e:	bf08      	it	eq
    4790:	9b40      	ldreq	r3, [sp, #256]	; 0x100
    4792:	d016      	beq.n	47c2 <_svfprintf_r+0x123a>
    4794:	9a13      	ldr	r2, [sp, #76]	; 0x4c
    4796:	eb02 0408 	add.w	r4, r2, r8
    479a:	f1bc 0f00 	cmp.w	ip, #0
    479e:	d005      	beq.n	47ac <_svfprintf_r+0x1224>
    47a0:	7813      	ldrb	r3, [r2, #0]
    47a2:	2b30      	cmp	r3, #48	; 0x30
    47a4:	f000 81df 	beq.w	4b66 <_svfprintf_r+0x15de>
    47a8:	9b42      	ldr	r3, [sp, #264]	; 0x108
    47aa:	18e4      	adds	r4, r4, r3
    47ac:	981a      	ldr	r0, [sp, #104]	; 0x68
    47ae:	2200      	movs	r2, #0
    47b0:	2300      	movs	r3, #0
    47b2:	4649      	mov	r1, r9
    47b4:	f004 fb52 	bl	8e5c <__aeabi_dcmpeq>
    47b8:	2800      	cmp	r0, #0
    47ba:	f000 8181 	beq.w	4ac0 <_svfprintf_r+0x1538>
    47be:	4623      	mov	r3, r4
    47c0:	9440      	str	r4, [sp, #256]	; 0x100
    47c2:	9c16      	ldr	r4, [sp, #88]	; 0x58
    47c4:	9813      	ldr	r0, [sp, #76]	; 0x4c
    47c6:	f1a4 0167 	sub.w	r1, r4, #103	; 0x67
    47ca:	424a      	negs	r2, r1
    47cc:	ebc0 0303 	rsb	r3, r0, r3
    47d0:	eb42 0201 	adc.w	r2, r2, r1
    47d4:	930e      	str	r3, [sp, #56]	; 0x38
    47d6:	2c47      	cmp	r4, #71	; 0x47
    47d8:	bf14      	ite	ne
    47da:	4613      	movne	r3, r2
    47dc:	f042 0301 	orreq.w	r3, r2, #1
    47e0:	2b00      	cmp	r3, #0
    47e2:	f000 815a 	beq.w	4a9a <_svfprintf_r+0x1512>
    47e6:	9b42      	ldr	r3, [sp, #264]	; 0x108
    47e8:	f113 0f03 	cmn.w	r3, #3
    47ec:	9310      	str	r3, [sp, #64]	; 0x40
    47ee:	db02      	blt.n	47f6 <_svfprintf_r+0x126e>
    47f0:	429f      	cmp	r7, r3
    47f2:	f280 8178 	bge.w	4ae6 <_svfprintf_r+0x155e>
    47f6:	9916      	ldr	r1, [sp, #88]	; 0x58
    47f8:	3902      	subs	r1, #2
    47fa:	9116      	str	r1, [sp, #88]	; 0x58
    47fc:	3b01      	subs	r3, #1
    47fe:	9c16      	ldr	r4, [sp, #88]	; 0x58
    4800:	2b00      	cmp	r3, #0
    4802:	9342      	str	r3, [sp, #264]	; 0x108
    4804:	f88d 40f8 	strb.w	r4, [sp, #248]	; 0xf8
    4808:	f2c0 81a4 	blt.w	4b54 <_svfprintf_r+0x15cc>
    480c:	222b      	movs	r2, #43	; 0x2b
    480e:	f88d 20f9 	strb.w	r2, [sp, #249]	; 0xf9
    4812:	2b09      	cmp	r3, #9
    4814:	f340 8185 	ble.w	4b22 <_svfprintf_r+0x159a>
    4818:	f246 6467 	movw	r4, #26215	; 0x6667
    481c:	f10d 00f6 	add.w	r0, sp, #246	; 0xf6
    4820:	f2c6 6466 	movt	r4, #26214	; 0x6666
    4824:	fb84 2103 	smull	r2, r1, r4, r3
    4828:	17da      	asrs	r2, r3, #31
    482a:	4605      	mov	r5, r0
    482c:	ebc2 02a1 	rsb	r2, r2, r1, asr #2
    4830:	eb02 0182 	add.w	r1, r2, r2, lsl #2
    4834:	eba3 0141 	sub.w	r1, r3, r1, lsl #1
    4838:	4613      	mov	r3, r2
    483a:	3130      	adds	r1, #48	; 0x30
    483c:	2a09      	cmp	r2, #9
    483e:	f800 1901 	strb.w	r1, [r0], #-1
    4842:	dcef      	bgt.n	4824 <_svfprintf_r+0x129c>
    4844:	3330      	adds	r3, #48	; 0x30
    4846:	1e6a      	subs	r2, r5, #1
    4848:	f805 3c01 	strb.w	r3, [r5, #-1]
    484c:	f10d 03f7 	add.w	r3, sp, #247	; 0xf7
    4850:	429a      	cmp	r2, r3
    4852:	bf28      	it	cs
    4854:	f10d 01fa 	addcs.w	r1, sp, #250	; 0xfa
    4858:	d209      	bcs.n	486e <_svfprintf_r+0x12e6>
    485a:	f10d 03fa 	add.w	r3, sp, #250	; 0xfa
    485e:	f812 1b01 	ldrb.w	r1, [r2], #1
    4862:	f803 1b01 	strb.w	r1, [r3], #1
    4866:	4619      	mov	r1, r3
    4868:	9c07      	ldr	r4, [sp, #28]
    486a:	4294      	cmp	r4, r2
    486c:	d8f7      	bhi.n	485e <_svfprintf_r+0x12d6>
    486e:	ab3e      	add	r3, sp, #248	; 0xf8
    4870:	980e      	ldr	r0, [sp, #56]	; 0x38
    4872:	1acb      	subs	r3, r1, r3
    4874:	990e      	ldr	r1, [sp, #56]	; 0x38
    4876:	1818      	adds	r0, r3, r0
    4878:	931d      	str	r3, [sp, #116]	; 0x74
    487a:	2901      	cmp	r1, #1
    487c:	9010      	str	r0, [sp, #64]	; 0x40
    487e:	f340 817f 	ble.w	4b80 <_svfprintf_r+0x15f8>
    4882:	9b10      	ldr	r3, [sp, #64]	; 0x40
    4884:	2400      	movs	r4, #0
    4886:	9418      	str	r4, [sp, #96]	; 0x60
    4888:	3301      	adds	r3, #1
    488a:	9310      	str	r3, [sp, #64]	; 0x40
    488c:	f1bb 0f00 	cmp.w	fp, #0
    4890:	f040 80f5 	bne.w	4a7e <_svfprintf_r+0x14f6>
    4894:	9b10      	ldr	r3, [sp, #64]	; 0x40
    4896:	f89d 210f 	ldrb.w	r2, [sp, #271]	; 0x10f
    489a:	ea23 73e3 	bic.w	r3, r3, r3, asr #31
    489e:	f8cd b054 	str.w	fp, [sp, #84]	; 0x54
    48a2:	930a      	str	r3, [sp, #40]	; 0x28
    48a4:	f7fe bffc 	b.w	38a0 <_svfprintf_r+0x318>
    48a8:	9812      	ldr	r0, [sp, #72]	; 0x48
    48aa:	2500      	movs	r5, #0
    48ac:	6802      	ldr	r2, [r0, #0]
    48ae:	3004      	adds	r0, #4
    48b0:	9012      	str	r0, [sp, #72]	; 0x48
    48b2:	4614      	mov	r4, r2
    48b4:	3a00      	subs	r2, #0
    48b6:	bf18      	it	ne
    48b8:	2201      	movne	r2, #1
    48ba:	f7ff b97a 	b.w	3bb2 <_svfprintf_r+0x62a>
    48be:	2140      	movs	r1, #64	; 0x40
    48c0:	9811      	ldr	r0, [sp, #68]	; 0x44
    48c2:	f001 f9ed 	bl	5ca0 <_malloc_r>
    48c6:	990c      	ldr	r1, [sp, #48]	; 0x30
    48c8:	6008      	str	r0, [r1, #0]
    48ca:	6108      	str	r0, [r1, #16]
    48cc:	2800      	cmp	r0, #0
    48ce:	f000 817a 	beq.w	4bc6 <_svfprintf_r+0x163e>
    48d2:	980c      	ldr	r0, [sp, #48]	; 0x30
    48d4:	2340      	movs	r3, #64	; 0x40
    48d6:	6143      	str	r3, [r0, #20]
    48d8:	f7fe be6d 	b.w	35b6 <_svfprintf_r+0x2e>
    48dc:	9c12      	ldr	r4, [sp, #72]	; 0x48
    48de:	980f      	ldr	r0, [sp, #60]	; 0x3c
    48e0:	6823      	ldr	r3, [r4, #0]
    48e2:	3404      	adds	r4, #4
    48e4:	9412      	str	r4, [sp, #72]	; 0x48
    48e6:	6018      	str	r0, [r3, #0]
    48e8:	f7fe be77 	b.w	35da <_svfprintf_r+0x52>
    48ec:	9811      	ldr	r0, [sp, #68]	; 0x44
    48ee:	aa39      	add	r2, sp, #228	; 0xe4
    48f0:	990c      	ldr	r1, [sp, #48]	; 0x30
    48f2:	f002 fb5d 	bl	6fb0 <__ssprint_r>
    48f6:	2800      	cmp	r0, #0
    48f8:	f47e af2d 	bne.w	3756 <_svfprintf_r+0x1ce>
    48fc:	9d3b      	ldr	r5, [sp, #236]	; 0xec
    48fe:	f10d 0984 	add.w	r9, sp, #132	; 0x84
    4902:	9c3a      	ldr	r4, [sp, #232]	; 0xe8
    4904:	46d3      	mov	fp, sl
    4906:	f7ff bac2 	b.w	3e8e <_svfprintf_r+0x906>
    490a:	9811      	ldr	r0, [sp, #68]	; 0x44
    490c:	aa39      	add	r2, sp, #228	; 0xe4
    490e:	990c      	ldr	r1, [sp, #48]	; 0x30
    4910:	f002 fb4e 	bl	6fb0 <__ssprint_r>
    4914:	2800      	cmp	r0, #0
    4916:	f47e af1e 	bne.w	3756 <_svfprintf_r+0x1ce>
    491a:	9e42      	ldr	r6, [sp, #264]	; 0x108
    491c:	46d1      	mov	r9, sl
    491e:	9d3b      	ldr	r5, [sp, #236]	; 0xec
    4920:	2e00      	cmp	r6, #0
    4922:	f47f ae5b 	bne.w	45dc <_svfprintf_r+0x1054>
    4926:	e652      	b.n	45ce <_svfprintf_r+0x1046>
    4928:	46a0      	mov	r8, r4
    492a:	461c      	mov	r4, r3
    492c:	3401      	adds	r4, #1
    492e:	f8c9 8000 	str.w	r8, [r9]
    4932:	2c07      	cmp	r4, #7
    4934:	f8c9 6004 	str.w	r6, [r9, #4]
    4938:	4435      	add	r5, r6
    493a:	943a      	str	r4, [sp, #232]	; 0xe8
    493c:	953b      	str	r5, [sp, #236]	; 0xec
    493e:	bfd8      	it	le
    4940:	f109 0908 	addle.w	r9, r9, #8
    4944:	dd0a      	ble.n	495c <_svfprintf_r+0x13d4>
    4946:	9811      	ldr	r0, [sp, #68]	; 0x44
    4948:	aa39      	add	r2, sp, #228	; 0xe4
    494a:	990c      	ldr	r1, [sp, #48]	; 0x30
    494c:	f002 fb30 	bl	6fb0 <__ssprint_r>
    4950:	2800      	cmp	r0, #0
    4952:	f47e af00 	bne.w	3756 <_svfprintf_r+0x1ce>
    4956:	9d3b      	ldr	r5, [sp, #236]	; 0xec
    4958:	46d1      	mov	r9, sl
    495a:	9c3a      	ldr	r4, [sp, #232]	; 0xe8
    495c:	3401      	adds	r4, #1
    495e:	9b0e      	ldr	r3, [sp, #56]	; 0x38
    4960:	9a13      	ldr	r2, [sp, #76]	; 0x4c
    4962:	2c07      	cmp	r4, #7
    4964:	441d      	add	r5, r3
    4966:	f8c9 3004 	str.w	r3, [r9, #4]
    496a:	f8c9 2000 	str.w	r2, [r9]
    496e:	943a      	str	r4, [sp, #232]	; 0xe8
    4970:	953b      	str	r5, [sp, #236]	; 0xec
    4972:	f77f a864 	ble.w	3a3e <_svfprintf_r+0x4b6>
    4976:	f7ff ba97 	b.w	3ea8 <_svfprintf_r+0x920>
    497a:	9811      	ldr	r0, [sp, #68]	; 0x44
    497c:	aa39      	add	r2, sp, #228	; 0xe4
    497e:	990c      	ldr	r1, [sp, #48]	; 0x30
    4980:	f002 fb16 	bl	6fb0 <__ssprint_r>
    4984:	2800      	cmp	r0, #0
    4986:	f47e aee6 	bne.w	3756 <_svfprintf_r+0x1ce>
    498a:	9e42      	ldr	r6, [sp, #264]	; 0x108
    498c:	46d1      	mov	r9, sl
    498e:	9d3b      	ldr	r5, [sp, #236]	; 0xec
    4990:	9c3a      	ldr	r4, [sp, #232]	; 0xe8
    4992:	e634      	b.n	45fe <_svfprintf_r+0x1076>
    4994:	2706      	movs	r7, #6
    4996:	e6a8      	b.n	46ea <_svfprintf_r+0x1162>
    4998:	222d      	movs	r2, #45	; 0x2d
    499a:	f88d 210f 	strb.w	r2, [sp, #271]	; 0x10f
    499e:	f7ff b8cf 	b.w	3b40 <_svfprintf_r+0x5b8>
    49a2:	464b      	mov	r3, r9
    49a4:	e58c      	b.n	44c0 <_svfprintf_r+0xf38>
    49a6:	9813      	ldr	r0, [sp, #76]	; 0x4c
    49a8:	2100      	movs	r1, #0
    49aa:	9115      	str	r1, [sp, #84]	; 0x54
    49ac:	f7fe fd7e 	bl	34ac <strlen>
    49b0:	9b15      	ldr	r3, [sp, #84]	; 0x54
    49b2:	9412      	str	r4, [sp, #72]	; 0x48
    49b4:	9318      	str	r3, [sp, #96]	; 0x60
    49b6:	ea20 72e0 	bic.w	r2, r0, r0, asr #31
    49ba:	9010      	str	r0, [sp, #64]	; 0x40
    49bc:	920a      	str	r2, [sp, #40]	; 0x28
    49be:	f89d 210f 	ldrb.w	r2, [sp, #271]	; 0x10f
    49c2:	f7fe bf6d 	b.w	38a0 <_svfprintf_r+0x318>
    49c6:	f649 2888 	movw	r8, #39560	; 0x9a88
    49ca:	f106 0308 	add.w	r3, r6, #8
    49ce:	9d3b      	ldr	r5, [sp, #236]	; 0xec
    49d0:	f2c0 0800 	movt	r8, #0
    49d4:	9c3a      	ldr	r4, [sp, #232]	; 0xe8
    49d6:	f7fe bfae 	b.w	3936 <_svfprintf_r+0x3ae>
    49da:	9811      	ldr	r0, [sp, #68]	; 0x44
    49dc:	aa39      	add	r2, sp, #228	; 0xe4
    49de:	990c      	ldr	r1, [sp, #48]	; 0x30
    49e0:	f002 fae6 	bl	6fb0 <__ssprint_r>
    49e4:	2800      	cmp	r0, #0
    49e6:	f47e aeb6 	bne.w	3756 <_svfprintf_r+0x1ce>
    49ea:	9d3b      	ldr	r5, [sp, #236]	; 0xec
    49ec:	46d1      	mov	r9, sl
    49ee:	f7ff bbcf 	b.w	4190 <_svfprintf_r+0xc08>
    49f2:	9811      	ldr	r0, [sp, #68]	; 0x44
    49f4:	aa39      	add	r2, sp, #228	; 0xe4
    49f6:	990c      	ldr	r1, [sp, #48]	; 0x30
    49f8:	f002 fada 	bl	6fb0 <__ssprint_r>
    49fc:	2800      	cmp	r0, #0
    49fe:	f47e aeaa 	bne.w	3756 <_svfprintf_r+0x1ce>
    4a02:	9a42      	ldr	r2, [sp, #264]	; 0x108
    4a04:	4653      	mov	r3, sl
    4a06:	9d3b      	ldr	r5, [sp, #236]	; 0xec
    4a08:	e562      	b.n	44d0 <_svfprintf_r+0xf48>
    4a0a:	9811      	ldr	r0, [sp, #68]	; 0x44
    4a0c:	aa39      	add	r2, sp, #228	; 0xe4
    4a0e:	990c      	ldr	r1, [sp, #48]	; 0x30
    4a10:	f002 face 	bl	6fb0 <__ssprint_r>
    4a14:	2800      	cmp	r0, #0
    4a16:	f47e ae9e 	bne.w	3756 <_svfprintf_r+0x1ce>
    4a1a:	9a42      	ldr	r2, [sp, #264]	; 0x108
    4a1c:	4653      	mov	r3, sl
    4a1e:	980e      	ldr	r0, [sp, #56]	; 0x38
    4a20:	9d3b      	ldr	r5, [sp, #236]	; 0xec
    4a22:	1a82      	subs	r2, r0, r2
    4a24:	e56b      	b.n	44fe <_svfprintf_r+0xf76>
    4a26:	9b13      	ldr	r3, [sp, #76]	; 0x4c
    4a28:	f10b 0b28 	add.w	fp, fp, #40	; 0x28
    4a2c:	ebc3 030b 	rsb	r3, r3, fp
    4a30:	9310      	str	r3, [sp, #64]	; 0x40
    4a32:	f7fe bf2b 	b.w	388c <_svfprintf_r+0x304>
    4a36:	9811      	ldr	r0, [sp, #68]	; 0x44
    4a38:	aa39      	add	r2, sp, #228	; 0xe4
    4a3a:	990c      	ldr	r1, [sp, #48]	; 0x30
    4a3c:	f002 fab8 	bl	6fb0 <__ssprint_r>
    4a40:	2800      	cmp	r0, #0
    4a42:	f47e ae88 	bne.w	3756 <_svfprintf_r+0x1ce>
    4a46:	4653      	mov	r3, sl
    4a48:	9d3b      	ldr	r5, [sp, #236]	; 0xec
    4a4a:	e539      	b.n	44c0 <_svfprintf_r+0xf38>
    4a4c:	2f06      	cmp	r7, #6
    4a4e:	bf28      	it	cs
    4a50:	2706      	movcs	r7, #6
    4a52:	f649 20e0 	movw	r0, #39648	; 0x9ae0
    4a56:	ea27 71e7 	bic.w	r1, r7, r7, asr #31
    4a5a:	f2c0 0000 	movt	r0, #0
    4a5e:	461a      	mov	r2, r3
    4a60:	9710      	str	r7, [sp, #64]	; 0x40
    4a62:	910a      	str	r1, [sp, #40]	; 0x28
    4a64:	9412      	str	r4, [sp, #72]	; 0x48
    4a66:	9315      	str	r3, [sp, #84]	; 0x54
    4a68:	9318      	str	r3, [sp, #96]	; 0x60
    4a6a:	9013      	str	r0, [sp, #76]	; 0x4c
    4a6c:	f7fe bf18 	b.w	38a0 <_svfprintf_r+0x318>
    4a70:	f649 2888 	movw	r8, #39560	; 0x9a88
    4a74:	9c3a      	ldr	r4, [sp, #232]	; 0xe8
    4a76:	f2c0 0800 	movt	r8, #0
    4a7a:	f7ff b81a 	b.w	3ab2 <_svfprintf_r+0x52a>
    4a7e:	9c10      	ldr	r4, [sp, #64]	; 0x40
    4a80:	222d      	movs	r2, #45	; 0x2d
    4a82:	2000      	movs	r0, #0
    4a84:	f88d 210f 	strb.w	r2, [sp, #271]	; 0x10f
    4a88:	ea24 74e4 	bic.w	r4, r4, r4, asr #31
    4a8c:	9015      	str	r0, [sp, #84]	; 0x54
    4a8e:	940a      	str	r4, [sp, #40]	; 0x28
    4a90:	f7fe bf07 	b.w	38a2 <_svfprintf_r+0x31a>
    4a94:	46b8      	mov	r8, r7
    4a96:	2303      	movs	r3, #3
    4a98:	e654      	b.n	4744 <_svfprintf_r+0x11bc>
    4a9a:	9a16      	ldr	r2, [sp, #88]	; 0x58
    4a9c:	2a66      	cmp	r2, #102	; 0x66
    4a9e:	d160      	bne.n	4b62 <_svfprintf_r+0x15da>
    4aa0:	9b42      	ldr	r3, [sp, #264]	; 0x108
    4aa2:	2b00      	cmp	r3, #0
    4aa4:	9310      	str	r3, [sp, #64]	; 0x40
    4aa6:	f340 8086 	ble.w	4bb6 <_svfprintf_r+0x162e>
    4aaa:	b91f      	cbnz	r7, 4ab4 <_svfprintf_r+0x152c>
    4aac:	9808      	ldr	r0, [sp, #32]
    4aae:	f010 0f01 	tst.w	r0, #1
    4ab2:	d002      	beq.n	4aba <_svfprintf_r+0x1532>
    4ab4:	1c5a      	adds	r2, r3, #1
    4ab6:	19d2      	adds	r2, r2, r7
    4ab8:	9210      	str	r2, [sp, #64]	; 0x40
    4aba:	9318      	str	r3, [sp, #96]	; 0x60
    4abc:	9516      	str	r5, [sp, #88]	; 0x58
    4abe:	e6e5      	b.n	488c <_svfprintf_r+0x1304>
    4ac0:	9b40      	ldr	r3, [sp, #256]	; 0x100
    4ac2:	429c      	cmp	r4, r3
    4ac4:	f67f ae7d 	bls.w	47c2 <_svfprintf_r+0x123a>
    4ac8:	2230      	movs	r2, #48	; 0x30
    4aca:	f803 2b01 	strb.w	r2, [r3], #1
    4ace:	42a3      	cmp	r3, r4
    4ad0:	9340      	str	r3, [sp, #256]	; 0x100
    4ad2:	d3fa      	bcc.n	4aca <_svfprintf_r+0x1542>
    4ad4:	4623      	mov	r3, r4
    4ad6:	e674      	b.n	47c2 <_svfprintf_r+0x123a>
    4ad8:	4633      	mov	r3, r6
    4ada:	9c3a      	ldr	r4, [sp, #232]	; 0xe8
    4adc:	3608      	adds	r6, #8
    4ade:	f8df 80fc 	ldr.w	r8, [pc, #252]	; 4bdc <_svfprintf_r+0x1654>
    4ae2:	f7ff ba9f 	b.w	4024 <_svfprintf_r+0xa9c>
    4ae6:	9a0e      	ldr	r2, [sp, #56]	; 0x38
    4ae8:	4293      	cmp	r3, r2
    4aea:	db22      	blt.n	4b32 <_svfprintf_r+0x15aa>
    4aec:	9c08      	ldr	r4, [sp, #32]
    4aee:	f014 0f01 	tst.w	r4, #1
    4af2:	d034      	beq.n	4b5e <_svfprintf_r+0x15d6>
    4af4:	1c58      	adds	r0, r3, #1
    4af6:	2567      	movs	r5, #103	; 0x67
    4af8:	9010      	str	r0, [sp, #64]	; 0x40
    4afa:	e7de      	b.n	4aba <_svfprintf_r+0x1532>
    4afc:	ea27 72e7 	bic.w	r2, r7, r7, asr #31
    4b00:	9015      	str	r0, [sp, #84]	; 0x54
    4b02:	920a      	str	r2, [sp, #40]	; 0x28
    4b04:	9412      	str	r4, [sp, #72]	; 0x48
    4b06:	f89d 210f 	ldrb.w	r2, [sp, #271]	; 0x10f
    4b0a:	9710      	str	r7, [sp, #64]	; 0x40
    4b0c:	9018      	str	r0, [sp, #96]	; 0x60
    4b0e:	f7fe bec7 	b.w	38a0 <_svfprintf_r+0x318>
    4b12:	2700      	movs	r7, #0
    4b14:	ea47 77e7 	orr.w	r7, r7, r7, asr #31
    4b18:	f7fe bda4 	b.w	3664 <_svfprintf_r+0xdc>
    4b1c:	46b8      	mov	r8, r7
    4b1e:	2302      	movs	r3, #2
    4b20:	e610      	b.n	4744 <_svfprintf_r+0x11bc>
    4b22:	3330      	adds	r3, #48	; 0x30
    4b24:	2230      	movs	r2, #48	; 0x30
    4b26:	a93f      	add	r1, sp, #252	; 0xfc
    4b28:	f88d 20fa 	strb.w	r2, [sp, #250]	; 0xfa
    4b2c:	f88d 30fb 	strb.w	r3, [sp, #251]	; 0xfb
    4b30:	e69d      	b.n	486e <_svfprintf_r+0x12e6>
    4b32:	2b00      	cmp	r3, #0
    4b34:	990e      	ldr	r1, [sp, #56]	; 0x38
    4b36:	bfd4      	ite	le
    4b38:	f1c3 0202 	rsble	r2, r3, #2
    4b3c:	2201      	movgt	r2, #1
    4b3e:	1852      	adds	r2, r2, r1
    4b40:	2567      	movs	r5, #103	; 0x67
    4b42:	9210      	str	r2, [sp, #64]	; 0x40
    4b44:	e7b9      	b.n	4aba <_svfprintf_r+0x1532>
    4b46:	f103 0908 	add.w	r9, r3, #8
    4b4a:	9c3a      	ldr	r4, [sp, #232]	; 0xe8
    4b4c:	f8df 808c 	ldr.w	r8, [pc, #140]	; 4bdc <_svfprintf_r+0x1654>
    4b50:	f7ff bbcd 	b.w	42ee <_svfprintf_r+0xd66>
    4b54:	222d      	movs	r2, #45	; 0x2d
    4b56:	425b      	negs	r3, r3
    4b58:	f88d 20f9 	strb.w	r2, [sp, #249]	; 0xf9
    4b5c:	e659      	b.n	4812 <_svfprintf_r+0x128a>
    4b5e:	2567      	movs	r5, #103	; 0x67
    4b60:	e7ab      	b.n	4aba <_svfprintf_r+0x1532>
    4b62:	9b42      	ldr	r3, [sp, #264]	; 0x108
    4b64:	e64a      	b.n	47fc <_svfprintf_r+0x1274>
    4b66:	981a      	ldr	r0, [sp, #104]	; 0x68
    4b68:	2200      	movs	r2, #0
    4b6a:	2300      	movs	r3, #0
    4b6c:	4649      	mov	r1, r9
    4b6e:	f004 f975 	bl	8e5c <__aeabi_dcmpeq>
    4b72:	2800      	cmp	r0, #0
    4b74:	f47f ae18 	bne.w	47a8 <_svfprintf_r+0x1220>
    4b78:	f1c8 0301 	rsb	r3, r8, #1
    4b7c:	9342      	str	r3, [sp, #264]	; 0x108
    4b7e:	e613      	b.n	47a8 <_svfprintf_r+0x1220>
    4b80:	9a08      	ldr	r2, [sp, #32]
    4b82:	f012 0301 	ands.w	r3, r2, #1
    4b86:	bf08      	it	eq
    4b88:	9318      	streq	r3, [sp, #96]	; 0x60
    4b8a:	f43f ae7f 	beq.w	488c <_svfprintf_r+0x1304>
    4b8e:	e678      	b.n	4882 <_svfprintf_r+0x12fa>
    4b90:	f109 0308 	add.w	r3, r9, #8
    4b94:	9c3a      	ldr	r4, [sp, #232]	; 0xe8
    4b96:	f8df 8044 	ldr.w	r8, [pc, #68]	; 4bdc <_svfprintf_r+0x1654>
    4b9a:	e486      	b.n	44aa <_svfprintf_r+0xf22>
    4b9c:	9812      	ldr	r0, [sp, #72]	; 0x48
    4b9e:	6807      	ldr	r7, [r0, #0]
    4ba0:	3004      	adds	r0, #4
    4ba2:	2f00      	cmp	r7, #0
    4ba4:	bfbe      	ittt	lt
    4ba6:	f04f 37ff 	movlt.w	r7, #4294967295
    4baa:	7813      	ldrblt	r3, [r2, #0]
    4bac:	9012      	strlt	r0, [sp, #72]	; 0x48
    4bae:	f6bf a930 	bge.w	3e12 <_svfprintf_r+0x88a>
    4bb2:	f7fe bd56 	b.w	3662 <_svfprintf_r+0xda>
    4bb6:	b91f      	cbnz	r7, 4bc0 <_svfprintf_r+0x1638>
    4bb8:	9908      	ldr	r1, [sp, #32]
    4bba:	f011 0f01 	tst.w	r1, #1
    4bbe:	d00a      	beq.n	4bd6 <_svfprintf_r+0x164e>
    4bc0:	3702      	adds	r7, #2
    4bc2:	9710      	str	r7, [sp, #64]	; 0x40
    4bc4:	e779      	b.n	4aba <_svfprintf_r+0x1532>
    4bc6:	9c11      	ldr	r4, [sp, #68]	; 0x44
    4bc8:	f04f 32ff 	mov.w	r2, #4294967295
    4bcc:	230c      	movs	r3, #12
    4bce:	920f      	str	r2, [sp, #60]	; 0x3c
    4bd0:	6023      	str	r3, [r4, #0]
    4bd2:	f7fe bdc9 	b.w	3768 <_svfprintf_r+0x1e0>
    4bd6:	2201      	movs	r2, #1
    4bd8:	9210      	str	r2, [sp, #64]	; 0x40
    4bda:	e76e      	b.n	4aba <_svfprintf_r+0x1532>
    4bdc:	00009a98 	.word	0x00009a98

00004be0 <quorem>:
    4be0:	e92d 4ff0 	stmdb	sp!, {r4, r5, r6, r7, r8, r9, sl, fp, lr}
    4be4:	b083      	sub	sp, #12
    4be6:	6903      	ldr	r3, [r0, #16]
    4be8:	4681      	mov	r9, r0
    4bea:	690d      	ldr	r5, [r1, #16]
    4bec:	9101      	str	r1, [sp, #4]
    4bee:	429d      	cmp	r5, r3
    4bf0:	f300 8089 	bgt.w	4d06 <quorem+0x126>
    4bf4:	1cea      	adds	r2, r5, #3
    4bf6:	f101 0414 	add.w	r4, r1, #20
    4bfa:	f100 0814 	add.w	r8, r0, #20
    4bfe:	3d01      	subs	r5, #1
    4c00:	0092      	lsls	r2, r2, #2
    4c02:	188b      	adds	r3, r1, r2
    4c04:	1882      	adds	r2, r0, r2
    4c06:	1d1f      	adds	r7, r3, #4
    4c08:	6859      	ldr	r1, [r3, #4]
    4c0a:	6850      	ldr	r0, [r2, #4]
    4c0c:	3101      	adds	r1, #1
    4c0e:	f003 fbc7 	bl	83a0 <__aeabi_uidiv>
    4c12:	4606      	mov	r6, r0
    4c14:	2800      	cmp	r0, #0
    4c16:	d03c      	beq.n	4c92 <quorem+0xb2>
    4c18:	2000      	movs	r0, #0
    4c1a:	4642      	mov	r2, r8
    4c1c:	4623      	mov	r3, r4
    4c1e:	4686      	mov	lr, r0
    4c20:	f853 cb04 	ldr.w	ip, [r3], #4
    4c24:	6811      	ldr	r1, [r2, #0]
    4c26:	fa1f fb8c 	uxth.w	fp, ip
    4c2a:	ea4f 4c1c 	mov.w	ip, ip, lsr #16
    4c2e:	fa1f fa81 	uxth.w	sl, r1
    4c32:	fb0b 0b06 	mla	fp, fp, r6, r0
    4c36:	44d6      	add	lr, sl
    4c38:	fb0c f006 	mul.w	r0, ip, r6
    4c3c:	eb00 401b 	add.w	r0, r0, fp, lsr #16
    4c40:	fa1f fb8b 	uxth.w	fp, fp
    4c44:	ebcb 0a0e 	rsb	sl, fp, lr
    4c48:	fa1f fe80 	uxth.w	lr, r0
    4c4c:	0c00      	lsrs	r0, r0, #16
    4c4e:	ebce 4e11 	rsb	lr, lr, r1, lsr #16
    4c52:	429f      	cmp	r7, r3
    4c54:	eb0e 4e2a 	add.w	lr, lr, sl, asr #16
    4c58:	fa1f fc8a 	uxth.w	ip, sl
    4c5c:	ea4c 410e 	orr.w	r1, ip, lr, lsl #16
    4c60:	ea4f 4e2e 	mov.w	lr, lr, asr #16
    4c64:	f842 1b04 	str.w	r1, [r2], #4
    4c68:	d2da      	bcs.n	4c20 <quorem+0x40>
    4c6a:	1d2a      	adds	r2, r5, #4
    4c6c:	eb09 0382 	add.w	r3, r9, r2, lsl #2
    4c70:	6859      	ldr	r1, [r3, #4]
    4c72:	b971      	cbnz	r1, 4c92 <quorem+0xb2>
    4c74:	4598      	cmp	r8, r3
    4c76:	d20a      	bcs.n	4c8e <quorem+0xae>
    4c78:	f859 2022 	ldr.w	r2, [r9, r2, lsl #2]
    4c7c:	b93a      	cbnz	r2, 4c8e <quorem+0xae>
    4c7e:	3b04      	subs	r3, #4
    4c80:	e002      	b.n	4c88 <quorem+0xa8>
    4c82:	f853 2904 	ldr.w	r2, [r3], #-4
    4c86:	b912      	cbnz	r2, 4c8e <quorem+0xae>
    4c88:	3d01      	subs	r5, #1
    4c8a:	4598      	cmp	r8, r3
    4c8c:	d3f9      	bcc.n	4c82 <quorem+0xa2>
    4c8e:	f8c9 5010 	str.w	r5, [r9, #16]
    4c92:	4648      	mov	r0, r9
    4c94:	9901      	ldr	r1, [sp, #4]
    4c96:	f001 fe25 	bl	68e4 <__mcmp>
    4c9a:	2800      	cmp	r0, #0
    4c9c:	db2f      	blt.n	4cfe <quorem+0x11e>
    4c9e:	3601      	adds	r6, #1
    4ca0:	4643      	mov	r3, r8
    4ca2:	f04f 0c00 	mov.w	ip, #0
    4ca6:	f854 0b04 	ldr.w	r0, [r4], #4
    4caa:	6819      	ldr	r1, [r3, #0]
    4cac:	fa1f fa80 	uxth.w	sl, r0
    4cb0:	0c00      	lsrs	r0, r0, #16
    4cb2:	b28a      	uxth	r2, r1
    4cb4:	ebc0 4111 	rsb	r1, r0, r1, lsr #16
    4cb8:	ebca 0202 	rsb	r2, sl, r2
    4cbc:	42a7      	cmp	r7, r4
    4cbe:	4494      	add	ip, r2
    4cc0:	eb01 422c 	add.w	r2, r1, ip, asr #16
    4cc4:	fa1f fc8c 	uxth.w	ip, ip
    4cc8:	ea4c 4102 	orr.w	r1, ip, r2, lsl #16
    4ccc:	ea4f 4c22 	mov.w	ip, r2, asr #16
    4cd0:	f843 1b04 	str.w	r1, [r3], #4
    4cd4:	d2e7      	bcs.n	4ca6 <quorem+0xc6>
    4cd6:	1d2a      	adds	r2, r5, #4
    4cd8:	eb09 0382 	add.w	r3, r9, r2, lsl #2
    4cdc:	6859      	ldr	r1, [r3, #4]
    4cde:	b971      	cbnz	r1, 4cfe <quorem+0x11e>
    4ce0:	4598      	cmp	r8, r3
    4ce2:	d20a      	bcs.n	4cfa <quorem+0x11a>
    4ce4:	f859 2022 	ldr.w	r2, [r9, r2, lsl #2]
    4ce8:	b93a      	cbnz	r2, 4cfa <quorem+0x11a>
    4cea:	3b04      	subs	r3, #4
    4cec:	e002      	b.n	4cf4 <quorem+0x114>
    4cee:	f853 2904 	ldr.w	r2, [r3], #-4
    4cf2:	b912      	cbnz	r2, 4cfa <quorem+0x11a>
    4cf4:	3d01      	subs	r5, #1
    4cf6:	4598      	cmp	r8, r3
    4cf8:	d3f9      	bcc.n	4cee <quorem+0x10e>
    4cfa:	f8c9 5010 	str.w	r5, [r9, #16]
    4cfe:	4630      	mov	r0, r6
    4d00:	b003      	add	sp, #12
    4d02:	e8bd 8ff0 	ldmia.w	sp!, {r4, r5, r6, r7, r8, r9, sl, fp, pc}
    4d06:	2000      	movs	r0, #0
    4d08:	e7fa      	b.n	4d00 <quorem+0x120>
    4d0a:	bf00      	nop

00004d0c <_dtoa_r>:
    4d0c:	e92d 4ff0 	stmdb	sp!, {r4, r5, r6, r7, r8, r9, sl, fp, lr}
    4d10:	b09f      	sub	sp, #124	; 0x7c
    4d12:	6a45      	ldr	r5, [r0, #36]	; 0x24
    4d14:	4604      	mov	r4, r0
    4d16:	4690      	mov	r8, r2
    4d18:	4699      	mov	r9, r3
    4d1a:	9e2b      	ldr	r6, [sp, #172]	; 0xac
    4d1c:	2d00      	cmp	r5, #0
    4d1e:	f000 839d 	beq.w	545c <_dtoa_r+0x750>
    4d22:	682b      	ldr	r3, [r5, #0]
    4d24:	b153      	cbz	r3, 4d3c <_dtoa_r+0x30>
    4d26:	686a      	ldr	r2, [r5, #4]
    4d28:	2501      	movs	r5, #1
    4d2a:	4619      	mov	r1, r3
    4d2c:	4095      	lsls	r5, r2
    4d2e:	609d      	str	r5, [r3, #8]
    4d30:	605a      	str	r2, [r3, #4]
    4d32:	f001 fb97 	bl	6464 <_Bfree>
    4d36:	6a63      	ldr	r3, [r4, #36]	; 0x24
    4d38:	2200      	movs	r2, #0
    4d3a:	601a      	str	r2, [r3, #0]
    4d3c:	f1b9 0500 	subs.w	r5, r9, #0
    4d40:	f2c0 80d2 	blt.w	4ee8 <_dtoa_r+0x1dc>
    4d44:	2300      	movs	r3, #0
    4d46:	6033      	str	r3, [r6, #0]
    4d48:	2300      	movs	r3, #0
    4d4a:	461a      	mov	r2, r3
    4d4c:	f6c7 73f0 	movt	r3, #32752	; 0x7ff0
    4d50:	f6c7 72f0 	movt	r2, #32752	; 0x7ff0
    4d54:	ea05 0303 	and.w	r3, r5, r3
    4d58:	4293      	cmp	r3, r2
    4d5a:	f000 80ae 	beq.w	4eba <_dtoa_r+0x1ae>
    4d5e:	2200      	movs	r2, #0
    4d60:	2300      	movs	r3, #0
    4d62:	4640      	mov	r0, r8
    4d64:	4649      	mov	r1, r9
    4d66:	e9cd 8904 	strd	r8, r9, [sp, #16]
    4d6a:	2601      	movs	r6, #1
    4d6c:	f004 f876 	bl	8e5c <__aeabi_dcmpeq>
    4d70:	b980      	cbnz	r0, 4d94 <_dtoa_r+0x88>
    4d72:	f016 0fff 	tst.w	r6, #255	; 0xff
    4d76:	d111      	bne.n	4d9c <_dtoa_r+0x90>
    4d78:	9f2a      	ldr	r7, [sp, #168]	; 0xa8
    4d7a:	2301      	movs	r3, #1
    4d7c:	982c      	ldr	r0, [sp, #176]	; 0xb0
    4d7e:	603b      	str	r3, [r7, #0]
    4d80:	2800      	cmp	r0, #0
    4d82:	f000 80eb 	beq.w	4f5c <_dtoa_r+0x250>
    4d86:	4b7e      	ldr	r3, [pc, #504]	; (4f80 <_dtoa_r+0x274>)
    4d88:	992c      	ldr	r1, [sp, #176]	; 0xb0
    4d8a:	1e58      	subs	r0, r3, #1
    4d8c:	600b      	str	r3, [r1, #0]
    4d8e:	b01f      	add	sp, #124	; 0x7c
    4d90:	e8bd 8ff0 	ldmia.w	sp!, {r4, r5, r6, r7, r8, r9, sl, fp, pc}
    4d94:	2600      	movs	r6, #0
    4d96:	f016 0fff 	tst.w	r6, #255	; 0xff
    4d9a:	d0ed      	beq.n	4d78 <_dtoa_r+0x6c>
    4d9c:	4620      	mov	r0, r4
    4d9e:	e9dd 2304 	ldrd	r2, r3, [sp, #16]
    4da2:	a91c      	add	r1, sp, #112	; 0x70
    4da4:	9100      	str	r1, [sp, #0]
    4da6:	a91d      	add	r1, sp, #116	; 0x74
    4da8:	9101      	str	r1, [sp, #4]
    4daa:	f001 feaf 	bl	6b0c <__d2b>
    4dae:	f3c5 560a 	ubfx	r6, r5, #20, #11
    4db2:	4682      	mov	sl, r0
    4db4:	2e00      	cmp	r6, #0
    4db6:	f000 80ac 	beq.w	4f12 <_dtoa_r+0x206>
    4dba:	9f05      	ldr	r7, [sp, #20]
    4dbc:	f5a6 767e 	sub.w	r6, r6, #1016	; 0x3f8
    4dc0:	3e07      	subs	r6, #7
    4dc2:	2000      	movs	r0, #0
    4dc4:	f027 437f 	bic.w	r3, r7, #4278190080	; 0xff000000
    4dc8:	9f1d      	ldr	r7, [sp, #116]	; 0x74
    4dca:	f423 0370 	bic.w	r3, r3, #15728640	; 0xf00000
    4dce:	9017      	str	r0, [sp, #92]	; 0x5c
    4dd0:	f043 537e 	orr.w	r3, r3, #1065353216	; 0x3f800000
    4dd4:	f443 03e0 	orr.w	r3, r3, #7340032	; 0x700000
    4dd8:	9305      	str	r3, [sp, #20]
    4dda:	2300      	movs	r3, #0
    4ddc:	e9dd 0104 	ldrd	r0, r1, [sp, #16]
    4de0:	2200      	movs	r2, #0
    4de2:	f6c3 73f8 	movt	r3, #16376	; 0x3ff8
    4de6:	f003 fc1d 	bl	8624 <__aeabi_dsub>
    4dea:	a35f      	add	r3, pc, #380	; (adr r3, 4f68 <_dtoa_r+0x25c>)
    4dec:	e9d3 2300 	ldrd	r2, r3, [r3]
    4df0:	f003 fdcc 	bl	898c <__aeabi_dmul>
    4df4:	a35e      	add	r3, pc, #376	; (adr r3, 4f70 <_dtoa_r+0x264>)
    4df6:	e9d3 2300 	ldrd	r2, r3, [r3]
    4dfa:	f003 fc15 	bl	8628 <__adddf3>
    4dfe:	e9cd 0104 	strd	r0, r1, [sp, #16]
    4e02:	4630      	mov	r0, r6
    4e04:	f003 fd5c 	bl	88c0 <__aeabi_i2d>
    4e08:	a35b      	add	r3, pc, #364	; (adr r3, 4f78 <_dtoa_r+0x26c>)
    4e0a:	e9d3 2300 	ldrd	r2, r3, [r3]
    4e0e:	f003 fdbd 	bl	898c <__aeabi_dmul>
    4e12:	4602      	mov	r2, r0
    4e14:	460b      	mov	r3, r1
    4e16:	e9dd 0104 	ldrd	r0, r1, [sp, #16]
    4e1a:	f003 fc05 	bl	8628 <__adddf3>
    4e1e:	e9cd 0104 	strd	r0, r1, [sp, #16]
    4e22:	f004 f84d 	bl	8ec0 <__aeabi_d2iz>
    4e26:	2200      	movs	r2, #0
    4e28:	2300      	movs	r3, #0
    4e2a:	4605      	mov	r5, r0
    4e2c:	e9dd 0104 	ldrd	r0, r1, [sp, #16]
    4e30:	f004 f81e 	bl	8e70 <__aeabi_dcmplt>
    4e34:	b140      	cbz	r0, 4e48 <_dtoa_r+0x13c>
    4e36:	4628      	mov	r0, r5
    4e38:	f003 fd42 	bl	88c0 <__aeabi_i2d>
    4e3c:	e9dd 2304 	ldrd	r2, r3, [sp, #16]
    4e40:	f004 f80c 	bl	8e5c <__aeabi_dcmpeq>
    4e44:	b900      	cbnz	r0, 4e48 <_dtoa_r+0x13c>
    4e46:	3d01      	subs	r5, #1
    4e48:	2d16      	cmp	r5, #22
    4e4a:	f200 8262 	bhi.w	5312 <_dtoa_r+0x606>
    4e4e:	f649 3120 	movw	r1, #39712	; 0x9b20
    4e52:	4642      	mov	r2, r8
    4e54:	f2c0 0100 	movt	r1, #0
    4e58:	464b      	mov	r3, r9
    4e5a:	eb01 01c5 	add.w	r1, r1, r5, lsl #3
    4e5e:	e9d1 0100 	ldrd	r0, r1, [r1]
    4e62:	f004 f823 	bl	8eac <__aeabi_dcmpgt>
    4e66:	2800      	cmp	r0, #0
    4e68:	f000 830e 	beq.w	5488 <_dtoa_r+0x77c>
    4e6c:	3d01      	subs	r5, #1
    4e6e:	2000      	movs	r0, #0
    4e70:	9016      	str	r0, [sp, #88]	; 0x58
    4e72:	3f01      	subs	r7, #1
    4e74:	1bbe      	subs	r6, r7, r6
    4e76:	f100 8302 	bmi.w	547e <_dtoa_r+0x772>
    4e7a:	2700      	movs	r7, #0
    4e7c:	960e      	str	r6, [sp, #56]	; 0x38
    4e7e:	9712      	str	r7, [sp, #72]	; 0x48
    4e80:	2d00      	cmp	r5, #0
    4e82:	f2c0 82f4 	blt.w	546e <_dtoa_r+0x762>
    4e86:	980e      	ldr	r0, [sp, #56]	; 0x38
    4e88:	f04f 0b00 	mov.w	fp, #0
    4e8c:	9515      	str	r5, [sp, #84]	; 0x54
    4e8e:	1940      	adds	r0, r0, r5
    4e90:	900e      	str	r0, [sp, #56]	; 0x38
    4e92:	9b28      	ldr	r3, [sp, #160]	; 0xa0
    4e94:	2b09      	cmp	r3, #9
    4e96:	d875      	bhi.n	4f84 <_dtoa_r+0x278>
    4e98:	2b05      	cmp	r3, #5
    4e9a:	f340 869b 	ble.w	5bd4 <_dtoa_r+0xec8>
    4e9e:	2700      	movs	r7, #0
    4ea0:	3b04      	subs	r3, #4
    4ea2:	9328      	str	r3, [sp, #160]	; 0xa0
    4ea4:	9828      	ldr	r0, [sp, #160]	; 0xa0
    4ea6:	1e83      	subs	r3, r0, #2
    4ea8:	2b03      	cmp	r3, #3
    4eaa:	f200 8413 	bhi.w	56d4 <_dtoa_r+0x9c8>
    4eae:	e8df f013 	tbh	[pc, r3, lsl #1]
    4eb2:	040b      	.short	0x040b
    4eb4:	03db03fa 	.word	0x03db03fa
    4eb8:	040e      	.short	0x040e
    4eba:	982a      	ldr	r0, [sp, #168]	; 0xa8
    4ebc:	f242 730f 	movw	r3, #9999	; 0x270f
    4ec0:	6003      	str	r3, [r0, #0]
    4ec2:	f649 20f8 	movw	r0, #39672	; 0x9af8
    4ec6:	f2c0 0000 	movt	r0, #0
    4eca:	f1b8 0f00 	cmp.w	r8, #0
    4ece:	d011      	beq.n	4ef4 <_dtoa_r+0x1e8>
    4ed0:	992c      	ldr	r1, [sp, #176]	; 0xb0
    4ed2:	2900      	cmp	r1, #0
    4ed4:	f43f af5b 	beq.w	4d8e <_dtoa_r+0x82>
    4ed8:	78c2      	ldrb	r2, [r0, #3]
    4eda:	1cc3      	adds	r3, r0, #3
    4edc:	b10a      	cbz	r2, 4ee2 <_dtoa_r+0x1d6>
    4ede:	f100 0308 	add.w	r3, r0, #8
    4ee2:	9a2c      	ldr	r2, [sp, #176]	; 0xb0
    4ee4:	6013      	str	r3, [r2, #0]
    4ee6:	e752      	b.n	4d8e <_dtoa_r+0x82>
    4ee8:	f025 4500 	bic.w	r5, r5, #2147483648	; 0x80000000
    4eec:	2301      	movs	r3, #1
    4eee:	46a9      	mov	r9, r5
    4ef0:	6033      	str	r3, [r6, #0]
    4ef2:	e729      	b.n	4d48 <_dtoa_r+0x3c>
    4ef4:	f649 22ec 	movw	r2, #39660	; 0x9aec
    4ef8:	f649 23f8 	movw	r3, #39672	; 0x9af8
    4efc:	f3c5 0013 	ubfx	r0, r5, #0, #20
    4f00:	f2c0 0200 	movt	r2, #0
    4f04:	f2c0 0300 	movt	r3, #0
    4f08:	2800      	cmp	r0, #0
    4f0a:	bf0c      	ite	eq
    4f0c:	4610      	moveq	r0, r2
    4f0e:	4618      	movne	r0, r3
    4f10:	e7de      	b.n	4ed0 <_dtoa_r+0x1c4>
    4f12:	9f1d      	ldr	r7, [sp, #116]	; 0x74
    4f14:	9b1c      	ldr	r3, [sp, #112]	; 0x70
    4f16:	18fb      	adds	r3, r7, r3
    4f18:	f503 6386 	add.w	r3, r3, #1072	; 0x430
    4f1c:	1c9e      	adds	r6, r3, #2
    4f1e:	2e20      	cmp	r6, #32
    4f20:	bfdc      	itt	le
    4f22:	f1c6 0020 	rsble	r0, r6, #32
    4f26:	fa08 f000 	lslle.w	r0, r8, r0
    4f2a:	dd07      	ble.n	4f3c <_dtoa_r+0x230>
    4f2c:	f1c6 0040 	rsb	r0, r6, #64	; 0x40
    4f30:	3b1e      	subs	r3, #30
    4f32:	4085      	lsls	r5, r0
    4f34:	fa28 f303 	lsr.w	r3, r8, r3
    4f38:	ea45 0003 	orr.w	r0, r5, r3
    4f3c:	2101      	movs	r1, #1
    4f3e:	9117      	str	r1, [sp, #92]	; 0x5c
    4f40:	f003 fcae 	bl	88a0 <__aeabi_ui2d>
    4f44:	f5a6 6686 	sub.w	r6, r6, #1072	; 0x430
    4f48:	3e03      	subs	r6, #3
    4f4a:	460b      	mov	r3, r1
    4f4c:	4602      	mov	r2, r0
    4f4e:	e9cd 2304 	strd	r2, r3, [sp, #16]
    4f52:	9b05      	ldr	r3, [sp, #20]
    4f54:	f1a3 73f8 	sub.w	r3, r3, #32505856	; 0x1f00000
    4f58:	9305      	str	r3, [sp, #20]
    4f5a:	e73e      	b.n	4dda <_dtoa_r+0xce>
    4f5c:	f649 20e8 	movw	r0, #39656	; 0x9ae8
    4f60:	f2c0 0000 	movt	r0, #0
    4f64:	e713      	b.n	4d8e <_dtoa_r+0x82>
    4f66:	bf00      	nop
    4f68:	636f4361 	.word	0x636f4361
    4f6c:	3fd287a7 	.word	0x3fd287a7
    4f70:	8b60c8b3 	.word	0x8b60c8b3
    4f74:	3fc68a28 	.word	0x3fc68a28
    4f78:	509f79fb 	.word	0x509f79fb
    4f7c:	3fd34413 	.word	0x3fd34413
    4f80:	00009ae9 	.word	0x00009ae9
    4f84:	2000      	movs	r0, #0
    4f86:	f04f 31ff 	mov.w	r1, #4294967295
    4f8a:	4607      	mov	r7, r0
    4f8c:	2201      	movs	r2, #1
    4f8e:	9028      	str	r0, [sp, #160]	; 0xa0
    4f90:	9113      	str	r1, [sp, #76]	; 0x4c
    4f92:	9214      	str	r2, [sp, #80]	; 0x50
    4f94:	910d      	str	r1, [sp, #52]	; 0x34
    4f96:	9029      	str	r0, [sp, #164]	; 0xa4
    4f98:	6a66      	ldr	r6, [r4, #36]	; 0x24
    4f9a:	2300      	movs	r3, #0
    4f9c:	6073      	str	r3, [r6, #4]
    4f9e:	4620      	mov	r0, r4
    4fa0:	6871      	ldr	r1, [r6, #4]
    4fa2:	f001 fa2b 	bl	63fc <_Balloc>
    4fa6:	6a63      	ldr	r3, [r4, #36]	; 0x24
    4fa8:	6030      	str	r0, [r6, #0]
    4faa:	681b      	ldr	r3, [r3, #0]
    4fac:	930f      	str	r3, [sp, #60]	; 0x3c
    4fae:	2f00      	cmp	r7, #0
    4fb0:	f000 80eb 	beq.w	518a <_dtoa_r+0x47e>
    4fb4:	2d00      	cmp	r5, #0
    4fb6:	4640      	mov	r0, r8
    4fb8:	4649      	mov	r1, r9
    4fba:	e9cd 890a 	strd	r8, r9, [sp, #40]	; 0x28
    4fbe:	e9cd 0104 	strd	r0, r1, [sp, #16]
    4fc2:	f340 8431 	ble.w	5828 <_dtoa_r+0xb1c>
    4fc6:	f649 3320 	movw	r3, #39712	; 0x9b20
    4fca:	f005 020f 	and.w	r2, r5, #15
    4fce:	f2c0 0300 	movt	r3, #0
    4fd2:	112e      	asrs	r6, r5, #4
    4fd4:	eb03 03c2 	add.w	r3, r3, r2, lsl #3
    4fd8:	f016 0f10 	tst.w	r6, #16
    4fdc:	bf08      	it	eq
    4fde:	f04f 0802 	moveq.w	r8, #2
    4fe2:	e9d3 0100 	ldrd	r0, r1, [r3]
    4fe6:	e9cd 0110 	strd	r0, r1, [sp, #64]	; 0x40
    4fea:	f040 8250 	bne.w	548e <_dtoa_r+0x782>
    4fee:	b1be      	cbz	r6, 5020 <_dtoa_r+0x314>
    4ff0:	f649 37e8 	movw	r7, #39912	; 0x9be8
    4ff4:	e9dd 2310 	ldrd	r2, r3, [sp, #64]	; 0x40
    4ff8:	f2c0 0700 	movt	r7, #0
    4ffc:	f016 0f01 	tst.w	r6, #1
    5000:	4610      	mov	r0, r2
    5002:	4619      	mov	r1, r3
    5004:	d007      	beq.n	5016 <_dtoa_r+0x30a>
    5006:	e9d7 2300 	ldrd	r2, r3, [r7]
    500a:	f108 0801 	add.w	r8, r8, #1
    500e:	f003 fcbd 	bl	898c <__aeabi_dmul>
    5012:	4602      	mov	r2, r0
    5014:	460b      	mov	r3, r1
    5016:	3708      	adds	r7, #8
    5018:	1076      	asrs	r6, r6, #1
    501a:	d1ef      	bne.n	4ffc <_dtoa_r+0x2f0>
    501c:	e9cd 2310 	strd	r2, r3, [sp, #64]	; 0x40
    5020:	e9dd 010a 	ldrd	r0, r1, [sp, #40]	; 0x28
    5024:	e9dd 2310 	ldrd	r2, r3, [sp, #64]	; 0x40
    5028:	f003 fdda 	bl	8be0 <__aeabi_ddiv>
    502c:	e9cd 010a 	strd	r0, r1, [sp, #40]	; 0x28
    5030:	9916      	ldr	r1, [sp, #88]	; 0x58
    5032:	2900      	cmp	r1, #0
    5034:	d03d      	beq.n	50b2 <_dtoa_r+0x3a6>
    5036:	2300      	movs	r3, #0
    5038:	e9dd 010a 	ldrd	r0, r1, [sp, #40]	; 0x28
    503c:	2200      	movs	r2, #0
    503e:	f6c3 73f0 	movt	r3, #16368	; 0x3ff0
    5042:	2601      	movs	r6, #1
    5044:	f003 ff14 	bl	8e70 <__aeabi_dcmplt>
    5048:	2800      	cmp	r0, #0
    504a:	f000 830b 	beq.w	5664 <_dtoa_r+0x958>
    504e:	9a0d      	ldr	r2, [sp, #52]	; 0x34
    5050:	2a00      	cmp	r2, #0
    5052:	bfd4      	ite	le
    5054:	2600      	movle	r6, #0
    5056:	f006 0601 	andgt.w	r6, r6, #1
    505a:	b356      	cbz	r6, 50b2 <_dtoa_r+0x3a6>
    505c:	9b13      	ldr	r3, [sp, #76]	; 0x4c
    505e:	2b00      	cmp	r3, #0
    5060:	f340 808f 	ble.w	5182 <_dtoa_r+0x476>
    5064:	2300      	movs	r3, #0
    5066:	2200      	movs	r2, #0
    5068:	f2c4 0324 	movt	r3, #16420	; 0x4024
    506c:	e9dd 010a 	ldrd	r0, r1, [sp, #40]	; 0x28
    5070:	f003 fc8c 	bl	898c <__aeabi_dmul>
    5074:	1e6f      	subs	r7, r5, #1
    5076:	9719      	str	r7, [sp, #100]	; 0x64
    5078:	e9cd 010a 	strd	r0, r1, [sp, #40]	; 0x28
    507c:	f108 0001 	add.w	r0, r8, #1
    5080:	f003 fc1e 	bl	88c0 <__aeabi_i2d>
    5084:	4602      	mov	r2, r0
    5086:	460b      	mov	r3, r1
    5088:	e9dd 010a 	ldrd	r0, r1, [sp, #40]	; 0x28
    508c:	f003 fc7e 	bl	898c <__aeabi_dmul>
    5090:	2300      	movs	r3, #0
    5092:	2200      	movs	r2, #0
    5094:	f2c4 031c 	movt	r3, #16412	; 0x401c
    5098:	f003 fac6 	bl	8628 <__adddf3>
    509c:	f8dd 904c 	ldr.w	r9, [sp, #76]	; 0x4c
    50a0:	460b      	mov	r3, r1
    50a2:	4602      	mov	r2, r0
    50a4:	e9cd 2310 	strd	r2, r3, [sp, #64]	; 0x40
    50a8:	9b11      	ldr	r3, [sp, #68]	; 0x44
    50aa:	f1a3 7350 	sub.w	r3, r3, #54525952	; 0x3400000
    50ae:	9311      	str	r3, [sp, #68]	; 0x44
    50b0:	e23c      	b.n	552c <_dtoa_r+0x820>
    50b2:	4640      	mov	r0, r8
    50b4:	f003 fc04 	bl	88c0 <__aeabi_i2d>
    50b8:	e9dd 230a 	ldrd	r2, r3, [sp, #40]	; 0x28
    50bc:	f003 fc66 	bl	898c <__aeabi_dmul>
    50c0:	2300      	movs	r3, #0
    50c2:	2200      	movs	r2, #0
    50c4:	f2c4 031c 	movt	r3, #16412	; 0x401c
    50c8:	f003 faae 	bl	8628 <__adddf3>
    50cc:	4602      	mov	r2, r0
    50ce:	460b      	mov	r3, r1
    50d0:	e9cd 2310 	strd	r2, r3, [sp, #64]	; 0x40
    50d4:	9b11      	ldr	r3, [sp, #68]	; 0x44
    50d6:	980d      	ldr	r0, [sp, #52]	; 0x34
    50d8:	f1a3 7650 	sub.w	r6, r3, #54525952	; 0x3400000
    50dc:	9611      	str	r6, [sp, #68]	; 0x44
    50de:	2800      	cmp	r0, #0
    50e0:	f040 8221 	bne.w	5526 <_dtoa_r+0x81a>
    50e4:	2300      	movs	r3, #0
    50e6:	2200      	movs	r2, #0
    50e8:	f2c4 0314 	movt	r3, #16404	; 0x4014
    50ec:	e9dd 010a 	ldrd	r0, r1, [sp, #40]	; 0x28
    50f0:	f003 fa98 	bl	8624 <__aeabi_dsub>
    50f4:	9f10      	ldr	r7, [sp, #64]	; 0x40
    50f6:	4633      	mov	r3, r6
    50f8:	463a      	mov	r2, r7
    50fa:	4680      	mov	r8, r0
    50fc:	4689      	mov	r9, r1
    50fe:	f003 fed5 	bl	8eac <__aeabi_dcmpgt>
    5102:	2800      	cmp	r0, #0
    5104:	f040 820a 	bne.w	551c <_dtoa_r+0x810>
    5108:	9810      	ldr	r0, [sp, #64]	; 0x40
    510a:	4649      	mov	r1, r9
    510c:	f106 4300 	add.w	r3, r6, #2147483648	; 0x80000000
    5110:	4602      	mov	r2, r0
    5112:	4640      	mov	r0, r8
    5114:	f003 feac 	bl	8e70 <__aeabi_dcmplt>
    5118:	2800      	cmp	r0, #0
    511a:	d032      	beq.n	5182 <_dtoa_r+0x476>
    511c:	f8dd b034 	ldr.w	fp, [sp, #52]	; 0x34
    5120:	f8cd b028 	str.w	fp, [sp, #40]	; 0x28
    5124:	9a29      	ldr	r2, [sp, #164]	; 0xa4
    5126:	2700      	movs	r7, #0
    5128:	9e0f      	ldr	r6, [sp, #60]	; 0x3c
    512a:	43d5      	mvns	r5, r2
    512c:	4620      	mov	r0, r4
    512e:	4659      	mov	r1, fp
    5130:	f001 f998 	bl	6464 <_Bfree>
    5134:	9a0a      	ldr	r2, [sp, #40]	; 0x28
    5136:	b172      	cbz	r2, 5156 <_dtoa_r+0x44a>
    5138:	1e3b      	subs	r3, r7, #0
    513a:	bf18      	it	ne
    513c:	2301      	movne	r3, #1
    513e:	4297      	cmp	r7, r2
    5140:	bf0c      	ite	eq
    5142:	2300      	moveq	r3, #0
    5144:	f003 0301 	andne.w	r3, r3, #1
    5148:	2b00      	cmp	r3, #0
    514a:	f040 8356 	bne.w	57fa <_dtoa_r+0xaee>
    514e:	4620      	mov	r0, r4
    5150:	990a      	ldr	r1, [sp, #40]	; 0x28
    5152:	f001 f987 	bl	6464 <_Bfree>
    5156:	4620      	mov	r0, r4
    5158:	4651      	mov	r1, sl
    515a:	f001 f983 	bl	6464 <_Bfree>
    515e:	2300      	movs	r3, #0
    5160:	7033      	strb	r3, [r6, #0]
    5162:	3501      	adds	r5, #1
    5164:	9b2a      	ldr	r3, [sp, #168]	; 0xa8
    5166:	9f2c      	ldr	r7, [sp, #176]	; 0xb0
    5168:	601d      	str	r5, [r3, #0]
    516a:	2f00      	cmp	r7, #0
    516c:	f000 8413 	beq.w	5996 <_dtoa_r+0xc8a>
    5170:	603e      	str	r6, [r7, #0]
    5172:	980f      	ldr	r0, [sp, #60]	; 0x3c
    5174:	e60b      	b.n	4d8e <_dtoa_r+0x82>
    5176:	f8dd b068 	ldr.w	fp, [sp, #104]	; 0x68
    517a:	9d1b      	ldr	r5, [sp, #108]	; 0x6c
    517c:	f8dd a060 	ldr.w	sl, [sp, #96]	; 0x60
    5180:	9c0a      	ldr	r4, [sp, #40]	; 0x28
    5182:	e9dd 2304 	ldrd	r2, r3, [sp, #16]
    5186:	4690      	mov	r8, r2
    5188:	4699      	mov	r9, r3
    518a:	9b1c      	ldr	r3, [sp, #112]	; 0x70
    518c:	43df      	mvns	r7, r3
    518e:	0fff      	lsrs	r7, r7, #31
    5190:	2d0e      	cmp	r5, #14
    5192:	bfcc      	ite	gt
    5194:	2700      	movgt	r7, #0
    5196:	f007 0701 	andle.w	r7, r7, #1
    519a:	2f00      	cmp	r7, #0
    519c:	f000 80bc 	beq.w	5318 <_dtoa_r+0x60c>
    51a0:	9829      	ldr	r0, [sp, #164]	; 0xa4
    51a2:	f649 3320 	movw	r3, #39712	; 0x9b20
    51a6:	f2c0 0300 	movt	r3, #0
    51aa:	990d      	ldr	r1, [sp, #52]	; 0x34
    51ac:	eb03 03c5 	add.w	r3, r3, r5, lsl #3
    51b0:	0fc7      	lsrs	r7, r0, #31
    51b2:	2900      	cmp	r1, #0
    51b4:	bfcc      	ite	gt
    51b6:	2700      	movgt	r7, #0
    51b8:	f007 0701 	andle.w	r7, r7, #1
    51bc:	e9d3 0100 	ldrd	r0, r1, [r3]
    51c0:	e9cd 0106 	strd	r0, r1, [sp, #24]
    51c4:	2f00      	cmp	r7, #0
    51c6:	f040 8196 	bne.w	54f6 <_dtoa_r+0x7ea>
    51ca:	4602      	mov	r2, r0
    51cc:	460b      	mov	r3, r1
    51ce:	4640      	mov	r0, r8
    51d0:	4649      	mov	r1, r9
    51d2:	f003 fd05 	bl	8be0 <__aeabi_ddiv>
    51d6:	9e0f      	ldr	r6, [sp, #60]	; 0x3c
    51d8:	f003 fe72 	bl	8ec0 <__aeabi_d2iz>
    51dc:	4683      	mov	fp, r0
    51de:	f003 fb6f 	bl	88c0 <__aeabi_i2d>
    51e2:	e9dd 2306 	ldrd	r2, r3, [sp, #24]
    51e6:	f003 fbd1 	bl	898c <__aeabi_dmul>
    51ea:	4602      	mov	r2, r0
    51ec:	460b      	mov	r3, r1
    51ee:	4640      	mov	r0, r8
    51f0:	4649      	mov	r1, r9
    51f2:	f003 fa17 	bl	8624 <__aeabi_dsub>
    51f6:	f10b 0330 	add.w	r3, fp, #48	; 0x30
    51fa:	e9cd 0104 	strd	r0, r1, [sp, #16]
    51fe:	f806 3b01 	strb.w	r3, [r6], #1
    5202:	9a0d      	ldr	r2, [sp, #52]	; 0x34
    5204:	2a01      	cmp	r2, #1
    5206:	d053      	beq.n	52b0 <_dtoa_r+0x5a4>
    5208:	2300      	movs	r3, #0
    520a:	2200      	movs	r2, #0
    520c:	f2c4 0324 	movt	r3, #16420	; 0x4024
    5210:	f04f 0801 	mov.w	r8, #1
    5214:	f003 fbba 	bl	898c <__aeabi_dmul>
    5218:	2200      	movs	r2, #0
    521a:	2300      	movs	r3, #0
    521c:	e9cd 0104 	strd	r0, r1, [sp, #16]
    5220:	f003 fe1c 	bl	8e5c <__aeabi_dcmpeq>
    5224:	b100      	cbz	r0, 5228 <_dtoa_r+0x51c>
    5226:	46b8      	mov	r8, r7
    5228:	f018 0fff 	tst.w	r8, #255	; 0xff
    522c:	d093      	beq.n	5156 <_dtoa_r+0x44a>
    522e:	f8dd 9034 	ldr.w	r9, [sp, #52]	; 0x34
    5232:	4637      	mov	r7, r6
    5234:	f8cd a034 	str.w	sl, [sp, #52]	; 0x34
    5238:	f04f 0801 	mov.w	r8, #1
    523c:	9509      	str	r5, [sp, #36]	; 0x24
    523e:	46a2      	mov	sl, r4
    5240:	e00d      	b.n	525e <_dtoa_r+0x552>
    5242:	f003 fba3 	bl	898c <__aeabi_dmul>
    5246:	2200      	movs	r2, #0
    5248:	2300      	movs	r3, #0
    524a:	e9cd 0104 	strd	r0, r1, [sp, #16]
    524e:	f003 fe05 	bl	8e5c <__aeabi_dcmpeq>
    5252:	b100      	cbz	r0, 5256 <_dtoa_r+0x54a>
    5254:	2400      	movs	r4, #0
    5256:	f014 0fff 	tst.w	r4, #255	; 0xff
    525a:	f000 840d 	beq.w	5a78 <_dtoa_r+0xd6c>
    525e:	e9dd 2306 	ldrd	r2, r3, [sp, #24]
    5262:	f108 0801 	add.w	r8, r8, #1
    5266:	e9dd 0104 	ldrd	r0, r1, [sp, #16]
    526a:	2401      	movs	r4, #1
    526c:	f003 fcb8 	bl	8be0 <__aeabi_ddiv>
    5270:	f003 fe26 	bl	8ec0 <__aeabi_d2iz>
    5274:	4683      	mov	fp, r0
    5276:	f003 fb23 	bl	88c0 <__aeabi_i2d>
    527a:	e9dd 2306 	ldrd	r2, r3, [sp, #24]
    527e:	f10b 0530 	add.w	r5, fp, #48	; 0x30
    5282:	f003 fb83 	bl	898c <__aeabi_dmul>
    5286:	4602      	mov	r2, r0
    5288:	460b      	mov	r3, r1
    528a:	e9dd 0104 	ldrd	r0, r1, [sp, #16]
    528e:	f003 f9c9 	bl	8624 <__aeabi_dsub>
    5292:	2300      	movs	r3, #0
    5294:	2200      	movs	r2, #0
    5296:	45c1      	cmp	r9, r8
    5298:	f2c4 0324 	movt	r3, #16420	; 0x4024
    529c:	e9cd 0104 	strd	r0, r1, [sp, #16]
    52a0:	f807 5b01 	strb.w	r5, [r7], #1
    52a4:	463e      	mov	r6, r7
    52a6:	d1cc      	bne.n	5242 <_dtoa_r+0x536>
    52a8:	4654      	mov	r4, sl
    52aa:	9d09      	ldr	r5, [sp, #36]	; 0x24
    52ac:	f8dd a034 	ldr.w	sl, [sp, #52]	; 0x34
    52b0:	e9dd 0104 	ldrd	r0, r1, [sp, #16]
    52b4:	4602      	mov	r2, r0
    52b6:	460b      	mov	r3, r1
    52b8:	f003 f9b6 	bl	8628 <__adddf3>
    52bc:	4680      	mov	r8, r0
    52be:	4689      	mov	r9, r1
    52c0:	4642      	mov	r2, r8
    52c2:	e9dd 0106 	ldrd	r0, r1, [sp, #24]
    52c6:	464b      	mov	r3, r9
    52c8:	f003 fdd2 	bl	8e70 <__aeabi_dcmplt>
    52cc:	b960      	cbnz	r0, 52e8 <_dtoa_r+0x5dc>
    52ce:	e9dd 0106 	ldrd	r0, r1, [sp, #24]
    52d2:	4642      	mov	r2, r8
    52d4:	464b      	mov	r3, r9
    52d6:	f003 fdc1 	bl	8e5c <__aeabi_dcmpeq>
    52da:	2800      	cmp	r0, #0
    52dc:	f43f af3b 	beq.w	5156 <_dtoa_r+0x44a>
    52e0:	f01b 0f01 	tst.w	fp, #1
    52e4:	f43f af37 	beq.w	5156 <_dtoa_r+0x44a>
    52e8:	9519      	str	r5, [sp, #100]	; 0x64
    52ea:	980f      	ldr	r0, [sp, #60]	; 0x3c
    52ec:	4633      	mov	r3, r6
    52ee:	f813 1c01 	ldrb.w	r1, [r3, #-1]
    52f2:	1e5a      	subs	r2, r3, #1
    52f4:	461e      	mov	r6, r3
    52f6:	4613      	mov	r3, r2
    52f8:	2939      	cmp	r1, #57	; 0x39
    52fa:	f040 83df 	bne.w	5abc <_dtoa_r+0xdb0>
    52fe:	4298      	cmp	r0, r3
    5300:	d1f5      	bne.n	52ee <_dtoa_r+0x5e2>
    5302:	980f      	ldr	r0, [sp, #60]	; 0x3c
    5304:	2330      	movs	r3, #48	; 0x30
    5306:	9f19      	ldr	r7, [sp, #100]	; 0x64
    5308:	7003      	strb	r3, [r0, #0]
    530a:	1c7d      	adds	r5, r7, #1
    530c:	2331      	movs	r3, #49	; 0x31
    530e:	7013      	strb	r3, [r2, #0]
    5310:	e721      	b.n	5156 <_dtoa_r+0x44a>
    5312:	2101      	movs	r1, #1
    5314:	9116      	str	r1, [sp, #88]	; 0x58
    5316:	e5ac      	b.n	4e72 <_dtoa_r+0x166>
    5318:	9914      	ldr	r1, [sp, #80]	; 0x50
    531a:	2900      	cmp	r1, #0
    531c:	f040 80c8 	bne.w	54b0 <_dtoa_r+0x7a4>
    5320:	9b14      	ldr	r3, [sp, #80]	; 0x50
    5322:	465f      	mov	r7, fp
    5324:	9e12      	ldr	r6, [sp, #72]	; 0x48
    5326:	930a      	str	r3, [sp, #40]	; 0x28
    5328:	2e00      	cmp	r6, #0
    532a:	980e      	ldr	r0, [sp, #56]	; 0x38
    532c:	bfd4      	ite	le
    532e:	2300      	movle	r3, #0
    5330:	2301      	movgt	r3, #1
    5332:	2800      	cmp	r0, #0
    5334:	bfd4      	ite	le
    5336:	2300      	movle	r3, #0
    5338:	f003 0301 	andgt.w	r3, r3, #1
    533c:	b14b      	cbz	r3, 5352 <_dtoa_r+0x646>
    533e:	4603      	mov	r3, r0
    5340:	9912      	ldr	r1, [sp, #72]	; 0x48
    5342:	42b3      	cmp	r3, r6
    5344:	bfa8      	it	ge
    5346:	4633      	movge	r3, r6
    5348:	1af6      	subs	r6, r6, r3
    534a:	1ac9      	subs	r1, r1, r3
    534c:	1ac0      	subs	r0, r0, r3
    534e:	9112      	str	r1, [sp, #72]	; 0x48
    5350:	900e      	str	r0, [sp, #56]	; 0x38
    5352:	f1bb 0f00 	cmp.w	fp, #0
    5356:	dd1c      	ble.n	5392 <_dtoa_r+0x686>
    5358:	9a14      	ldr	r2, [sp, #80]	; 0x50
    535a:	2a00      	cmp	r2, #0
    535c:	f000 8392 	beq.w	5a84 <_dtoa_r+0xd78>
    5360:	2f00      	cmp	r7, #0
    5362:	dd12      	ble.n	538a <_dtoa_r+0x67e>
    5364:	990a      	ldr	r1, [sp, #40]	; 0x28
    5366:	463a      	mov	r2, r7
    5368:	4620      	mov	r0, r4
    536a:	f001 fa13 	bl	6794 <__pow5mult>
    536e:	4652      	mov	r2, sl
    5370:	900a      	str	r0, [sp, #40]	; 0x28
    5372:	4620      	mov	r0, r4
    5374:	990a      	ldr	r1, [sp, #40]	; 0x28
    5376:	f001 f979 	bl	666c <__multiply>
    537a:	4651      	mov	r1, sl
    537c:	4603      	mov	r3, r0
    537e:	4620      	mov	r0, r4
    5380:	9303      	str	r3, [sp, #12]
    5382:	f001 f86f 	bl	6464 <_Bfree>
    5386:	9b03      	ldr	r3, [sp, #12]
    5388:	469a      	mov	sl, r3
    538a:	ebbb 0207 	subs.w	r2, fp, r7
    538e:	f040 8380 	bne.w	5a92 <_dtoa_r+0xd86>
    5392:	2101      	movs	r1, #1
    5394:	4620      	mov	r0, r4
    5396:	f001 f95f 	bl	6658 <__i2b>
    539a:	9b15      	ldr	r3, [sp, #84]	; 0x54
    539c:	2b00      	cmp	r3, #0
    539e:	4683      	mov	fp, r0
    53a0:	dd05      	ble.n	53ae <_dtoa_r+0x6a2>
    53a2:	4659      	mov	r1, fp
    53a4:	4620      	mov	r0, r4
    53a6:	461a      	mov	r2, r3
    53a8:	f001 f9f4 	bl	6794 <__pow5mult>
    53ac:	4683      	mov	fp, r0
    53ae:	9f28      	ldr	r7, [sp, #160]	; 0xa0
    53b0:	2f01      	cmp	r7, #1
    53b2:	f340 8198 	ble.w	56e6 <_dtoa_r+0x9da>
    53b6:	2700      	movs	r7, #0
    53b8:	9a15      	ldr	r2, [sp, #84]	; 0x54
    53ba:	2a00      	cmp	r2, #0
    53bc:	f040 82ee 	bne.w	599c <_dtoa_r+0xc90>
    53c0:	2301      	movs	r3, #1
    53c2:	980e      	ldr	r0, [sp, #56]	; 0x38
    53c4:	181b      	adds	r3, r3, r0
    53c6:	f013 031f 	ands.w	r3, r3, #31
    53ca:	f000 821b 	beq.w	5804 <_dtoa_r+0xaf8>
    53ce:	f1c3 0320 	rsb	r3, r3, #32
    53d2:	2b04      	cmp	r3, #4
    53d4:	f340 83f2 	ble.w	5bbc <_dtoa_r+0xeb0>
    53d8:	3b04      	subs	r3, #4
    53da:	9912      	ldr	r1, [sp, #72]	; 0x48
    53dc:	18f6      	adds	r6, r6, r3
    53de:	18c0      	adds	r0, r0, r3
    53e0:	18c9      	adds	r1, r1, r3
    53e2:	900e      	str	r0, [sp, #56]	; 0x38
    53e4:	9112      	str	r1, [sp, #72]	; 0x48
    53e6:	9912      	ldr	r1, [sp, #72]	; 0x48
    53e8:	2900      	cmp	r1, #0
    53ea:	dd05      	ble.n	53f8 <_dtoa_r+0x6ec>
    53ec:	4651      	mov	r1, sl
    53ee:	4620      	mov	r0, r4
    53f0:	9a12      	ldr	r2, [sp, #72]	; 0x48
    53f2:	f001 fa21 	bl	6838 <__lshift>
    53f6:	4682      	mov	sl, r0
    53f8:	9a0e      	ldr	r2, [sp, #56]	; 0x38
    53fa:	2a00      	cmp	r2, #0
    53fc:	dd04      	ble.n	5408 <_dtoa_r+0x6fc>
    53fe:	4659      	mov	r1, fp
    5400:	4620      	mov	r0, r4
    5402:	f001 fa19 	bl	6838 <__lshift>
    5406:	4683      	mov	fp, r0
    5408:	9b16      	ldr	r3, [sp, #88]	; 0x58
    540a:	2b00      	cmp	r3, #0
    540c:	f040 82d0 	bne.w	59b0 <_dtoa_r+0xca4>
    5410:	9828      	ldr	r0, [sp, #160]	; 0xa0
    5412:	990d      	ldr	r1, [sp, #52]	; 0x34
    5414:	2802      	cmp	r0, #2
    5416:	bfd4      	ite	le
    5418:	2300      	movle	r3, #0
    541a:	2301      	movgt	r3, #1
    541c:	2900      	cmp	r1, #0
    541e:	bfcc      	ite	gt
    5420:	2300      	movgt	r3, #0
    5422:	f003 0301 	andle.w	r3, r3, #1
    5426:	2b00      	cmp	r3, #0
    5428:	f000 8177 	beq.w	571a <_dtoa_r+0xa0e>
    542c:	2900      	cmp	r1, #0
    542e:	f47f ae79 	bne.w	5124 <_dtoa_r+0x418>
    5432:	4659      	mov	r1, fp
    5434:	2205      	movs	r2, #5
    5436:	9b0d      	ldr	r3, [sp, #52]	; 0x34
    5438:	4620      	mov	r0, r4
    543a:	f001 f82f 	bl	649c <__multadd>
    543e:	4683      	mov	fp, r0
    5440:	4650      	mov	r0, sl
    5442:	4659      	mov	r1, fp
    5444:	f001 fa4e 	bl	68e4 <__mcmp>
    5448:	2800      	cmp	r0, #0
    544a:	f77f ae6b 	ble.w	5124 <_dtoa_r+0x418>
    544e:	9e0f      	ldr	r6, [sp, #60]	; 0x3c
    5450:	2331      	movs	r3, #49	; 0x31
    5452:	3501      	adds	r5, #1
    5454:	2700      	movs	r7, #0
    5456:	f806 3b01 	strb.w	r3, [r6], #1
    545a:	e667      	b.n	512c <_dtoa_r+0x420>
    545c:	2010      	movs	r0, #16
    545e:	f000 fc0f 	bl	5c80 <malloc>
    5462:	6260      	str	r0, [r4, #36]	; 0x24
    5464:	6045      	str	r5, [r0, #4]
    5466:	6085      	str	r5, [r0, #8]
    5468:	6005      	str	r5, [r0, #0]
    546a:	60c5      	str	r5, [r0, #12]
    546c:	e466      	b.n	4d3c <_dtoa_r+0x30>
    546e:	9912      	ldr	r1, [sp, #72]	; 0x48
    5470:	2200      	movs	r2, #0
    5472:	f1c5 0b00 	rsb	fp, r5, #0
    5476:	9215      	str	r2, [sp, #84]	; 0x54
    5478:	1b49      	subs	r1, r1, r5
    547a:	9112      	str	r1, [sp, #72]	; 0x48
    547c:	e509      	b.n	4e92 <_dtoa_r+0x186>
    547e:	4276      	negs	r6, r6
    5480:	2300      	movs	r3, #0
    5482:	9612      	str	r6, [sp, #72]	; 0x48
    5484:	930e      	str	r3, [sp, #56]	; 0x38
    5486:	e4fb      	b.n	4e80 <_dtoa_r+0x174>
    5488:	2200      	movs	r2, #0
    548a:	9216      	str	r2, [sp, #88]	; 0x58
    548c:	e4f1      	b.n	4e72 <_dtoa_r+0x166>
    548e:	f649 33e8 	movw	r3, #39912	; 0x9be8
    5492:	4640      	mov	r0, r8
    5494:	f2c0 0300 	movt	r3, #0
    5498:	4649      	mov	r1, r9
    549a:	f006 060f 	and.w	r6, r6, #15
    549e:	f04f 0803 	mov.w	r8, #3
    54a2:	e9d3 2308 	ldrd	r2, r3, [r3, #32]
    54a6:	f003 fb9b 	bl	8be0 <__aeabi_ddiv>
    54aa:	e9cd 010a 	strd	r0, r1, [sp, #40]	; 0x28
    54ae:	e59e      	b.n	4fee <_dtoa_r+0x2e2>
    54b0:	9a28      	ldr	r2, [sp, #160]	; 0xa0
    54b2:	2a01      	cmp	r2, #1
    54b4:	f340 82f3 	ble.w	5a9e <_dtoa_r+0xd92>
    54b8:	980d      	ldr	r0, [sp, #52]	; 0x34
    54ba:	9a0d      	ldr	r2, [sp, #52]	; 0x34
    54bc:	1e43      	subs	r3, r0, #1
    54be:	459b      	cmp	fp, r3
    54c0:	bfb7      	itett	lt
    54c2:	ebcb 0303 	rsblt	r3, fp, r3
    54c6:	ebc3 070b 	rsbge	r7, r3, fp
    54ca:	9915      	ldrlt	r1, [sp, #84]	; 0x54
    54cc:	449b      	addlt	fp, r3
    54ce:	bfbc      	itt	lt
    54d0:	18c9      	addlt	r1, r1, r3
    54d2:	9115      	strlt	r1, [sp, #84]	; 0x54
    54d4:	2a00      	cmp	r2, #0
    54d6:	f2c0 82fb 	blt.w	5ad0 <_dtoa_r+0xdc4>
    54da:	9e12      	ldr	r6, [sp, #72]	; 0x48
    54dc:	9b0d      	ldr	r3, [sp, #52]	; 0x34
    54de:	9a12      	ldr	r2, [sp, #72]	; 0x48
    54e0:	4620      	mov	r0, r4
    54e2:	2101      	movs	r1, #1
    54e4:	18d2      	adds	r2, r2, r3
    54e6:	9212      	str	r2, [sp, #72]	; 0x48
    54e8:	9a0e      	ldr	r2, [sp, #56]	; 0x38
    54ea:	18d2      	adds	r2, r2, r3
    54ec:	920e      	str	r2, [sp, #56]	; 0x38
    54ee:	f001 f8b3 	bl	6658 <__i2b>
    54f2:	900a      	str	r0, [sp, #40]	; 0x28
    54f4:	e718      	b.n	5328 <_dtoa_r+0x61c>
    54f6:	9b0d      	ldr	r3, [sp, #52]	; 0x34
    54f8:	2b00      	cmp	r3, #0
    54fa:	f040 82d9 	bne.w	5ab0 <_dtoa_r+0xda4>
    54fe:	2300      	movs	r3, #0
    5500:	2200      	movs	r2, #0
    5502:	f2c4 0314 	movt	r3, #16404	; 0x4014
    5506:	e9dd 0106 	ldrd	r0, r1, [sp, #24]
    550a:	f003 fa3f 	bl	898c <__aeabi_dmul>
    550e:	4642      	mov	r2, r8
    5510:	464b      	mov	r3, r9
    5512:	f003 fcc1 	bl	8e98 <__aeabi_dcmpge>
    5516:	2800      	cmp	r0, #0
    5518:	f47f ae00 	bne.w	511c <_dtoa_r+0x410>
    551c:	f8dd b034 	ldr.w	fp, [sp, #52]	; 0x34
    5520:	f8cd b028 	str.w	fp, [sp, #40]	; 0x28
    5524:	e793      	b.n	544e <_dtoa_r+0x742>
    5526:	f8dd 9034 	ldr.w	r9, [sp, #52]	; 0x34
    552a:	9519      	str	r5, [sp, #100]	; 0x64
    552c:	9914      	ldr	r1, [sp, #80]	; 0x50
    552e:	2900      	cmp	r1, #0
    5530:	f000 81ad 	beq.w	588e <_dtoa_r+0xb82>
    5534:	f649 3320 	movw	r3, #39712	; 0x9b20
    5538:	2100      	movs	r1, #0
    553a:	f2c0 0300 	movt	r3, #0
    553e:	2000      	movs	r0, #0
    5540:	eb03 03c9 	add.w	r3, r3, r9, lsl #3
    5544:	f6c3 71e0 	movt	r1, #16352	; 0x3fe0
    5548:	9e0f      	ldr	r6, [sp, #60]	; 0x3c
    554a:	e953 2302 	ldrd	r2, r3, [r3, #-8]
    554e:	f003 fb47 	bl	8be0 <__aeabi_ddiv>
    5552:	e9dd 2310 	ldrd	r2, r3, [sp, #64]	; 0x40
    5556:	f003 f865 	bl	8624 <__aeabi_dsub>
    555a:	e9cd 0110 	strd	r0, r1, [sp, #64]	; 0x40
    555e:	e9dd 010a 	ldrd	r0, r1, [sp, #40]	; 0x28
    5562:	f003 fcad 	bl	8ec0 <__aeabi_d2iz>
    5566:	4607      	mov	r7, r0
    5568:	f003 f9aa 	bl	88c0 <__aeabi_i2d>
    556c:	4602      	mov	r2, r0
    556e:	460b      	mov	r3, r1
    5570:	e9dd 010a 	ldrd	r0, r1, [sp, #40]	; 0x28
    5574:	f003 f856 	bl	8624 <__aeabi_dsub>
    5578:	f107 0330 	add.w	r3, r7, #48	; 0x30
    557c:	e9cd 010a 	strd	r0, r1, [sp, #40]	; 0x28
    5580:	e9dd 0110 	ldrd	r0, r1, [sp, #64]	; 0x40
    5584:	f806 3b01 	strb.w	r3, [r6], #1
    5588:	e9dd 230a 	ldrd	r2, r3, [sp, #40]	; 0x28
    558c:	f003 fc8e 	bl	8eac <__aeabi_dcmpgt>
    5590:	2800      	cmp	r0, #0
    5592:	f040 81fd 	bne.w	5990 <_dtoa_r+0xc84>
    5596:	2100      	movs	r1, #0
    5598:	e9dd 230a 	ldrd	r2, r3, [sp, #40]	; 0x28
    559c:	2000      	movs	r0, #0
    559e:	f6c3 71f0 	movt	r1, #16368	; 0x3ff0
    55a2:	f003 f83f 	bl	8624 <__aeabi_dsub>
    55a6:	4602      	mov	r2, r0
    55a8:	460b      	mov	r3, r1
    55aa:	e9dd 0110 	ldrd	r0, r1, [sp, #64]	; 0x40
    55ae:	f003 fc7d 	bl	8eac <__aeabi_dcmpgt>
    55b2:	2800      	cmp	r0, #0
    55b4:	f47f ae99 	bne.w	52ea <_dtoa_r+0x5de>
    55b8:	f1b9 0f01 	cmp.w	r9, #1
    55bc:	f77f ade1 	ble.w	5182 <_dtoa_r+0x476>
    55c0:	f8cd b068 	str.w	fp, [sp, #104]	; 0x68
    55c4:	4637      	mov	r7, r6
    55c6:	951b      	str	r5, [sp, #108]	; 0x6c
    55c8:	f04f 0801 	mov.w	r8, #1
    55cc:	f8cd a060 	str.w	sl, [sp, #96]	; 0x60
    55d0:	e9dd ab0a 	ldrd	sl, fp, [sp, #40]	; 0x28
    55d4:	940a      	str	r4, [sp, #40]	; 0x28
    55d6:	e9dd 4510 	ldrd	r4, r5, [sp, #64]	; 0x40
    55da:	e00f      	b.n	55fc <_dtoa_r+0x8f0>
    55dc:	2100      	movs	r1, #0
    55de:	2000      	movs	r0, #0
    55e0:	f6c3 71f0 	movt	r1, #16368	; 0x3ff0
    55e4:	f003 f81e 	bl	8624 <__aeabi_dsub>
    55e8:	4622      	mov	r2, r4
    55ea:	462b      	mov	r3, r5
    55ec:	f003 fc40 	bl	8e70 <__aeabi_dcmplt>
    55f0:	2800      	cmp	r0, #0
    55f2:	f040 8269 	bne.w	5ac8 <_dtoa_r+0xdbc>
    55f6:	45c8      	cmp	r8, r9
    55f8:	f6bf adbd 	bge.w	5176 <_dtoa_r+0x46a>
    55fc:	2300      	movs	r3, #0
    55fe:	2200      	movs	r2, #0
    5600:	f2c4 0324 	movt	r3, #16420	; 0x4024
    5604:	4620      	mov	r0, r4
    5606:	4629      	mov	r1, r5
    5608:	f108 0801 	add.w	r8, r8, #1
    560c:	f003 f9be 	bl	898c <__aeabi_dmul>
    5610:	2300      	movs	r3, #0
    5612:	2200      	movs	r2, #0
    5614:	f2c4 0324 	movt	r3, #16420	; 0x4024
    5618:	4604      	mov	r4, r0
    561a:	460d      	mov	r5, r1
    561c:	4650      	mov	r0, sl
    561e:	4659      	mov	r1, fp
    5620:	f003 f9b4 	bl	898c <__aeabi_dmul>
    5624:	468b      	mov	fp, r1
    5626:	4682      	mov	sl, r0
    5628:	f003 fc4a 	bl	8ec0 <__aeabi_d2iz>
    562c:	4606      	mov	r6, r0
    562e:	f003 f947 	bl	88c0 <__aeabi_i2d>
    5632:	3630      	adds	r6, #48	; 0x30
    5634:	4602      	mov	r2, r0
    5636:	460b      	mov	r3, r1
    5638:	4650      	mov	r0, sl
    563a:	4659      	mov	r1, fp
    563c:	f002 fff2 	bl	8624 <__aeabi_dsub>
    5640:	4622      	mov	r2, r4
    5642:	462b      	mov	r3, r5
    5644:	f807 6b01 	strb.w	r6, [r7], #1
    5648:	463e      	mov	r6, r7
    564a:	4682      	mov	sl, r0
    564c:	468b      	mov	fp, r1
    564e:	f003 fc0f 	bl	8e70 <__aeabi_dcmplt>
    5652:	4652      	mov	r2, sl
    5654:	465b      	mov	r3, fp
    5656:	2800      	cmp	r0, #0
    5658:	d0c0      	beq.n	55dc <_dtoa_r+0x8d0>
    565a:	f8dd a060 	ldr.w	sl, [sp, #96]	; 0x60
    565e:	9c0a      	ldr	r4, [sp, #40]	; 0x28
    5660:	9d19      	ldr	r5, [sp, #100]	; 0x64
    5662:	e578      	b.n	5156 <_dtoa_r+0x44a>
    5664:	2600      	movs	r6, #0
    5666:	e4f2      	b.n	504e <_dtoa_r+0x342>
    5668:	2301      	movs	r3, #1
    566a:	9314      	str	r3, [sp, #80]	; 0x50
    566c:	9929      	ldr	r1, [sp, #164]	; 0xa4
    566e:	2900      	cmp	r1, #0
    5670:	bfc2      	ittt	gt
    5672:	4608      	movgt	r0, r1
    5674:	9113      	strgt	r1, [sp, #76]	; 0x4c
    5676:	900d      	strgt	r0, [sp, #52]	; 0x34
    5678:	f340 81b0 	ble.w	59dc <_dtoa_r+0xcd0>
    567c:	6a66      	ldr	r6, [r4, #36]	; 0x24
    567e:	2200      	movs	r2, #0
    5680:	2817      	cmp	r0, #23
    5682:	6072      	str	r2, [r6, #4]
    5684:	f240 829e 	bls.w	5bc4 <_dtoa_r+0xeb8>
    5688:	2304      	movs	r3, #4
    568a:	005b      	lsls	r3, r3, #1
    568c:	3201      	adds	r2, #1
    568e:	f103 0114 	add.w	r1, r3, #20
    5692:	4281      	cmp	r1, r0
    5694:	d9f9      	bls.n	568a <_dtoa_r+0x97e>
    5696:	9b0d      	ldr	r3, [sp, #52]	; 0x34
    5698:	6072      	str	r2, [r6, #4]
    569a:	2b0e      	cmp	r3, #14
    569c:	bf8c      	ite	hi
    569e:	2700      	movhi	r7, #0
    56a0:	f007 0701 	andls.w	r7, r7, #1
    56a4:	e47b      	b.n	4f9e <_dtoa_r+0x292>
    56a6:	2300      	movs	r3, #0
    56a8:	9314      	str	r3, [sp, #80]	; 0x50
    56aa:	9829      	ldr	r0, [sp, #164]	; 0xa4
    56ac:	1828      	adds	r0, r5, r0
    56ae:	9013      	str	r0, [sp, #76]	; 0x4c
    56b0:	3001      	adds	r0, #1
    56b2:	2800      	cmp	r0, #0
    56b4:	bfc8      	it	gt
    56b6:	900d      	strgt	r0, [sp, #52]	; 0x34
    56b8:	dce0      	bgt.n	567c <_dtoa_r+0x970>
    56ba:	280e      	cmp	r0, #14
    56bc:	bf8c      	ite	hi
    56be:	2700      	movhi	r7, #0
    56c0:	f007 0701 	andls.w	r7, r7, #1
    56c4:	900d      	str	r0, [sp, #52]	; 0x34
    56c6:	e467      	b.n	4f98 <_dtoa_r+0x28c>
    56c8:	2000      	movs	r0, #0
    56ca:	9014      	str	r0, [sp, #80]	; 0x50
    56cc:	e7ce      	b.n	566c <_dtoa_r+0x960>
    56ce:	2201      	movs	r2, #1
    56d0:	9214      	str	r2, [sp, #80]	; 0x50
    56d2:	e7ea      	b.n	56aa <_dtoa_r+0x99e>
    56d4:	f04f 33ff 	mov.w	r3, #4294967295
    56d8:	2700      	movs	r7, #0
    56da:	2001      	movs	r0, #1
    56dc:	9313      	str	r3, [sp, #76]	; 0x4c
    56de:	9014      	str	r0, [sp, #80]	; 0x50
    56e0:	930d      	str	r3, [sp, #52]	; 0x34
    56e2:	9729      	str	r7, [sp, #164]	; 0xa4
    56e4:	e458      	b.n	4f98 <_dtoa_r+0x28c>
    56e6:	f1b8 0f00 	cmp.w	r8, #0
    56ea:	f47f ae64 	bne.w	53b6 <_dtoa_r+0x6aa>
    56ee:	f3c9 0313 	ubfx	r3, r9, #0, #20
    56f2:	4647      	mov	r7, r8
    56f4:	2b00      	cmp	r3, #0
    56f6:	f47f ae5f 	bne.w	53b8 <_dtoa_r+0x6ac>
    56fa:	f6c7 73f0 	movt	r3, #32752	; 0x7ff0
    56fe:	ea09 0303 	and.w	r3, r9, r3
    5702:	461f      	mov	r7, r3
    5704:	2b00      	cmp	r3, #0
    5706:	f43f ae57 	beq.w	53b8 <_dtoa_r+0x6ac>
    570a:	9812      	ldr	r0, [sp, #72]	; 0x48
    570c:	2701      	movs	r7, #1
    570e:	990e      	ldr	r1, [sp, #56]	; 0x38
    5710:	3001      	adds	r0, #1
    5712:	9012      	str	r0, [sp, #72]	; 0x48
    5714:	3101      	adds	r1, #1
    5716:	910e      	str	r1, [sp, #56]	; 0x38
    5718:	e64e      	b.n	53b8 <_dtoa_r+0x6ac>
    571a:	9b14      	ldr	r3, [sp, #80]	; 0x50
    571c:	2b00      	cmp	r3, #0
    571e:	f000 8163 	beq.w	59e8 <_dtoa_r+0xcdc>
    5722:	2e00      	cmp	r6, #0
    5724:	dd05      	ble.n	5732 <_dtoa_r+0xa26>
    5726:	4620      	mov	r0, r4
    5728:	990a      	ldr	r1, [sp, #40]	; 0x28
    572a:	4632      	mov	r2, r6
    572c:	f001 f884 	bl	6838 <__lshift>
    5730:	900a      	str	r0, [sp, #40]	; 0x28
    5732:	2f00      	cmp	r7, #0
    5734:	f040 81f0 	bne.w	5b18 <_dtoa_r+0xe0c>
    5738:	980a      	ldr	r0, [sp, #40]	; 0x28
    573a:	9004      	str	r0, [sp, #16]
    573c:	9e0f      	ldr	r6, [sp, #60]	; 0x3c
    573e:	f008 0101 	and.w	r1, r8, #1
    5742:	9f0a      	ldr	r7, [sp, #40]	; 0x28
    5744:	910e      	str	r1, [sp, #56]	; 0x38
    5746:	950a      	str	r5, [sp, #40]	; 0x28
    5748:	4659      	mov	r1, fp
    574a:	4650      	mov	r0, sl
    574c:	f7ff fa48 	bl	4be0 <quorem>
    5750:	4639      	mov	r1, r7
    5752:	f04f 0901 	mov.w	r9, #1
    5756:	3030      	adds	r0, #48	; 0x30
    5758:	9009      	str	r0, [sp, #36]	; 0x24
    575a:	4650      	mov	r0, sl
    575c:	f001 f8c2 	bl	68e4 <__mcmp>
    5760:	4659      	mov	r1, fp
    5762:	9a04      	ldr	r2, [sp, #16]
    5764:	4605      	mov	r5, r0
    5766:	4620      	mov	r0, r4
    5768:	f001 f8da 	bl	6920 <__mdiff>
    576c:	68c3      	ldr	r3, [r0, #12]
    576e:	4680      	mov	r8, r0
    5770:	2b00      	cmp	r3, #0
    5772:	d03c      	beq.n	57ee <_dtoa_r+0xae2>
    5774:	4620      	mov	r0, r4
    5776:	4641      	mov	r1, r8
    5778:	f000 fe74 	bl	6464 <_Bfree>
    577c:	9a28      	ldr	r2, [sp, #160]	; 0xa0
    577e:	ea59 0202 	orrs.w	r2, r9, r2
    5782:	d103      	bne.n	578c <_dtoa_r+0xa80>
    5784:	9b0e      	ldr	r3, [sp, #56]	; 0x38
    5786:	2b00      	cmp	r3, #0
    5788:	f000 81f8 	beq.w	5b7c <_dtoa_r+0xe70>
    578c:	2d00      	cmp	r5, #0
    578e:	f2c0 81a3 	blt.w	5ad8 <_dtoa_r+0xdcc>
    5792:	9b28      	ldr	r3, [sp, #160]	; 0xa0
    5794:	432b      	orrs	r3, r5
    5796:	d103      	bne.n	57a0 <_dtoa_r+0xa94>
    5798:	980e      	ldr	r0, [sp, #56]	; 0x38
    579a:	2800      	cmp	r0, #0
    579c:	f000 819c 	beq.w	5ad8 <_dtoa_r+0xdcc>
    57a0:	f1b9 0f00 	cmp.w	r9, #0
    57a4:	f300 81d7 	bgt.w	5b56 <_dtoa_r+0xe4a>
    57a8:	9a09      	ldr	r2, [sp, #36]	; 0x24
    57aa:	f806 2b01 	strb.w	r2, [r6], #1
    57ae:	46b0      	mov	r8, r6
    57b0:	980f      	ldr	r0, [sp, #60]	; 0x3c
    57b2:	990d      	ldr	r1, [sp, #52]	; 0x34
    57b4:	1a33      	subs	r3, r6, r0
    57b6:	428b      	cmp	r3, r1
    57b8:	f000 81c9 	beq.w	5b4e <_dtoa_r+0xe42>
    57bc:	220a      	movs	r2, #10
    57be:	4651      	mov	r1, sl
    57c0:	2300      	movs	r3, #0
    57c2:	4620      	mov	r0, r4
    57c4:	f000 fe6a 	bl	649c <__multadd>
    57c8:	9a04      	ldr	r2, [sp, #16]
    57ca:	4297      	cmp	r7, r2
    57cc:	4682      	mov	sl, r0
    57ce:	d022      	beq.n	5816 <_dtoa_r+0xb0a>
    57d0:	4639      	mov	r1, r7
    57d2:	220a      	movs	r2, #10
    57d4:	2300      	movs	r3, #0
    57d6:	4620      	mov	r0, r4
    57d8:	f000 fe60 	bl	649c <__multadd>
    57dc:	9904      	ldr	r1, [sp, #16]
    57de:	220a      	movs	r2, #10
    57e0:	2300      	movs	r3, #0
    57e2:	4607      	mov	r7, r0
    57e4:	4620      	mov	r0, r4
    57e6:	f000 fe59 	bl	649c <__multadd>
    57ea:	9004      	str	r0, [sp, #16]
    57ec:	e7ac      	b.n	5748 <_dtoa_r+0xa3c>
    57ee:	4650      	mov	r0, sl
    57f0:	4641      	mov	r1, r8
    57f2:	f001 f877 	bl	68e4 <__mcmp>
    57f6:	4681      	mov	r9, r0
    57f8:	e7bc      	b.n	5774 <_dtoa_r+0xa68>
    57fa:	4620      	mov	r0, r4
    57fc:	4639      	mov	r1, r7
    57fe:	f000 fe31 	bl	6464 <_Bfree>
    5802:	e4a4      	b.n	514e <_dtoa_r+0x442>
    5804:	231c      	movs	r3, #28
    5806:	9a12      	ldr	r2, [sp, #72]	; 0x48
    5808:	18f6      	adds	r6, r6, r3
    580a:	980e      	ldr	r0, [sp, #56]	; 0x38
    580c:	18d2      	adds	r2, r2, r3
    580e:	9212      	str	r2, [sp, #72]	; 0x48
    5810:	18c0      	adds	r0, r0, r3
    5812:	900e      	str	r0, [sp, #56]	; 0x38
    5814:	e5e7      	b.n	53e6 <_dtoa_r+0x6da>
    5816:	4639      	mov	r1, r7
    5818:	4620      	mov	r0, r4
    581a:	220a      	movs	r2, #10
    581c:	2300      	movs	r3, #0
    581e:	f000 fe3d 	bl	649c <__multadd>
    5822:	4607      	mov	r7, r0
    5824:	9004      	str	r0, [sp, #16]
    5826:	e78f      	b.n	5748 <_dtoa_r+0xa3c>
    5828:	426e      	negs	r6, r5
    582a:	2e00      	cmp	r6, #0
    582c:	f000 8120 	beq.w	5a70 <_dtoa_r+0xd64>
    5830:	f006 030f 	and.w	r3, r6, #15
    5834:	f649 3220 	movw	r2, #39712	; 0x9b20
    5838:	f2c0 0200 	movt	r2, #0
    583c:	e9dd 010a 	ldrd	r0, r1, [sp, #40]	; 0x28
    5840:	eb02 03c3 	add.w	r3, r2, r3, lsl #3
    5844:	e9d3 2300 	ldrd	r2, r3, [r3]
    5848:	f003 f8a0 	bl	898c <__aeabi_dmul>
    584c:	1136      	asrs	r6, r6, #4
    584e:	e9cd 010a 	strd	r0, r1, [sp, #40]	; 0x28
    5852:	f000 810d 	beq.w	5a70 <_dtoa_r+0xd64>
    5856:	f649 37e8 	movw	r7, #39912	; 0x9be8
    585a:	f04f 0802 	mov.w	r8, #2
    585e:	f2c0 0700 	movt	r7, #0
    5862:	4602      	mov	r2, r0
    5864:	460b      	mov	r3, r1
    5866:	f016 0f01 	tst.w	r6, #1
    586a:	4610      	mov	r0, r2
    586c:	4619      	mov	r1, r3
    586e:	d007      	beq.n	5880 <_dtoa_r+0xb74>
    5870:	e9d7 2300 	ldrd	r2, r3, [r7]
    5874:	f108 0801 	add.w	r8, r8, #1
    5878:	f003 f888 	bl	898c <__aeabi_dmul>
    587c:	4602      	mov	r2, r0
    587e:	460b      	mov	r3, r1
    5880:	3708      	adds	r7, #8
    5882:	1076      	asrs	r6, r6, #1
    5884:	d1ef      	bne.n	5866 <_dtoa_r+0xb5a>
    5886:	e9cd 230a 	strd	r2, r3, [sp, #40]	; 0x28
    588a:	f7ff bbd1 	b.w	5030 <_dtoa_r+0x324>
    588e:	f109 32ff 	add.w	r2, r9, #4294967295
    5892:	9218      	str	r2, [sp, #96]	; 0x60
    5894:	9f18      	ldr	r7, [sp, #96]	; 0x60
    5896:	f649 3120 	movw	r1, #39712	; 0x9b20
    589a:	f2c0 0100 	movt	r1, #0
    589e:	e9dd 2310 	ldrd	r2, r3, [sp, #64]	; 0x40
    58a2:	9e0f      	ldr	r6, [sp, #60]	; 0x3c
    58a4:	eb01 01c7 	add.w	r1, r1, r7, lsl #3
    58a8:	e9d1 0100 	ldrd	r0, r1, [r1]
    58ac:	f003 f86e 	bl	898c <__aeabi_dmul>
    58b0:	e9cd 0110 	strd	r0, r1, [sp, #64]	; 0x40
    58b4:	e9dd 010a 	ldrd	r0, r1, [sp, #40]	; 0x28
    58b8:	f003 fb02 	bl	8ec0 <__aeabi_d2iz>
    58bc:	4607      	mov	r7, r0
    58be:	f002 ffff 	bl	88c0 <__aeabi_i2d>
    58c2:	460b      	mov	r3, r1
    58c4:	4602      	mov	r2, r0
    58c6:	e9dd 010a 	ldrd	r0, r1, [sp, #40]	; 0x28
    58ca:	f002 feab 	bl	8624 <__aeabi_dsub>
    58ce:	f1b9 0f01 	cmp.w	r9, #1
    58d2:	f107 0330 	add.w	r3, r7, #48	; 0x30
    58d6:	e9cd 010a 	strd	r0, r1, [sp, #40]	; 0x28
    58da:	f806 3b01 	strb.w	r3, [r6], #1
    58de:	d02e      	beq.n	593e <_dtoa_r+0xc32>
    58e0:	980f      	ldr	r0, [sp, #60]	; 0x3c
    58e2:	f8cd b068 	str.w	fp, [sp, #104]	; 0x68
    58e6:	46d3      	mov	fp, sl
    58e8:	1e43      	subs	r3, r0, #1
    58ea:	4607      	mov	r7, r0
    58ec:	4499      	add	r9, r3
    58ee:	e9dd 010a 	ldrd	r0, r1, [sp, #40]	; 0x28
    58f2:	951b      	str	r5, [sp, #108]	; 0x6c
    58f4:	46b2      	mov	sl, r6
    58f6:	464d      	mov	r5, r9
    58f8:	4626      	mov	r6, r4
    58fa:	2300      	movs	r3, #0
    58fc:	2200      	movs	r2, #0
    58fe:	f2c4 0324 	movt	r3, #16420	; 0x4024
    5902:	f003 f843 	bl	898c <__aeabi_dmul>
    5906:	4689      	mov	r9, r1
    5908:	4680      	mov	r8, r0
    590a:	f003 fad9 	bl	8ec0 <__aeabi_d2iz>
    590e:	4604      	mov	r4, r0
    5910:	f002 ffd6 	bl	88c0 <__aeabi_i2d>
    5914:	3430      	adds	r4, #48	; 0x30
    5916:	4602      	mov	r2, r0
    5918:	460b      	mov	r3, r1
    591a:	4640      	mov	r0, r8
    591c:	4649      	mov	r1, r9
    591e:	f002 fe81 	bl	8624 <__aeabi_dsub>
    5922:	f807 4f01 	strb.w	r4, [r7, #1]!
    5926:	42af      	cmp	r7, r5
    5928:	d1e7      	bne.n	58fa <_dtoa_r+0xbee>
    592a:	e9cd 010a 	strd	r0, r1, [sp, #40]	; 0x28
    592e:	4634      	mov	r4, r6
    5930:	9918      	ldr	r1, [sp, #96]	; 0x60
    5932:	4656      	mov	r6, sl
    5934:	9d1b      	ldr	r5, [sp, #108]	; 0x6c
    5936:	46da      	mov	sl, fp
    5938:	f8dd b068 	ldr.w	fp, [sp, #104]	; 0x68
    593c:	1876      	adds	r6, r6, r1
    593e:	2300      	movs	r3, #0
    5940:	2200      	movs	r2, #0
    5942:	f6c3 73e0 	movt	r3, #16352	; 0x3fe0
    5946:	e9dd 0110 	ldrd	r0, r1, [sp, #64]	; 0x40
    594a:	f002 fe6d 	bl	8628 <__adddf3>
    594e:	4602      	mov	r2, r0
    5950:	460b      	mov	r3, r1
    5952:	e9dd 010a 	ldrd	r0, r1, [sp, #40]	; 0x28
    5956:	f003 faa9 	bl	8eac <__aeabi_dcmpgt>
    595a:	2800      	cmp	r0, #0
    595c:	f47f acc5 	bne.w	52ea <_dtoa_r+0x5de>
    5960:	2100      	movs	r1, #0
    5962:	e9dd 2310 	ldrd	r2, r3, [sp, #64]	; 0x40
    5966:	2000      	movs	r0, #0
    5968:	f6c3 71e0 	movt	r1, #16352	; 0x3fe0
    596c:	f002 fe5a 	bl	8624 <__aeabi_dsub>
    5970:	4602      	mov	r2, r0
    5972:	460b      	mov	r3, r1
    5974:	e9dd 010a 	ldrd	r0, r1, [sp, #40]	; 0x28
    5978:	f003 fa7a 	bl	8e70 <__aeabi_dcmplt>
    597c:	2800      	cmp	r0, #0
    597e:	f43f ac00 	beq.w	5182 <_dtoa_r+0x476>
    5982:	4633      	mov	r3, r6
    5984:	461e      	mov	r6, r3
    5986:	3b01      	subs	r3, #1
    5988:	f816 2c01 	ldrb.w	r2, [r6, #-1]
    598c:	2a30      	cmp	r2, #48	; 0x30
    598e:	d0f9      	beq.n	5984 <_dtoa_r+0xc78>
    5990:	9d19      	ldr	r5, [sp, #100]	; 0x64
    5992:	f7ff bbe0 	b.w	5156 <_dtoa_r+0x44a>
    5996:	980f      	ldr	r0, [sp, #60]	; 0x3c
    5998:	f7ff b9f9 	b.w	4d8e <_dtoa_r+0x82>
    599c:	f8db 3010 	ldr.w	r3, [fp, #16]
    59a0:	eb0b 0383 	add.w	r3, fp, r3, lsl #2
    59a4:	6918      	ldr	r0, [r3, #16]
    59a6:	f000 fe05 	bl	65b4 <__hi0bits>
    59aa:	f1c0 0320 	rsb	r3, r0, #32
    59ae:	e508      	b.n	53c2 <_dtoa_r+0x6b6>
    59b0:	4650      	mov	r0, sl
    59b2:	4659      	mov	r1, fp
    59b4:	f000 ff96 	bl	68e4 <__mcmp>
    59b8:	2800      	cmp	r0, #0
    59ba:	f6bf ad29 	bge.w	5410 <_dtoa_r+0x704>
    59be:	4651      	mov	r1, sl
    59c0:	4620      	mov	r0, r4
    59c2:	220a      	movs	r2, #10
    59c4:	2300      	movs	r3, #0
    59c6:	f000 fd69 	bl	649c <__multadd>
    59ca:	3d01      	subs	r5, #1
    59cc:	4682      	mov	sl, r0
    59ce:	9814      	ldr	r0, [sp, #80]	; 0x50
    59d0:	2800      	cmp	r0, #0
    59d2:	f040 80e9 	bne.w	5ba8 <_dtoa_r+0xe9c>
    59d6:	9a13      	ldr	r2, [sp, #76]	; 0x4c
    59d8:	920d      	str	r2, [sp, #52]	; 0x34
    59da:	e519      	b.n	5410 <_dtoa_r+0x704>
    59dc:	2201      	movs	r2, #1
    59de:	9213      	str	r2, [sp, #76]	; 0x4c
    59e0:	920d      	str	r2, [sp, #52]	; 0x34
    59e2:	9229      	str	r2, [sp, #164]	; 0xa4
    59e4:	f7ff bad8 	b.w	4f98 <_dtoa_r+0x28c>
    59e8:	9e0f      	ldr	r6, [sp, #60]	; 0x3c
    59ea:	2701      	movs	r7, #1
    59ec:	f8dd 9034 	ldr.w	r9, [sp, #52]	; 0x34
    59f0:	9504      	str	r5, [sp, #16]
    59f2:	e002      	b.n	59fa <_dtoa_r+0xcee>
    59f4:	f000 fd52 	bl	649c <__multadd>
    59f8:	4682      	mov	sl, r0
    59fa:	4659      	mov	r1, fp
    59fc:	4650      	mov	r0, sl
    59fe:	f7ff f8ef 	bl	4be0 <quorem>
    5a02:	220a      	movs	r2, #10
    5a04:	2300      	movs	r3, #0
    5a06:	454f      	cmp	r7, r9
    5a08:	4651      	mov	r1, sl
    5a0a:	f107 0701 	add.w	r7, r7, #1
    5a0e:	f100 0530 	add.w	r5, r0, #48	; 0x30
    5a12:	4620      	mov	r0, r4
    5a14:	f806 5b01 	strb.w	r5, [r6], #1
    5a18:	46b0      	mov	r8, r6
    5a1a:	dbeb      	blt.n	59f4 <_dtoa_r+0xce8>
    5a1c:	9509      	str	r5, [sp, #36]	; 0x24
    5a1e:	2700      	movs	r7, #0
    5a20:	9d04      	ldr	r5, [sp, #16]
    5a22:	4651      	mov	r1, sl
    5a24:	2201      	movs	r2, #1
    5a26:	4620      	mov	r0, r4
    5a28:	f000 ff06 	bl	6838 <__lshift>
    5a2c:	4659      	mov	r1, fp
    5a2e:	4682      	mov	sl, r0
    5a30:	f000 ff58 	bl	68e4 <__mcmp>
    5a34:	2800      	cmp	r0, #0
    5a36:	dd0f      	ble.n	5a58 <_dtoa_r+0xd4c>
    5a38:	9a0f      	ldr	r2, [sp, #60]	; 0x3c
    5a3a:	4646      	mov	r6, r8
    5a3c:	f108 38ff 	add.w	r8, r8, #4294967295
    5a40:	f816 3c01 	ldrb.w	r3, [r6, #-1]
    5a44:	2b39      	cmp	r3, #57	; 0x39
    5a46:	d162      	bne.n	5b0e <_dtoa_r+0xe02>
    5a48:	4542      	cmp	r2, r8
    5a4a:	d1f6      	bne.n	5a3a <_dtoa_r+0xd2e>
    5a4c:	990f      	ldr	r1, [sp, #60]	; 0x3c
    5a4e:	2331      	movs	r3, #49	; 0x31
    5a50:	3501      	adds	r5, #1
    5a52:	700b      	strb	r3, [r1, #0]
    5a54:	f7ff bb6a 	b.w	512c <_dtoa_r+0x420>
    5a58:	d103      	bne.n	5a62 <_dtoa_r+0xd56>
    5a5a:	9809      	ldr	r0, [sp, #36]	; 0x24
    5a5c:	f010 0f01 	tst.w	r0, #1
    5a60:	d1ea      	bne.n	5a38 <_dtoa_r+0xd2c>
    5a62:	4646      	mov	r6, r8
    5a64:	f818 3d01 	ldrb.w	r3, [r8, #-1]!
    5a68:	2b30      	cmp	r3, #48	; 0x30
    5a6a:	d0fa      	beq.n	5a62 <_dtoa_r+0xd56>
    5a6c:	f7ff bb5e 	b.w	512c <_dtoa_r+0x420>
    5a70:	f04f 0802 	mov.w	r8, #2
    5a74:	f7ff badc 	b.w	5030 <_dtoa_r+0x324>
    5a78:	4654      	mov	r4, sl
    5a7a:	9d09      	ldr	r5, [sp, #36]	; 0x24
    5a7c:	f8dd a034 	ldr.w	sl, [sp, #52]	; 0x34
    5a80:	f7ff bb69 	b.w	5156 <_dtoa_r+0x44a>
    5a84:	4651      	mov	r1, sl
    5a86:	4620      	mov	r0, r4
    5a88:	465a      	mov	r2, fp
    5a8a:	f000 fe83 	bl	6794 <__pow5mult>
    5a8e:	4682      	mov	sl, r0
    5a90:	e47f      	b.n	5392 <_dtoa_r+0x686>
    5a92:	4651      	mov	r1, sl
    5a94:	4620      	mov	r0, r4
    5a96:	f000 fe7d 	bl	6794 <__pow5mult>
    5a9a:	4682      	mov	sl, r0
    5a9c:	e479      	b.n	5392 <_dtoa_r+0x686>
    5a9e:	9f17      	ldr	r7, [sp, #92]	; 0x5c
    5aa0:	2f00      	cmp	r7, #0
    5aa2:	d04e      	beq.n	5b42 <_dtoa_r+0xe36>
    5aa4:	f503 6386 	add.w	r3, r3, #1072	; 0x430
    5aa8:	465f      	mov	r7, fp
    5aaa:	3303      	adds	r3, #3
    5aac:	9e12      	ldr	r6, [sp, #72]	; 0x48
    5aae:	e516      	b.n	54de <_dtoa_r+0x7d2>
    5ab0:	f04f 0b00 	mov.w	fp, #0
    5ab4:	f8cd b028 	str.w	fp, [sp, #40]	; 0x28
    5ab8:	f7ff bb34 	b.w	5124 <_dtoa_r+0x418>
    5abc:	1c4b      	adds	r3, r1, #1
    5abe:	9d19      	ldr	r5, [sp, #100]	; 0x64
    5ac0:	b2db      	uxtb	r3, r3
    5ac2:	7013      	strb	r3, [r2, #0]
    5ac4:	f7ff bb47 	b.w	5156 <_dtoa_r+0x44a>
    5ac8:	f8dd a060 	ldr.w	sl, [sp, #96]	; 0x60
    5acc:	9c0a      	ldr	r4, [sp, #40]	; 0x28
    5ace:	e40c      	b.n	52ea <_dtoa_r+0x5de>
    5ad0:	9b12      	ldr	r3, [sp, #72]	; 0x48
    5ad2:	1a9e      	subs	r6, r3, r2
    5ad4:	2300      	movs	r3, #0
    5ad6:	e502      	b.n	54de <_dtoa_r+0x7d2>
    5ad8:	f1b9 0f00 	cmp.w	r9, #0
    5adc:	9d0a      	ldr	r5, [sp, #40]	; 0x28
    5ade:	dd0f      	ble.n	5b00 <_dtoa_r+0xdf4>
    5ae0:	4651      	mov	r1, sl
    5ae2:	2201      	movs	r2, #1
    5ae4:	4620      	mov	r0, r4
    5ae6:	f000 fea7 	bl	6838 <__lshift>
    5aea:	4659      	mov	r1, fp
    5aec:	4682      	mov	sl, r0
    5aee:	f000 fef9 	bl	68e4 <__mcmp>
    5af2:	2800      	cmp	r0, #0
    5af4:	dd52      	ble.n	5b9c <_dtoa_r+0xe90>
    5af6:	9a09      	ldr	r2, [sp, #36]	; 0x24
    5af8:	2a39      	cmp	r2, #57	; 0x39
    5afa:	d038      	beq.n	5b6e <_dtoa_r+0xe62>
    5afc:	3201      	adds	r2, #1
    5afe:	9209      	str	r2, [sp, #36]	; 0x24
    5b00:	9b04      	ldr	r3, [sp, #16]
    5b02:	9809      	ldr	r0, [sp, #36]	; 0x24
    5b04:	930a      	str	r3, [sp, #40]	; 0x28
    5b06:	f806 0b01 	strb.w	r0, [r6], #1
    5b0a:	f7ff bb0f 	b.w	512c <_dtoa_r+0x420>
    5b0e:	3301      	adds	r3, #1
    5b10:	f888 3000 	strb.w	r3, [r8]
    5b14:	f7ff bb0a 	b.w	512c <_dtoa_r+0x420>
    5b18:	9f0a      	ldr	r7, [sp, #40]	; 0x28
    5b1a:	4620      	mov	r0, r4
    5b1c:	6879      	ldr	r1, [r7, #4]
    5b1e:	f000 fc6d 	bl	63fc <_Balloc>
    5b22:	693a      	ldr	r2, [r7, #16]
    5b24:	f107 010c 	add.w	r1, r7, #12
    5b28:	3202      	adds	r2, #2
    5b2a:	0092      	lsls	r2, r2, #2
    5b2c:	4606      	mov	r6, r0
    5b2e:	300c      	adds	r0, #12
    5b30:	f000 fbb8 	bl	62a4 <memcpy>
    5b34:	4620      	mov	r0, r4
    5b36:	4631      	mov	r1, r6
    5b38:	2201      	movs	r2, #1
    5b3a:	f000 fe7d 	bl	6838 <__lshift>
    5b3e:	9004      	str	r0, [sp, #16]
    5b40:	e5fc      	b.n	573c <_dtoa_r+0xa30>
    5b42:	9b1d      	ldr	r3, [sp, #116]	; 0x74
    5b44:	465f      	mov	r7, fp
    5b46:	9e12      	ldr	r6, [sp, #72]	; 0x48
    5b48:	f1c3 0336 	rsb	r3, r3, #54	; 0x36
    5b4c:	e4c7      	b.n	54de <_dtoa_r+0x7d2>
    5b4e:	9b04      	ldr	r3, [sp, #16]
    5b50:	9d0a      	ldr	r5, [sp, #40]	; 0x28
    5b52:	930a      	str	r3, [sp, #40]	; 0x28
    5b54:	e765      	b.n	5a22 <_dtoa_r+0xd16>
    5b56:	9909      	ldr	r1, [sp, #36]	; 0x24
    5b58:	9d0a      	ldr	r5, [sp, #40]	; 0x28
    5b5a:	2939      	cmp	r1, #57	; 0x39
    5b5c:	d007      	beq.n	5b6e <_dtoa_r+0xe62>
    5b5e:	9904      	ldr	r1, [sp, #16]
    5b60:	9809      	ldr	r0, [sp, #36]	; 0x24
    5b62:	910a      	str	r1, [sp, #40]	; 0x28
    5b64:	1c43      	adds	r3, r0, #1
    5b66:	f806 3b01 	strb.w	r3, [r6], #1
    5b6a:	f7ff badf 	b.w	512c <_dtoa_r+0x420>
    5b6e:	9a04      	ldr	r2, [sp, #16]
    5b70:	46b0      	mov	r8, r6
    5b72:	2339      	movs	r3, #57	; 0x39
    5b74:	920a      	str	r2, [sp, #40]	; 0x28
    5b76:	f808 3b01 	strb.w	r3, [r8], #1
    5b7a:	e75d      	b.n	5a38 <_dtoa_r+0xd2c>
    5b7c:	9809      	ldr	r0, [sp, #36]	; 0x24
    5b7e:	462b      	mov	r3, r5
    5b80:	9d0a      	ldr	r5, [sp, #40]	; 0x28
    5b82:	2839      	cmp	r0, #57	; 0x39
    5b84:	d0f3      	beq.n	5b6e <_dtoa_r+0xe62>
    5b86:	2b00      	cmp	r3, #0
    5b88:	dd01      	ble.n	5b8e <_dtoa_r+0xe82>
    5b8a:	3001      	adds	r0, #1
    5b8c:	9009      	str	r0, [sp, #36]	; 0x24
    5b8e:	9904      	ldr	r1, [sp, #16]
    5b90:	9a09      	ldr	r2, [sp, #36]	; 0x24
    5b92:	910a      	str	r1, [sp, #40]	; 0x28
    5b94:	f806 2b01 	strb.w	r2, [r6], #1
    5b98:	f7ff bac8 	b.w	512c <_dtoa_r+0x420>
    5b9c:	d1b0      	bne.n	5b00 <_dtoa_r+0xdf4>
    5b9e:	9909      	ldr	r1, [sp, #36]	; 0x24
    5ba0:	f011 0f01 	tst.w	r1, #1
    5ba4:	d0ac      	beq.n	5b00 <_dtoa_r+0xdf4>
    5ba6:	e7a6      	b.n	5af6 <_dtoa_r+0xdea>
    5ba8:	990a      	ldr	r1, [sp, #40]	; 0x28
    5baa:	4620      	mov	r0, r4
    5bac:	220a      	movs	r2, #10
    5bae:	2300      	movs	r3, #0
    5bb0:	f000 fc74 	bl	649c <__multadd>
    5bb4:	9913      	ldr	r1, [sp, #76]	; 0x4c
    5bb6:	910d      	str	r1, [sp, #52]	; 0x34
    5bb8:	900a      	str	r0, [sp, #40]	; 0x28
    5bba:	e429      	b.n	5410 <_dtoa_r+0x704>
    5bbc:	f43f ac13 	beq.w	53e6 <_dtoa_r+0x6da>
    5bc0:	331c      	adds	r3, #28
    5bc2:	e620      	b.n	5806 <_dtoa_r+0xafa>
    5bc4:	990d      	ldr	r1, [sp, #52]	; 0x34
    5bc6:	290e      	cmp	r1, #14
    5bc8:	bf8c      	ite	hi
    5bca:	2700      	movhi	r7, #0
    5bcc:	f007 0701 	andls.w	r7, r7, #1
    5bd0:	f7ff b9e5 	b.w	4f9e <_dtoa_r+0x292>
    5bd4:	2701      	movs	r7, #1
    5bd6:	f7ff b965 	b.w	4ea4 <_dtoa_r+0x198>
    5bda:	bf00      	nop
    5bdc:	f3af 8000 	nop.w

00005be0 <_setlocale_r>:
    5be0:	b510      	push	{r4, lr}
    5be2:	4614      	mov	r4, r2
    5be4:	b13a      	cbz	r2, 5bf6 <_setlocale_r+0x16>
    5be6:	f649 3100 	movw	r1, #39680	; 0x9b00
    5bea:	4610      	mov	r0, r2
    5bec:	f2c0 0100 	movt	r1, #0
    5bf0:	f001 f8f0 	bl	6dd4 <strcmp>
    5bf4:	b920      	cbnz	r0, 5c00 <_setlocale_r+0x20>
    5bf6:	f649 20fc 	movw	r0, #39676	; 0x9afc
    5bfa:	f2c0 0000 	movt	r0, #0
    5bfe:	bd10      	pop	{r4, pc}
    5c00:	f649 21fc 	movw	r1, #39676	; 0x9afc
    5c04:	4620      	mov	r0, r4
    5c06:	f2c0 0100 	movt	r1, #0
    5c0a:	f001 f8e3 	bl	6dd4 <strcmp>
    5c0e:	b920      	cbnz	r0, 5c1a <_setlocale_r+0x3a>
    5c10:	f649 20fc 	movw	r0, #39676	; 0x9afc
    5c14:	f2c0 0000 	movt	r0, #0
    5c18:	bd10      	pop	{r4, pc}
    5c1a:	f649 21c8 	movw	r1, #39624	; 0x9ac8
    5c1e:	4620      	mov	r0, r4
    5c20:	f2c0 0100 	movt	r1, #0
    5c24:	f001 f8d6 	bl	6dd4 <strcmp>
    5c28:	f649 23fc 	movw	r3, #39676	; 0x9afc
    5c2c:	f2c0 0300 	movt	r3, #0
    5c30:	2800      	cmp	r0, #0
    5c32:	bf0c      	ite	eq
    5c34:	4618      	moveq	r0, r3
    5c36:	2000      	movne	r0, #0
    5c38:	bd10      	pop	{r4, pc}
    5c3a:	bf00      	nop

00005c3c <__locale_charset>:
    5c3c:	f240 1008 	movw	r0, #264	; 0x108
    5c40:	f2c2 0000 	movt	r0, #8192	; 0x2000
    5c44:	4770      	bx	lr
    5c46:	bf00      	nop

00005c48 <__locale_mb_cur_max>:
    5c48:	f240 1308 	movw	r3, #264	; 0x108
    5c4c:	f2c2 0300 	movt	r3, #8192	; 0x2000
    5c50:	6a18      	ldr	r0, [r3, #32]
    5c52:	4770      	bx	lr

00005c54 <__locale_msgcharset>:
    5c54:	4800      	ldr	r0, [pc, #0]	; (5c58 <__locale_msgcharset+0x4>)
    5c56:	4770      	bx	lr
    5c58:	2000012c 	.word	0x2000012c

00005c5c <__locale_cjk_lang>:
    5c5c:	2000      	movs	r0, #0
    5c5e:	4770      	bx	lr

00005c60 <_localeconv_r>:
    5c60:	4800      	ldr	r0, [pc, #0]	; (5c64 <_localeconv_r+0x4>)
    5c62:	4770      	bx	lr
    5c64:	2000014c 	.word	0x2000014c

00005c68 <setlocale>:
    5c68:	f240 0314 	movw	r3, #20
    5c6c:	460a      	mov	r2, r1
    5c6e:	f2c2 0300 	movt	r3, #8192	; 0x2000
    5c72:	4601      	mov	r1, r0
    5c74:	6818      	ldr	r0, [r3, #0]
    5c76:	e7b3      	b.n	5be0 <_setlocale_r>

00005c78 <localeconv>:
    5c78:	4800      	ldr	r0, [pc, #0]	; (5c7c <localeconv+0x4>)
    5c7a:	4770      	bx	lr
    5c7c:	2000014c 	.word	0x2000014c

00005c80 <malloc>:
    5c80:	f240 0314 	movw	r3, #20
    5c84:	4601      	mov	r1, r0
    5c86:	f2c2 0300 	movt	r3, #8192	; 0x2000
    5c8a:	6818      	ldr	r0, [r3, #0]
    5c8c:	f000 b808 	b.w	5ca0 <_malloc_r>

00005c90 <free>:
    5c90:	f240 0314 	movw	r3, #20
    5c94:	4601      	mov	r1, r0
    5c96:	f2c2 0300 	movt	r3, #8192	; 0x2000
    5c9a:	6818      	ldr	r0, [r3, #0]
    5c9c:	f001 bffc 	b.w	7c98 <_free_r>

00005ca0 <_malloc_r>:
    5ca0:	e92d 4ff0 	stmdb	sp!, {r4, r5, r6, r7, r8, r9, sl, fp, lr}
    5ca4:	f101 040b 	add.w	r4, r1, #11
    5ca8:	2c16      	cmp	r4, #22
    5caa:	b083      	sub	sp, #12
    5cac:	4606      	mov	r6, r0
    5cae:	d931      	bls.n	5d14 <_malloc_r+0x74>
    5cb0:	f024 0407 	bic.w	r4, r4, #7
    5cb4:	0fe3      	lsrs	r3, r4, #31
    5cb6:	428c      	cmp	r4, r1
    5cb8:	bf2c      	ite	cs
    5cba:	4619      	movcs	r1, r3
    5cbc:	f043 0101 	orrcc.w	r1, r3, #1
    5cc0:	2900      	cmp	r1, #0
    5cc2:	d130      	bne.n	5d26 <_malloc_r+0x86>
    5cc4:	4630      	mov	r0, r6
    5cc6:	f000 fb95 	bl	63f4 <__malloc_lock>
    5cca:	f5b4 7ffc 	cmp.w	r4, #504	; 0x1f8
    5cce:	d22f      	bcs.n	5d30 <_malloc_r+0x90>
    5cd0:	ea4f 0cd4 	mov.w	ip, r4, lsr #3
    5cd4:	f240 1584 	movw	r5, #388	; 0x184
    5cd8:	f2c2 0500 	movt	r5, #8192	; 0x2000
    5cdc:	eb05 02cc 	add.w	r2, r5, ip, lsl #3
    5ce0:	462f      	mov	r7, r5
    5ce2:	68d3      	ldr	r3, [r2, #12]
    5ce4:	4293      	cmp	r3, r2
    5ce6:	f000 822d 	beq.w	6144 <_malloc_r+0x4a4>
    5cea:	685c      	ldr	r4, [r3, #4]
    5cec:	f103 0808 	add.w	r8, r3, #8
    5cf0:	68da      	ldr	r2, [r3, #12]
    5cf2:	4630      	mov	r0, r6
    5cf4:	f024 0403 	bic.w	r4, r4, #3
    5cf8:	6899      	ldr	r1, [r3, #8]
    5cfa:	191b      	adds	r3, r3, r4
    5cfc:	685c      	ldr	r4, [r3, #4]
    5cfe:	60ca      	str	r2, [r1, #12]
    5d00:	f044 0401 	orr.w	r4, r4, #1
    5d04:	6091      	str	r1, [r2, #8]
    5d06:	605c      	str	r4, [r3, #4]
    5d08:	f000 fb76 	bl	63f8 <__malloc_unlock>
    5d0c:	4640      	mov	r0, r8
    5d0e:	b003      	add	sp, #12
    5d10:	e8bd 8ff0 	ldmia.w	sp!, {r4, r5, r6, r7, r8, r9, sl, fp, pc}
    5d14:	2300      	movs	r3, #0
    5d16:	2410      	movs	r4, #16
    5d18:	428c      	cmp	r4, r1
    5d1a:	bf2c      	ite	cs
    5d1c:	4619      	movcs	r1, r3
    5d1e:	f043 0101 	orrcc.w	r1, r3, #1
    5d22:	2900      	cmp	r1, #0
    5d24:	d0ce      	beq.n	5cc4 <_malloc_r+0x24>
    5d26:	230c      	movs	r3, #12
    5d28:	f04f 0800 	mov.w	r8, #0
    5d2c:	6033      	str	r3, [r6, #0]
    5d2e:	e7ed      	b.n	5d0c <_malloc_r+0x6c>
    5d30:	ea5f 2c54 	movs.w	ip, r4, lsr #9
    5d34:	bf04      	itt	eq
    5d36:	ea4f 0cd4 	moveq.w	ip, r4, lsr #3
    5d3a:	ea4f 00cc 	moveq.w	r0, ip, lsl #3
    5d3e:	f040 8086 	bne.w	5e4e <_malloc_r+0x1ae>
    5d42:	f240 1584 	movw	r5, #388	; 0x184
    5d46:	f2c2 0500 	movt	r5, #8192	; 0x2000
    5d4a:	1828      	adds	r0, r5, r0
    5d4c:	462f      	mov	r7, r5
    5d4e:	68c3      	ldr	r3, [r0, #12]
    5d50:	4298      	cmp	r0, r3
    5d52:	d106      	bne.n	5d62 <_malloc_r+0xc2>
    5d54:	e00d      	b.n	5d72 <_malloc_r+0xd2>
    5d56:	2900      	cmp	r1, #0
    5d58:	f280 8179 	bge.w	604e <_malloc_r+0x3ae>
    5d5c:	68db      	ldr	r3, [r3, #12]
    5d5e:	4298      	cmp	r0, r3
    5d60:	d007      	beq.n	5d72 <_malloc_r+0xd2>
    5d62:	685a      	ldr	r2, [r3, #4]
    5d64:	f022 0203 	bic.w	r2, r2, #3
    5d68:	1b11      	subs	r1, r2, r4
    5d6a:	290f      	cmp	r1, #15
    5d6c:	ddf3      	ble.n	5d56 <_malloc_r+0xb6>
    5d6e:	f10c 3cff 	add.w	ip, ip, #4294967295
    5d72:	f10c 0c01 	add.w	ip, ip, #1
    5d76:	4abd      	ldr	r2, [pc, #756]	; (606c <_malloc_r+0x3cc>)
    5d78:	6893      	ldr	r3, [r2, #8]
    5d7a:	429a      	cmp	r2, r3
    5d7c:	bf08      	it	eq
    5d7e:	6878      	ldreq	r0, [r7, #4]
    5d80:	d024      	beq.n	5dcc <_malloc_r+0x12c>
    5d82:	6858      	ldr	r0, [r3, #4]
    5d84:	f020 0003 	bic.w	r0, r0, #3
    5d88:	1b01      	subs	r1, r0, r4
    5d8a:	290f      	cmp	r1, #15
    5d8c:	f300 81c0 	bgt.w	6110 <_malloc_r+0x470>
    5d90:	2900      	cmp	r1, #0
    5d92:	60d2      	str	r2, [r2, #12]
    5d94:	6092      	str	r2, [r2, #8]
    5d96:	f280 8094 	bge.w	5ec2 <_malloc_r+0x222>
    5d9a:	f5b0 7f00 	cmp.w	r0, #512	; 0x200
    5d9e:	f080 8177 	bcs.w	6090 <_malloc_r+0x3f0>
    5da2:	08c0      	lsrs	r0, r0, #3
    5da4:	f04f 0e01 	mov.w	lr, #1
    5da8:	f8d7 8004 	ldr.w	r8, [r7, #4]
    5dac:	eb07 01c0 	add.w	r1, r7, r0, lsl #3
    5db0:	1080      	asrs	r0, r0, #2
    5db2:	fa0e f000 	lsl.w	r0, lr, r0
    5db6:	60d9      	str	r1, [r3, #12]
    5db8:	f8d1 e008 	ldr.w	lr, [r1, #8]
    5dbc:	ea40 0008 	orr.w	r0, r0, r8
    5dc0:	6078      	str	r0, [r7, #4]
    5dc2:	f8c3 e008 	str.w	lr, [r3, #8]
    5dc6:	f8ce 300c 	str.w	r3, [lr, #12]
    5dca:	608b      	str	r3, [r1, #8]
    5dcc:	f04f 0e01 	mov.w	lr, #1
    5dd0:	ea4f 03ac 	mov.w	r3, ip, asr #2
    5dd4:	fa0e fe03 	lsl.w	lr, lr, r3
    5dd8:	4586      	cmp	lr, r0
    5dda:	d87d      	bhi.n	5ed8 <_malloc_r+0x238>
    5ddc:	ea10 0f0e 	tst.w	r0, lr
    5de0:	d108      	bne.n	5df4 <_malloc_r+0x154>
    5de2:	f02c 0c03 	bic.w	ip, ip, #3
    5de6:	ea4f 0e4e 	mov.w	lr, lr, lsl #1
    5dea:	f10c 0c04 	add.w	ip, ip, #4
    5dee:	ea10 0f0e 	tst.w	r0, lr
    5df2:	d0f8      	beq.n	5de6 <_malloc_r+0x146>
    5df4:	eb07 0acc 	add.w	sl, r7, ip, lsl #3
    5df8:	46e1      	mov	r9, ip
    5dfa:	46d0      	mov	r8, sl
    5dfc:	f8d8 000c 	ldr.w	r0, [r8, #12]
    5e00:	4580      	cmp	r8, r0
    5e02:	d107      	bne.n	5e14 <_malloc_r+0x174>
    5e04:	e196      	b.n	6134 <_malloc_r+0x494>
    5e06:	2b00      	cmp	r3, #0
    5e08:	f280 81a6 	bge.w	6158 <_malloc_r+0x4b8>
    5e0c:	68c0      	ldr	r0, [r0, #12]
    5e0e:	4580      	cmp	r8, r0
    5e10:	f000 8190 	beq.w	6134 <_malloc_r+0x494>
    5e14:	6841      	ldr	r1, [r0, #4]
    5e16:	f021 0103 	bic.w	r1, r1, #3
    5e1a:	1b0b      	subs	r3, r1, r4
    5e1c:	2b0f      	cmp	r3, #15
    5e1e:	ddf2      	ble.n	5e06 <_malloc_r+0x166>
    5e20:	4680      	mov	r8, r0
    5e22:	68c5      	ldr	r5, [r0, #12]
    5e24:	1901      	adds	r1, r0, r4
    5e26:	f044 0e01 	orr.w	lr, r4, #1
    5e2a:	f858 7f08 	ldr.w	r7, [r8, #8]!
    5e2e:	f043 0401 	orr.w	r4, r3, #1
    5e32:	f8c0 e004 	str.w	lr, [r0, #4]
    5e36:	4630      	mov	r0, r6
    5e38:	604c      	str	r4, [r1, #4]
    5e3a:	60fd      	str	r5, [r7, #12]
    5e3c:	60af      	str	r7, [r5, #8]
    5e3e:	60d1      	str	r1, [r2, #12]
    5e40:	6091      	str	r1, [r2, #8]
    5e42:	60ca      	str	r2, [r1, #12]
    5e44:	608a      	str	r2, [r1, #8]
    5e46:	50cb      	str	r3, [r1, r3]
    5e48:	f000 fad6 	bl	63f8 <__malloc_unlock>
    5e4c:	e75e      	b.n	5d0c <_malloc_r+0x6c>
    5e4e:	f1bc 0f04 	cmp.w	ip, #4
    5e52:	bf9e      	ittt	ls
    5e54:	ea4f 1c94 	movls.w	ip, r4, lsr #6
    5e58:	f10c 0c38 	addls.w	ip, ip, #56	; 0x38
    5e5c:	ea4f 00cc 	movls.w	r0, ip, lsl #3
    5e60:	f67f af6f 	bls.w	5d42 <_malloc_r+0xa2>
    5e64:	f1bc 0f14 	cmp.w	ip, #20
    5e68:	bf9c      	itt	ls
    5e6a:	f10c 0c5b 	addls.w	ip, ip, #91	; 0x5b
    5e6e:	ea4f 00cc 	movls.w	r0, ip, lsl #3
    5e72:	f67f af66 	bls.w	5d42 <_malloc_r+0xa2>
    5e76:	f1bc 0f54 	cmp.w	ip, #84	; 0x54
    5e7a:	bf9e      	ittt	ls
    5e7c:	ea4f 3c14 	movls.w	ip, r4, lsr #12
    5e80:	f10c 0c6e 	addls.w	ip, ip, #110	; 0x6e
    5e84:	ea4f 00cc 	movls.w	r0, ip, lsl #3
    5e88:	f67f af5b 	bls.w	5d42 <_malloc_r+0xa2>
    5e8c:	f5bc 7faa 	cmp.w	ip, #340	; 0x154
    5e90:	bf9e      	ittt	ls
    5e92:	ea4f 3cd4 	movls.w	ip, r4, lsr #15
    5e96:	f10c 0c77 	addls.w	ip, ip, #119	; 0x77
    5e9a:	ea4f 00cc 	movls.w	r0, ip, lsl #3
    5e9e:	f67f af50 	bls.w	5d42 <_malloc_r+0xa2>
    5ea2:	f240 5354 	movw	r3, #1364	; 0x554
    5ea6:	459c      	cmp	ip, r3
    5ea8:	bf95      	itete	ls
    5eaa:	ea4f 4c94 	movls.w	ip, r4, lsr #18
    5eae:	f44f 707c 	movhi.w	r0, #1008	; 0x3f0
    5eb2:	f10c 0c7c 	addls.w	ip, ip, #124	; 0x7c
    5eb6:	f04f 0c7e 	movhi.w	ip, #126	; 0x7e
    5eba:	bf98      	it	ls
    5ebc:	ea4f 00cc 	movls.w	r0, ip, lsl #3
    5ec0:	e73f      	b.n	5d42 <_malloc_r+0xa2>
    5ec2:	181a      	adds	r2, r3, r0
    5ec4:	f103 0808 	add.w	r8, r3, #8
    5ec8:	4630      	mov	r0, r6
    5eca:	6853      	ldr	r3, [r2, #4]
    5ecc:	f043 0301 	orr.w	r3, r3, #1
    5ed0:	6053      	str	r3, [r2, #4]
    5ed2:	f000 fa91 	bl	63f8 <__malloc_unlock>
    5ed6:	e719      	b.n	5d0c <_malloc_r+0x6c>
    5ed8:	f8d7 8008 	ldr.w	r8, [r7, #8]
    5edc:	f8d8 3004 	ldr.w	r3, [r8, #4]
    5ee0:	f023 0903 	bic.w	r9, r3, #3
    5ee4:	454c      	cmp	r4, r9
    5ee6:	ebc4 0209 	rsb	r2, r4, r9
    5eea:	bf94      	ite	ls
    5eec:	2300      	movls	r3, #0
    5eee:	2301      	movhi	r3, #1
    5ef0:	2a0f      	cmp	r2, #15
    5ef2:	bfd8      	it	le
    5ef4:	f043 0301 	orrle.w	r3, r3, #1
    5ef8:	2b00      	cmp	r3, #0
    5efa:	f000 80b9 	beq.w	6070 <_malloc_r+0x3d0>
    5efe:	f240 5ac8 	movw	sl, #1480	; 0x5c8
    5f02:	f8d5 3408 	ldr.w	r3, [r5, #1032]	; 0x408
    5f06:	f2c2 0a00 	movt	sl, #8192	; 0x2000
    5f0a:	4630      	mov	r0, r6
    5f0c:	f1b3 3fff 	cmp.w	r3, #4294967295
    5f10:	f8da 2000 	ldr.w	r2, [sl]
    5f14:	f102 0b10 	add.w	fp, r2, #16
    5f18:	44a3      	add	fp, r4
    5f1a:	bf1f      	itttt	ne
    5f1c:	f50b 6b7e 	addne.w	fp, fp, #4064	; 0xfe0
    5f20:	f10b 0b1f 	addne.w	fp, fp, #31
    5f24:	f42b 6b7e 	bicne.w	fp, fp, #4064	; 0xfe0
    5f28:	f02b 0b1f 	bicne.w	fp, fp, #31
    5f2c:	4659      	mov	r1, fp
    5f2e:	f000 ff3d 	bl	6dac <_sbrk_r>
    5f32:	f1b0 3fff 	cmp.w	r0, #4294967295
    5f36:	4603      	mov	r3, r0
    5f38:	f000 8118 	beq.w	616c <_malloc_r+0x4cc>
    5f3c:	eb08 0109 	add.w	r1, r8, r9
    5f40:	4281      	cmp	r1, r0
    5f42:	f200 8110 	bhi.w	6166 <_malloc_r+0x4c6>
    5f46:	f8da 2004 	ldr.w	r2, [sl, #4]
    5f4a:	4281      	cmp	r1, r0
    5f4c:	445a      	add	r2, fp
    5f4e:	f8ca 2004 	str.w	r2, [sl, #4]
    5f52:	f000 813e 	beq.w	61d2 <_malloc_r+0x532>
    5f56:	f8d5 e408 	ldr.w	lr, [r5, #1032]	; 0x408
    5f5a:	f240 1584 	movw	r5, #388	; 0x184
    5f5e:	f2c2 0500 	movt	r5, #8192	; 0x2000
    5f62:	f1be 3fff 	cmp.w	lr, #4294967295
    5f66:	bf17      	itett	ne
    5f68:	1882      	addne	r2, r0, r2
    5f6a:	f8c5 0408 	streq.w	r0, [r5, #1032]	; 0x408
    5f6e:	ebc1 0102 	rsbne	r1, r1, r2
    5f72:	f8ca 1004 	strne.w	r1, [sl, #4]
    5f76:	f010 0507 	ands.w	r5, r0, #7
    5f7a:	bf17      	itett	ne
    5f7c:	f1c5 0508 	rsbne	r5, r5, #8
    5f80:	f44f 5580 	moveq.w	r5, #4096	; 0x1000
    5f84:	1943      	addne	r3, r0, r5
    5f86:	f505 5580 	addne.w	r5, r5, #4096	; 0x1000
    5f8a:	eb03 020b 	add.w	r2, r3, fp
    5f8e:	4630      	mov	r0, r6
    5f90:	9301      	str	r3, [sp, #4]
    5f92:	0512      	lsls	r2, r2, #20
    5f94:	0d12      	lsrs	r2, r2, #20
    5f96:	1aad      	subs	r5, r5, r2
    5f98:	4629      	mov	r1, r5
    5f9a:	f000 ff07 	bl	6dac <_sbrk_r>
    5f9e:	9b01      	ldr	r3, [sp, #4]
    5fa0:	f1b0 3fff 	cmp.w	r0, #4294967295
    5fa4:	f000 812c 	beq.w	6200 <_malloc_r+0x560>
    5fa8:	1ac1      	subs	r1, r0, r3
    5faa:	1949      	adds	r1, r1, r5
    5fac:	f041 0101 	orr.w	r1, r1, #1
    5fb0:	f8da 2004 	ldr.w	r2, [sl, #4]
    5fb4:	45b8      	cmp	r8, r7
    5fb6:	f240 5bc8 	movw	fp, #1480	; 0x5c8
    5fba:	60bb      	str	r3, [r7, #8]
    5fbc:	442a      	add	r2, r5
    5fbe:	f2c2 0b00 	movt	fp, #8192	; 0x2000
    5fc2:	6059      	str	r1, [r3, #4]
    5fc4:	f8ca 2004 	str.w	r2, [sl, #4]
    5fc8:	d017      	beq.n	5ffa <_malloc_r+0x35a>
    5fca:	f1b9 0f0f 	cmp.w	r9, #15
    5fce:	f240 80e1 	bls.w	6194 <_malloc_r+0x4f4>
    5fd2:	f1a9 030c 	sub.w	r3, r9, #12
    5fd6:	f8d8 5004 	ldr.w	r5, [r8, #4]
    5fda:	f023 0307 	bic.w	r3, r3, #7
    5fde:	2005      	movs	r0, #5
    5fe0:	eb08 0103 	add.w	r1, r8, r3
    5fe4:	2b0f      	cmp	r3, #15
    5fe6:	f005 0501 	and.w	r5, r5, #1
    5fea:	ea43 0505 	orr.w	r5, r3, r5
    5fee:	f8c8 5004 	str.w	r5, [r8, #4]
    5ff2:	6048      	str	r0, [r1, #4]
    5ff4:	6088      	str	r0, [r1, #8]
    5ff6:	f200 80fb 	bhi.w	61f0 <_malloc_r+0x550>
    5ffa:	f8da 102c 	ldr.w	r1, [sl, #44]	; 0x2c
    5ffe:	f240 53c8 	movw	r3, #1480	; 0x5c8
    6002:	f2c2 0300 	movt	r3, #8192	; 0x2000
    6006:	428a      	cmp	r2, r1
    6008:	f8da 1030 	ldr.w	r1, [sl, #48]	; 0x30
    600c:	bf88      	it	hi
    600e:	62da      	strhi	r2, [r3, #44]	; 0x2c
    6010:	f240 53c8 	movw	r3, #1480	; 0x5c8
    6014:	428a      	cmp	r2, r1
    6016:	f2c2 0300 	movt	r3, #8192	; 0x2000
    601a:	f240 80a7 	bls.w	616c <_malloc_r+0x4cc>
    601e:	f8d7 8008 	ldr.w	r8, [r7, #8]
    6022:	631a      	str	r2, [r3, #48]	; 0x30
    6024:	f8d8 3004 	ldr.w	r3, [r8, #4]
    6028:	f023 0303 	bic.w	r3, r3, #3
    602c:	429c      	cmp	r4, r3
    602e:	ebc4 0203 	rsb	r2, r4, r3
    6032:	bf94      	ite	ls
    6034:	2300      	movls	r3, #0
    6036:	2301      	movhi	r3, #1
    6038:	2a0f      	cmp	r2, #15
    603a:	bfd8      	it	le
    603c:	f043 0301 	orrle.w	r3, r3, #1
    6040:	b1b3      	cbz	r3, 6070 <_malloc_r+0x3d0>
    6042:	4630      	mov	r0, r6
    6044:	f04f 0800 	mov.w	r8, #0
    6048:	f000 f9d6 	bl	63f8 <__malloc_unlock>
    604c:	e65e      	b.n	5d0c <_malloc_r+0x6c>
    604e:	189a      	adds	r2, r3, r2
    6050:	68d9      	ldr	r1, [r3, #12]
    6052:	689c      	ldr	r4, [r3, #8]
    6054:	f103 0808 	add.w	r8, r3, #8
    6058:	6855      	ldr	r5, [r2, #4]
    605a:	4630      	mov	r0, r6
    605c:	f045 0301 	orr.w	r3, r5, #1
    6060:	60e1      	str	r1, [r4, #12]
    6062:	608c      	str	r4, [r1, #8]
    6064:	6053      	str	r3, [r2, #4]
    6066:	f000 f9c7 	bl	63f8 <__malloc_unlock>
    606a:	e64f      	b.n	5d0c <_malloc_r+0x6c>
    606c:	2000018c 	.word	0x2000018c
    6070:	eb08 0304 	add.w	r3, r8, r4
    6074:	f042 0201 	orr.w	r2, r2, #1
    6078:	f044 0401 	orr.w	r4, r4, #1
    607c:	4630      	mov	r0, r6
    607e:	f8c8 4004 	str.w	r4, [r8, #4]
    6082:	f108 0808 	add.w	r8, r8, #8
    6086:	605a      	str	r2, [r3, #4]
    6088:	60bb      	str	r3, [r7, #8]
    608a:	f000 f9b5 	bl	63f8 <__malloc_unlock>
    608e:	e63d      	b.n	5d0c <_malloc_r+0x6c>
    6090:	0a41      	lsrs	r1, r0, #9
    6092:	2904      	cmp	r1, #4
    6094:	bf9c      	itt	ls
    6096:	ea4f 1e90 	movls.w	lr, r0, lsr #6
    609a:	f10e 0e38 	addls.w	lr, lr, #56	; 0x38
    609e:	d91d      	bls.n	60dc <_malloc_r+0x43c>
    60a0:	2914      	cmp	r1, #20
    60a2:	bf98      	it	ls
    60a4:	f101 0e5b 	addls.w	lr, r1, #91	; 0x5b
    60a8:	d918      	bls.n	60dc <_malloc_r+0x43c>
    60aa:	2954      	cmp	r1, #84	; 0x54
    60ac:	bf9c      	itt	ls
    60ae:	ea4f 3e10 	movls.w	lr, r0, lsr #12
    60b2:	f10e 0e6e 	addls.w	lr, lr, #110	; 0x6e
    60b6:	d911      	bls.n	60dc <_malloc_r+0x43c>
    60b8:	f5b1 7faa 	cmp.w	r1, #340	; 0x154
    60bc:	bf9c      	itt	ls
    60be:	ea4f 3ed0 	movls.w	lr, r0, lsr #15
    60c2:	f10e 0e77 	addls.w	lr, lr, #119	; 0x77
    60c6:	d909      	bls.n	60dc <_malloc_r+0x43c>
    60c8:	f240 5e54 	movw	lr, #1364	; 0x554
    60cc:	4571      	cmp	r1, lr
    60ce:	bf96      	itet	ls
    60d0:	ea4f 4e90 	movls.w	lr, r0, lsr #18
    60d4:	f04f 0e7e 	movhi.w	lr, #126	; 0x7e
    60d8:	f10e 0e7c 	addls.w	lr, lr, #124	; 0x7c
    60dc:	eb07 08ce 	add.w	r8, r7, lr, lsl #3
    60e0:	f8d8 1008 	ldr.w	r1, [r8, #8]
    60e4:	4541      	cmp	r1, r8
    60e6:	d103      	bne.n	60f0 <_malloc_r+0x450>
    60e8:	e047      	b.n	617a <_malloc_r+0x4da>
    60ea:	6889      	ldr	r1, [r1, #8]
    60ec:	4588      	cmp	r8, r1
    60ee:	d005      	beq.n	60fc <_malloc_r+0x45c>
    60f0:	f8d1 e004 	ldr.w	lr, [r1, #4]
    60f4:	f02e 0e03 	bic.w	lr, lr, #3
    60f8:	4570      	cmp	r0, lr
    60fa:	d3f6      	bcc.n	60ea <_malloc_r+0x44a>
    60fc:	f8d1 e00c 	ldr.w	lr, [r1, #12]
    6100:	f8c3 e00c 	str.w	lr, [r3, #12]
    6104:	6099      	str	r1, [r3, #8]
    6106:	6878      	ldr	r0, [r7, #4]
    6108:	60cb      	str	r3, [r1, #12]
    610a:	f8ce 3008 	str.w	r3, [lr, #8]
    610e:	e65d      	b.n	5dcc <_malloc_r+0x12c>
    6110:	191d      	adds	r5, r3, r4
    6112:	f041 0701 	orr.w	r7, r1, #1
    6116:	60d5      	str	r5, [r2, #12]
    6118:	f044 0401 	orr.w	r4, r4, #1
    611c:	6095      	str	r5, [r2, #8]
    611e:	4630      	mov	r0, r6
    6120:	605c      	str	r4, [r3, #4]
    6122:	f103 0808 	add.w	r8, r3, #8
    6126:	60ea      	str	r2, [r5, #12]
    6128:	60aa      	str	r2, [r5, #8]
    612a:	606f      	str	r7, [r5, #4]
    612c:	5069      	str	r1, [r5, r1]
    612e:	f000 f963 	bl	63f8 <__malloc_unlock>
    6132:	e5eb      	b.n	5d0c <_malloc_r+0x6c>
    6134:	f109 0901 	add.w	r9, r9, #1
    6138:	f019 0f03 	tst.w	r9, #3
    613c:	d02f      	beq.n	619e <_malloc_r+0x4fe>
    613e:	f108 0808 	add.w	r8, r8, #8
    6142:	e65b      	b.n	5dfc <_malloc_r+0x15c>
    6144:	f103 0208 	add.w	r2, r3, #8
    6148:	695b      	ldr	r3, [r3, #20]
    614a:	429a      	cmp	r2, r3
    614c:	bf08      	it	eq
    614e:	f10c 0c02 	addeq.w	ip, ip, #2
    6152:	f43f ae10 	beq.w	5d76 <_malloc_r+0xd6>
    6156:	e5c8      	b.n	5cea <_malloc_r+0x4a>
    6158:	4680      	mov	r8, r0
    615a:	1843      	adds	r3, r0, r1
    615c:	68c2      	ldr	r2, [r0, #12]
    615e:	4630      	mov	r0, r6
    6160:	f858 1f08 	ldr.w	r1, [r8, #8]!
    6164:	e5ca      	b.n	5cfc <_malloc_r+0x5c>
    6166:	45b8      	cmp	r8, r7
    6168:	f43f aeed 	beq.w	5f46 <_malloc_r+0x2a6>
    616c:	f8d7 8008 	ldr.w	r8, [r7, #8]
    6170:	f8d8 3004 	ldr.w	r3, [r8, #4]
    6174:	f023 0303 	bic.w	r3, r3, #3
    6178:	e758      	b.n	602c <_malloc_r+0x38c>
    617a:	f04f 0901 	mov.w	r9, #1
    617e:	f8d7 8004 	ldr.w	r8, [r7, #4]
    6182:	ea4f 00ae 	mov.w	r0, lr, asr #2
    6186:	468e      	mov	lr, r1
    6188:	fa09 f000 	lsl.w	r0, r9, r0
    618c:	ea48 0000 	orr.w	r0, r8, r0
    6190:	6078      	str	r0, [r7, #4]
    6192:	e7b5      	b.n	6100 <_malloc_r+0x460>
    6194:	4698      	mov	r8, r3
    6196:	2201      	movs	r2, #1
    6198:	605a      	str	r2, [r3, #4]
    619a:	2300      	movs	r3, #0
    619c:	e746      	b.n	602c <_malloc_r+0x38c>
    619e:	4651      	mov	r1, sl
    61a0:	f01c 0f03 	tst.w	ip, #3
    61a4:	460b      	mov	r3, r1
    61a6:	f10c 3cff 	add.w	ip, ip, #4294967295
    61aa:	d02c      	beq.n	6206 <_malloc_r+0x566>
    61ac:	f853 1908 	ldr.w	r1, [r3], #-8
    61b0:	4299      	cmp	r1, r3
    61b2:	d0f5      	beq.n	61a0 <_malloc_r+0x500>
    61b4:	687b      	ldr	r3, [r7, #4]
    61b6:	ea4f 0e4e 	mov.w	lr, lr, lsl #1
    61ba:	459e      	cmp	lr, r3
    61bc:	f63f ae8c 	bhi.w	5ed8 <_malloc_r+0x238>
    61c0:	f1be 0f00 	cmp.w	lr, #0
    61c4:	f43f ae88 	beq.w	5ed8 <_malloc_r+0x238>
    61c8:	ea1e 0f03 	tst.w	lr, r3
    61cc:	d020      	beq.n	6210 <_malloc_r+0x570>
    61ce:	46cc      	mov	ip, r9
    61d0:	e610      	b.n	5df4 <_malloc_r+0x154>
    61d2:	ea4f 5e01 	mov.w	lr, r1, lsl #20
    61d6:	ea4f 5e1e 	mov.w	lr, lr, lsr #20
    61da:	f1be 0f00 	cmp.w	lr, #0
    61de:	f47f aeba 	bne.w	5f56 <_malloc_r+0x2b6>
    61e2:	68bb      	ldr	r3, [r7, #8]
    61e4:	eb0b 0109 	add.w	r1, fp, r9
    61e8:	f041 0101 	orr.w	r1, r1, #1
    61ec:	6059      	str	r1, [r3, #4]
    61ee:	e704      	b.n	5ffa <_malloc_r+0x35a>
    61f0:	4630      	mov	r0, r6
    61f2:	f108 0108 	add.w	r1, r8, #8
    61f6:	f001 fd4f 	bl	7c98 <_free_r>
    61fa:	f8db 2004 	ldr.w	r2, [fp, #4]
    61fe:	e6fc      	b.n	5ffa <_malloc_r+0x35a>
    6200:	2101      	movs	r1, #1
    6202:	2500      	movs	r5, #0
    6204:	e6d4      	b.n	5fb0 <_malloc_r+0x310>
    6206:	687b      	ldr	r3, [r7, #4]
    6208:	ea23 030e 	bic.w	r3, r3, lr
    620c:	607b      	str	r3, [r7, #4]
    620e:	e7d1      	b.n	61b4 <_malloc_r+0x514>
    6210:	ea4f 0e4e 	mov.w	lr, lr, lsl #1
    6214:	f109 0904 	add.w	r9, r9, #4
    6218:	e7d6      	b.n	61c8 <_malloc_r+0x528>
    621a:	bf00      	nop

0000621c <memchr>:
    621c:	f010 0f03 	tst.w	r0, #3
    6220:	4603      	mov	r3, r0
    6222:	b470      	push	{r4, r5, r6}
    6224:	b2c9      	uxtb	r1, r1
    6226:	d010      	beq.n	624a <memchr+0x2e>
    6228:	b302      	cbz	r2, 626c <memchr+0x50>
    622a:	7803      	ldrb	r3, [r0, #0]
    622c:	428b      	cmp	r3, r1
    622e:	d01e      	beq.n	626e <memchr+0x52>
    6230:	3a01      	subs	r2, #1
    6232:	3001      	adds	r0, #1
    6234:	e005      	b.n	6242 <memchr+0x26>
    6236:	b1ca      	cbz	r2, 626c <memchr+0x50>
    6238:	f810 4b01 	ldrb.w	r4, [r0], #1
    623c:	3a01      	subs	r2, #1
    623e:	428c      	cmp	r4, r1
    6240:	d017      	beq.n	6272 <memchr+0x56>
    6242:	f010 0f03 	tst.w	r0, #3
    6246:	4603      	mov	r3, r0
    6248:	d1f5      	bne.n	6236 <memchr+0x1a>
    624a:	2a03      	cmp	r2, #3
    624c:	d813      	bhi.n	6276 <memchr+0x5a>
    624e:	b16a      	cbz	r2, 626c <memchr+0x50>
    6250:	7818      	ldrb	r0, [r3, #0]
    6252:	4288      	cmp	r0, r1
    6254:	d00d      	beq.n	6272 <memchr+0x56>
    6256:	3a01      	subs	r2, #1
    6258:	1c5c      	adds	r4, r3, #1
    625a:	e004      	b.n	6266 <memchr+0x4a>
    625c:	f814 5b01 	ldrb.w	r5, [r4], #1
    6260:	3a01      	subs	r2, #1
    6262:	428d      	cmp	r5, r1
    6264:	d003      	beq.n	626e <memchr+0x52>
    6266:	4620      	mov	r0, r4
    6268:	2a00      	cmp	r2, #0
    626a:	d1f7      	bne.n	625c <memchr+0x40>
    626c:	4610      	mov	r0, r2
    626e:	bc70      	pop	{r4, r5, r6}
    6270:	4770      	bx	lr
    6272:	4618      	mov	r0, r3
    6274:	e7fb      	b.n	626e <memchr+0x52>
    6276:	ea41 2601 	orr.w	r6, r1, r1, lsl #8
    627a:	ea46 4606 	orr.w	r6, r6, r6, lsl #16
    627e:	4618      	mov	r0, r3
    6280:	f853 4b04 	ldr.w	r4, [r3], #4
    6284:	ea86 0404 	eor.w	r4, r6, r4
    6288:	f1a4 3501 	sub.w	r5, r4, #16843009	; 0x1010101
    628c:	ea25 0404 	bic.w	r4, r5, r4
    6290:	f014 3f80 	tst.w	r4, #2155905152	; 0x80808080
    6294:	d103      	bne.n	629e <memchr+0x82>
    6296:	3a04      	subs	r2, #4
    6298:	4618      	mov	r0, r3
    629a:	2a03      	cmp	r2, #3
    629c:	d8ef      	bhi.n	627e <memchr+0x62>
    629e:	4603      	mov	r3, r0
    62a0:	e7d5      	b.n	624e <memchr+0x32>
    62a2:	bf00      	nop

000062a4 <memcpy>:
    62a4:	2a03      	cmp	r2, #3
    62a6:	e92d 01f0 	stmdb	sp!, {r4, r5, r6, r7, r8}
    62aa:	d809      	bhi.n	62c0 <memcpy+0x1c>
    62ac:	b12a      	cbz	r2, 62ba <memcpy+0x16>
    62ae:	2300      	movs	r3, #0
    62b0:	5ccc      	ldrb	r4, [r1, r3]
    62b2:	54c4      	strb	r4, [r0, r3]
    62b4:	3301      	adds	r3, #1
    62b6:	4293      	cmp	r3, r2
    62b8:	d1fa      	bne.n	62b0 <memcpy+0xc>
    62ba:	e8bd 01f0 	ldmia.w	sp!, {r4, r5, r6, r7, r8}
    62be:	4770      	bx	lr
    62c0:	460b      	mov	r3, r1
    62c2:	1882      	adds	r2, r0, r2
    62c4:	4601      	mov	r1, r0
    62c6:	e003      	b.n	62d0 <memcpy+0x2c>
    62c8:	7824      	ldrb	r4, [r4, #0]
    62ca:	3301      	adds	r3, #1
    62cc:	f801 4b01 	strb.w	r4, [r1], #1
    62d0:	f011 0f03 	tst.w	r1, #3
    62d4:	461c      	mov	r4, r3
    62d6:	d1f7      	bne.n	62c8 <memcpy+0x24>
    62d8:	f013 0503 	ands.w	r5, r3, #3
    62dc:	d05d      	beq.n	639a <memcpy+0xf6>
    62de:	426e      	negs	r6, r5
    62e0:	f1c5 0c04 	rsb	ip, r5, #4
    62e4:	00ed      	lsls	r5, r5, #3
    62e6:	599b      	ldr	r3, [r3, r6]
    62e8:	ea4f 0ccc 	mov.w	ip, ip, lsl #3
    62ec:	e008      	b.n	6300 <memcpy+0x5c>
    62ee:	3404      	adds	r4, #4
    62f0:	59a7      	ldr	r7, [r4, r6]
    62f2:	463b      	mov	r3, r7
    62f4:	fa07 f70c 	lsl.w	r7, r7, ip
    62f8:	ea48 0707 	orr.w	r7, r8, r7
    62fc:	f841 7b04 	str.w	r7, [r1], #4
    6300:	1a57      	subs	r7, r2, r1
    6302:	fa23 f805 	lsr.w	r8, r3, r5
    6306:	2f03      	cmp	r7, #3
    6308:	dcf1      	bgt.n	62ee <memcpy+0x4a>
    630a:	e003      	b.n	6314 <memcpy+0x70>
    630c:	f814 3b01 	ldrb.w	r3, [r4], #1
    6310:	f801 3b01 	strb.w	r3, [r1], #1
    6314:	428a      	cmp	r2, r1
    6316:	d8f9      	bhi.n	630c <memcpy+0x68>
    6318:	e7cf      	b.n	62ba <memcpy+0x16>
    631a:	f853 4c40 	ldr.w	r4, [r3, #-64]
    631e:	f841 4c40 	str.w	r4, [r1, #-64]
    6322:	f853 4c3c 	ldr.w	r4, [r3, #-60]
    6326:	f841 4c3c 	str.w	r4, [r1, #-60]
    632a:	f853 4c38 	ldr.w	r4, [r3, #-56]
    632e:	f841 4c38 	str.w	r4, [r1, #-56]
    6332:	f853 4c34 	ldr.w	r4, [r3, #-52]
    6336:	f841 4c34 	str.w	r4, [r1, #-52]
    633a:	f853 4c30 	ldr.w	r4, [r3, #-48]
    633e:	f841 4c30 	str.w	r4, [r1, #-48]
    6342:	f853 4c2c 	ldr.w	r4, [r3, #-44]
    6346:	f841 4c2c 	str.w	r4, [r1, #-44]
    634a:	f853 4c28 	ldr.w	r4, [r3, #-40]
    634e:	f841 4c28 	str.w	r4, [r1, #-40]
    6352:	f853 4c24 	ldr.w	r4, [r3, #-36]
    6356:	f841 4c24 	str.w	r4, [r1, #-36]
    635a:	f853 4c20 	ldr.w	r4, [r3, #-32]
    635e:	f841 4c20 	str.w	r4, [r1, #-32]
    6362:	f853 4c1c 	ldr.w	r4, [r3, #-28]
    6366:	f841 4c1c 	str.w	r4, [r1, #-28]
    636a:	f853 4c18 	ldr.w	r4, [r3, #-24]
    636e:	f841 4c18 	str.w	r4, [r1, #-24]
    6372:	f853 4c14 	ldr.w	r4, [r3, #-20]
    6376:	f841 4c14 	str.w	r4, [r1, #-20]
    637a:	f853 4c10 	ldr.w	r4, [r3, #-16]
    637e:	f841 4c10 	str.w	r4, [r1, #-16]
    6382:	f853 4c0c 	ldr.w	r4, [r3, #-12]
    6386:	f841 4c0c 	str.w	r4, [r1, #-12]
    638a:	f853 4c08 	ldr.w	r4, [r3, #-8]
    638e:	f841 4c08 	str.w	r4, [r1, #-8]
    6392:	f853 4c04 	ldr.w	r4, [r3, #-4]
    6396:	f841 4c04 	str.w	r4, [r1, #-4]
    639a:	1a56      	subs	r6, r2, r1
    639c:	461d      	mov	r5, r3
    639e:	460c      	mov	r4, r1
    63a0:	3340      	adds	r3, #64	; 0x40
    63a2:	3140      	adds	r1, #64	; 0x40
    63a4:	2e3f      	cmp	r6, #63	; 0x3f
    63a6:	dcb8      	bgt.n	631a <memcpy+0x76>
    63a8:	462b      	mov	r3, r5
    63aa:	e00f      	b.n	63cc <memcpy+0x128>
    63ac:	f853 1c10 	ldr.w	r1, [r3, #-16]
    63b0:	f844 1c10 	str.w	r1, [r4, #-16]
    63b4:	f853 1c0c 	ldr.w	r1, [r3, #-12]
    63b8:	f844 1c0c 	str.w	r1, [r4, #-12]
    63bc:	f853 1c08 	ldr.w	r1, [r3, #-8]
    63c0:	f844 1c08 	str.w	r1, [r4, #-8]
    63c4:	f853 1c04 	ldr.w	r1, [r3, #-4]
    63c8:	f844 1c04 	str.w	r1, [r4, #-4]
    63cc:	1b16      	subs	r6, r2, r4
    63ce:	461d      	mov	r5, r3
    63d0:	3310      	adds	r3, #16
    63d2:	2e0f      	cmp	r6, #15
    63d4:	4621      	mov	r1, r4
    63d6:	f104 0410 	add.w	r4, r4, #16
    63da:	dce7      	bgt.n	63ac <memcpy+0x108>
    63dc:	462b      	mov	r3, r5
    63de:	e002      	b.n	63e6 <memcpy+0x142>
    63e0:	6824      	ldr	r4, [r4, #0]
    63e2:	f841 4b04 	str.w	r4, [r1], #4
    63e6:	1a55      	subs	r5, r2, r1
    63e8:	461c      	mov	r4, r3
    63ea:	2d03      	cmp	r5, #3
    63ec:	f103 0304 	add.w	r3, r3, #4
    63f0:	dcf6      	bgt.n	63e0 <memcpy+0x13c>
    63f2:	e78f      	b.n	6314 <memcpy+0x70>

000063f4 <__malloc_lock>:
    63f4:	4770      	bx	lr
    63f6:	bf00      	nop

000063f8 <__malloc_unlock>:
    63f8:	4770      	bx	lr
    63fa:	bf00      	nop

000063fc <_Balloc>:
    63fc:	b570      	push	{r4, r5, r6, lr}
    63fe:	4606      	mov	r6, r0
    6400:	6a44      	ldr	r4, [r0, #36]	; 0x24
    6402:	460d      	mov	r5, r1
    6404:	b15c      	cbz	r4, 641e <_Balloc+0x22>
    6406:	68e3      	ldr	r3, [r4, #12]
    6408:	b19b      	cbz	r3, 6432 <_Balloc+0x36>
    640a:	f853 0025 	ldr.w	r0, [r3, r5, lsl #2]
    640e:	b1e0      	cbz	r0, 644a <_Balloc+0x4e>
    6410:	6802      	ldr	r2, [r0, #0]
    6412:	f843 2025 	str.w	r2, [r3, r5, lsl #2]
    6416:	2300      	movs	r3, #0
    6418:	6103      	str	r3, [r0, #16]
    641a:	60c3      	str	r3, [r0, #12]
    641c:	bd70      	pop	{r4, r5, r6, pc}
    641e:	2010      	movs	r0, #16
    6420:	f7ff fc2e 	bl	5c80 <malloc>
    6424:	2300      	movs	r3, #0
    6426:	4604      	mov	r4, r0
    6428:	6270      	str	r0, [r6, #36]	; 0x24
    642a:	6043      	str	r3, [r0, #4]
    642c:	6083      	str	r3, [r0, #8]
    642e:	6003      	str	r3, [r0, #0]
    6430:	60c3      	str	r3, [r0, #12]
    6432:	4630      	mov	r0, r6
    6434:	2104      	movs	r1, #4
    6436:	2221      	movs	r2, #33	; 0x21
    6438:	f001 fbac 	bl	7b94 <_calloc_r>
    643c:	6a73      	ldr	r3, [r6, #36]	; 0x24
    643e:	60e0      	str	r0, [r4, #12]
    6440:	68db      	ldr	r3, [r3, #12]
    6442:	2b00      	cmp	r3, #0
    6444:	d1e1      	bne.n	640a <_Balloc+0xe>
    6446:	4618      	mov	r0, r3
    6448:	bd70      	pop	{r4, r5, r6, pc}
    644a:	2401      	movs	r4, #1
    644c:	4630      	mov	r0, r6
    644e:	4621      	mov	r1, r4
    6450:	40ac      	lsls	r4, r5
    6452:	1d62      	adds	r2, r4, #5
    6454:	0092      	lsls	r2, r2, #2
    6456:	f001 fb9d 	bl	7b94 <_calloc_r>
    645a:	2800      	cmp	r0, #0
    645c:	d0f4      	beq.n	6448 <_Balloc+0x4c>
    645e:	6045      	str	r5, [r0, #4]
    6460:	6084      	str	r4, [r0, #8]
    6462:	e7d8      	b.n	6416 <_Balloc+0x1a>

00006464 <_Bfree>:
    6464:	b530      	push	{r4, r5, lr}
    6466:	4604      	mov	r4, r0
    6468:	6a45      	ldr	r5, [r0, #36]	; 0x24
    646a:	b083      	sub	sp, #12
    646c:	b155      	cbz	r5, 6484 <_Bfree+0x20>
    646e:	b139      	cbz	r1, 6480 <_Bfree+0x1c>
    6470:	6a63      	ldr	r3, [r4, #36]	; 0x24
    6472:	684a      	ldr	r2, [r1, #4]
    6474:	68db      	ldr	r3, [r3, #12]
    6476:	f853 0022 	ldr.w	r0, [r3, r2, lsl #2]
    647a:	6008      	str	r0, [r1, #0]
    647c:	f843 1022 	str.w	r1, [r3, r2, lsl #2]
    6480:	b003      	add	sp, #12
    6482:	bd30      	pop	{r4, r5, pc}
    6484:	2010      	movs	r0, #16
    6486:	9101      	str	r1, [sp, #4]
    6488:	f7ff fbfa 	bl	5c80 <malloc>
    648c:	9901      	ldr	r1, [sp, #4]
    648e:	6260      	str	r0, [r4, #36]	; 0x24
    6490:	6045      	str	r5, [r0, #4]
    6492:	6085      	str	r5, [r0, #8]
    6494:	6005      	str	r5, [r0, #0]
    6496:	60c5      	str	r5, [r0, #12]
    6498:	e7e9      	b.n	646e <_Bfree+0xa>
    649a:	bf00      	nop

0000649c <__multadd>:
    649c:	e92d 41f0 	stmdb	sp!, {r4, r5, r6, r7, r8, lr}
    64a0:	460c      	mov	r4, r1
    64a2:	4605      	mov	r5, r0
    64a4:	690e      	ldr	r6, [r1, #16]
    64a6:	f101 0014 	add.w	r0, r1, #20
    64aa:	b082      	sub	sp, #8
    64ac:	2100      	movs	r1, #0
    64ae:	6807      	ldr	r7, [r0, #0]
    64b0:	3101      	adds	r1, #1
    64b2:	fa1f fc87 	uxth.w	ip, r7
    64b6:	0c3f      	lsrs	r7, r7, #16
    64b8:	fb0c 3302 	mla	r3, ip, r2, r3
    64bc:	fb07 f702 	mul.w	r7, r7, r2
    64c0:	eb07 4713 	add.w	r7, r7, r3, lsr #16
    64c4:	fa1f fc83 	uxth.w	ip, r3
    64c8:	0c3b      	lsrs	r3, r7, #16
    64ca:	428e      	cmp	r6, r1
    64cc:	ea4f 4807 	mov.w	r8, r7, lsl #16
    64d0:	eb08 070c 	add.w	r7, r8, ip
    64d4:	f840 7b04 	str.w	r7, [r0], #4
    64d8:	dce9      	bgt.n	64ae <__multadd+0x12>
    64da:	b13b      	cbz	r3, 64ec <__multadd+0x50>
    64dc:	68a2      	ldr	r2, [r4, #8]
    64de:	4296      	cmp	r6, r2
    64e0:	da08      	bge.n	64f4 <__multadd+0x58>
    64e2:	eb04 0286 	add.w	r2, r4, r6, lsl #2
    64e6:	3601      	adds	r6, #1
    64e8:	6126      	str	r6, [r4, #16]
    64ea:	6153      	str	r3, [r2, #20]
    64ec:	4620      	mov	r0, r4
    64ee:	b002      	add	sp, #8
    64f0:	e8bd 81f0 	ldmia.w	sp!, {r4, r5, r6, r7, r8, pc}
    64f4:	6861      	ldr	r1, [r4, #4]
    64f6:	4628      	mov	r0, r5
    64f8:	9301      	str	r3, [sp, #4]
    64fa:	3101      	adds	r1, #1
    64fc:	f7ff ff7e 	bl	63fc <_Balloc>
    6500:	6922      	ldr	r2, [r4, #16]
    6502:	f104 010c 	add.w	r1, r4, #12
    6506:	3202      	adds	r2, #2
    6508:	0092      	lsls	r2, r2, #2
    650a:	4607      	mov	r7, r0
    650c:	300c      	adds	r0, #12
    650e:	f7ff fec9 	bl	62a4 <memcpy>
    6512:	4621      	mov	r1, r4
    6514:	4628      	mov	r0, r5
    6516:	463c      	mov	r4, r7
    6518:	f7ff ffa4 	bl	6464 <_Bfree>
    651c:	9b01      	ldr	r3, [sp, #4]
    651e:	e7e0      	b.n	64e2 <__multadd+0x46>

00006520 <__s2b>:
    6520:	e92d 43f8 	stmdb	sp!, {r3, r4, r5, r6, r7, r8, r9, lr}
    6524:	f648 6439 	movw	r4, #36409	; 0x8e39
    6528:	461e      	mov	r6, r3
    652a:	f6c3 04e3 	movt	r4, #14563	; 0x38e3
    652e:	3308      	adds	r3, #8
    6530:	4688      	mov	r8, r1
    6532:	4605      	mov	r5, r0
    6534:	4617      	mov	r7, r2
    6536:	fb84 1403 	smull	r1, r4, r4, r3
    653a:	17db      	asrs	r3, r3, #31
    653c:	ebc3 0364 	rsb	r3, r3, r4, asr #1
    6540:	2b01      	cmp	r3, #1
    6542:	dd34      	ble.n	65ae <__s2b+0x8e>
    6544:	2201      	movs	r2, #1
    6546:	2100      	movs	r1, #0
    6548:	0052      	lsls	r2, r2, #1
    654a:	3101      	adds	r1, #1
    654c:	4293      	cmp	r3, r2
    654e:	dcfb      	bgt.n	6548 <__s2b+0x28>
    6550:	4628      	mov	r0, r5
    6552:	f7ff ff53 	bl	63fc <_Balloc>
    6556:	9b08      	ldr	r3, [sp, #32]
    6558:	6143      	str	r3, [r0, #20]
    655a:	2301      	movs	r3, #1
    655c:	2f09      	cmp	r7, #9
    655e:	4601      	mov	r1, r0
    6560:	6103      	str	r3, [r0, #16]
    6562:	dd20      	ble.n	65a6 <__s2b+0x86>
    6564:	f108 0909 	add.w	r9, r8, #9
    6568:	2409      	movs	r4, #9
    656a:	f818 3004 	ldrb.w	r3, [r8, r4]
    656e:	220a      	movs	r2, #10
    6570:	4628      	mov	r0, r5
    6572:	3401      	adds	r4, #1
    6574:	3b30      	subs	r3, #48	; 0x30
    6576:	f7ff ff91 	bl	649c <__multadd>
    657a:	42a7      	cmp	r7, r4
    657c:	4601      	mov	r1, r0
    657e:	dcf4      	bgt.n	656a <__s2b+0x4a>
    6580:	eb09 0807 	add.w	r8, r9, r7
    6584:	f1a8 0808 	sub.w	r8, r8, #8
    6588:	e008      	b.n	659c <__s2b+0x7c>
    658a:	f818 3b01 	ldrb.w	r3, [r8], #1
    658e:	4628      	mov	r0, r5
    6590:	220a      	movs	r2, #10
    6592:	3701      	adds	r7, #1
    6594:	3b30      	subs	r3, #48	; 0x30
    6596:	f7ff ff81 	bl	649c <__multadd>
    659a:	4601      	mov	r1, r0
    659c:	42be      	cmp	r6, r7
    659e:	dcf4      	bgt.n	658a <__s2b+0x6a>
    65a0:	4608      	mov	r0, r1
    65a2:	e8bd 83f8 	ldmia.w	sp!, {r3, r4, r5, r6, r7, r8, r9, pc}
    65a6:	f108 080a 	add.w	r8, r8, #10
    65aa:	2709      	movs	r7, #9
    65ac:	e7f6      	b.n	659c <__s2b+0x7c>
    65ae:	2100      	movs	r1, #0
    65b0:	e7ce      	b.n	6550 <__s2b+0x30>
    65b2:	bf00      	nop

000065b4 <__hi0bits>:
    65b4:	0c02      	lsrs	r2, r0, #16
    65b6:	4603      	mov	r3, r0
    65b8:	d119      	bne.n	65ee <__hi0bits+0x3a>
    65ba:	0403      	lsls	r3, r0, #16
    65bc:	2010      	movs	r0, #16
    65be:	f013 4f7f 	tst.w	r3, #4278190080	; 0xff000000
    65c2:	d101      	bne.n	65c8 <__hi0bits+0x14>
    65c4:	3008      	adds	r0, #8
    65c6:	021b      	lsls	r3, r3, #8
    65c8:	f013 4f70 	tst.w	r3, #4026531840	; 0xf0000000
    65cc:	d101      	bne.n	65d2 <__hi0bits+0x1e>
    65ce:	3004      	adds	r0, #4
    65d0:	011b      	lsls	r3, r3, #4
    65d2:	f013 4f40 	tst.w	r3, #3221225472	; 0xc0000000
    65d6:	d101      	bne.n	65dc <__hi0bits+0x28>
    65d8:	3002      	adds	r0, #2
    65da:	009b      	lsls	r3, r3, #2
    65dc:	2b00      	cmp	r3, #0
    65de:	db05      	blt.n	65ec <__hi0bits+0x38>
    65e0:	f013 4f80 	tst.w	r3, #1073741824	; 0x40000000
    65e4:	d001      	beq.n	65ea <__hi0bits+0x36>
    65e6:	3001      	adds	r0, #1
    65e8:	4770      	bx	lr
    65ea:	2020      	movs	r0, #32
    65ec:	4770      	bx	lr
    65ee:	2000      	movs	r0, #0
    65f0:	e7e5      	b.n	65be <__hi0bits+0xa>
    65f2:	bf00      	nop

000065f4 <__lo0bits>:
    65f4:	6803      	ldr	r3, [r0, #0]
    65f6:	4602      	mov	r2, r0
    65f8:	f013 0007 	ands.w	r0, r3, #7
    65fc:	d009      	beq.n	6612 <__lo0bits+0x1e>
    65fe:	f013 0f01 	tst.w	r3, #1
    6602:	d121      	bne.n	6648 <__lo0bits+0x54>
    6604:	f013 0f02 	tst.w	r3, #2
    6608:	d122      	bne.n	6650 <__lo0bits+0x5c>
    660a:	089b      	lsrs	r3, r3, #2
    660c:	2002      	movs	r0, #2
    660e:	6013      	str	r3, [r2, #0]
    6610:	4770      	bx	lr
    6612:	b299      	uxth	r1, r3
    6614:	b909      	cbnz	r1, 661a <__lo0bits+0x26>
    6616:	0c1b      	lsrs	r3, r3, #16
    6618:	2010      	movs	r0, #16
    661a:	f013 0fff 	tst.w	r3, #255	; 0xff
    661e:	d101      	bne.n	6624 <__lo0bits+0x30>
    6620:	3008      	adds	r0, #8
    6622:	0a1b      	lsrs	r3, r3, #8
    6624:	f013 0f0f 	tst.w	r3, #15
    6628:	d101      	bne.n	662e <__lo0bits+0x3a>
    662a:	3004      	adds	r0, #4
    662c:	091b      	lsrs	r3, r3, #4
    662e:	f013 0f03 	tst.w	r3, #3
    6632:	d101      	bne.n	6638 <__lo0bits+0x44>
    6634:	3002      	adds	r0, #2
    6636:	089b      	lsrs	r3, r3, #2
    6638:	f013 0f01 	tst.w	r3, #1
    663c:	d102      	bne.n	6644 <__lo0bits+0x50>
    663e:	085b      	lsrs	r3, r3, #1
    6640:	d004      	beq.n	664c <__lo0bits+0x58>
    6642:	3001      	adds	r0, #1
    6644:	6013      	str	r3, [r2, #0]
    6646:	4770      	bx	lr
    6648:	2000      	movs	r0, #0
    664a:	4770      	bx	lr
    664c:	2020      	movs	r0, #32
    664e:	4770      	bx	lr
    6650:	085b      	lsrs	r3, r3, #1
    6652:	2001      	movs	r0, #1
    6654:	6013      	str	r3, [r2, #0]
    6656:	4770      	bx	lr

00006658 <__i2b>:
    6658:	b510      	push	{r4, lr}
    665a:	460c      	mov	r4, r1
    665c:	2101      	movs	r1, #1
    665e:	f7ff fecd 	bl	63fc <_Balloc>
    6662:	2201      	movs	r2, #1
    6664:	6144      	str	r4, [r0, #20]
    6666:	6102      	str	r2, [r0, #16]
    6668:	bd10      	pop	{r4, pc}
    666a:	bf00      	nop

0000666c <__multiply>:
    666c:	e92d 4ff0 	stmdb	sp!, {r4, r5, r6, r7, r8, r9, sl, fp, lr}
    6670:	460d      	mov	r5, r1
    6672:	690f      	ldr	r7, [r1, #16]
    6674:	b085      	sub	sp, #20
    6676:	6916      	ldr	r6, [r2, #16]
    6678:	4690      	mov	r8, r2
    667a:	42b7      	cmp	r7, r6
    667c:	da04      	bge.n	6688 <__multiply+0x1c>
    667e:	463a      	mov	r2, r7
    6680:	4645      	mov	r5, r8
    6682:	4637      	mov	r7, r6
    6684:	4688      	mov	r8, r1
    6686:	4616      	mov	r6, r2
    6688:	68ab      	ldr	r3, [r5, #8]
    668a:	19f4      	adds	r4, r6, r7
    668c:	6869      	ldr	r1, [r5, #4]
    668e:	429c      	cmp	r4, r3
    6690:	bfc8      	it	gt
    6692:	3101      	addgt	r1, #1
    6694:	f7ff feb2 	bl	63fc <_Balloc>
    6698:	eb00 0384 	add.w	r3, r0, r4, lsl #2
    669c:	f100 0c14 	add.w	ip, r0, #20
    66a0:	3314      	adds	r3, #20
    66a2:	9001      	str	r0, [sp, #4]
    66a4:	459c      	cmp	ip, r3
    66a6:	9302      	str	r3, [sp, #8]
    66a8:	d206      	bcs.n	66b8 <__multiply+0x4c>
    66aa:	9902      	ldr	r1, [sp, #8]
    66ac:	4663      	mov	r3, ip
    66ae:	2200      	movs	r2, #0
    66b0:	f843 2b04 	str.w	r2, [r3], #4
    66b4:	4299      	cmp	r1, r3
    66b6:	d8fb      	bhi.n	66b0 <__multiply+0x44>
    66b8:	eb08 0686 	add.w	r6, r8, r6, lsl #2
    66bc:	eb05 0787 	add.w	r7, r5, r7, lsl #2
    66c0:	f108 0814 	add.w	r8, r8, #20
    66c4:	3614      	adds	r6, #20
    66c6:	3514      	adds	r5, #20
    66c8:	3714      	adds	r7, #20
    66ca:	45b0      	cmp	r8, r6
    66cc:	9500      	str	r5, [sp, #0]
    66ce:	d24d      	bcs.n	676c <__multiply+0x100>
    66d0:	9403      	str	r4, [sp, #12]
    66d2:	f858 4b04 	ldr.w	r4, [r8], #4
    66d6:	b2a0      	uxth	r0, r4
    66d8:	b1f0      	cbz	r0, 6718 <__multiply+0xac>
    66da:	9a00      	ldr	r2, [sp, #0]
    66dc:	4663      	mov	r3, ip
    66de:	2400      	movs	r4, #0
    66e0:	f852 5b04 	ldr.w	r5, [r2], #4
    66e4:	6819      	ldr	r1, [r3, #0]
    66e6:	fa1f fa85 	uxth.w	sl, r5
    66ea:	0c2d      	lsrs	r5, r5, #16
    66ec:	fa1f f981 	uxth.w	r9, r1
    66f0:	0c09      	lsrs	r1, r1, #16
    66f2:	fb00 990a 	mla	r9, r0, sl, r9
    66f6:	fb00 1105 	mla	r1, r0, r5, r1
    66fa:	44a1      	add	r9, r4
    66fc:	eb01 4119 	add.w	r1, r1, r9, lsr #16
    6700:	fa1f f989 	uxth.w	r9, r9
    6704:	0c0c      	lsrs	r4, r1, #16
    6706:	4297      	cmp	r7, r2
    6708:	ea49 4501 	orr.w	r5, r9, r1, lsl #16
    670c:	f843 5b04 	str.w	r5, [r3], #4
    6710:	d8e6      	bhi.n	66e0 <__multiply+0x74>
    6712:	601c      	str	r4, [r3, #0]
    6714:	f858 4c04 	ldr.w	r4, [r8, #-4]
    6718:	0c24      	lsrs	r4, r4, #16
    671a:	d021      	beq.n	6760 <__multiply+0xf4>
    671c:	f8dc 2000 	ldr.w	r2, [ip]
    6720:	4660      	mov	r0, ip
    6722:	9b00      	ldr	r3, [sp, #0]
    6724:	46e1      	mov	r9, ip
    6726:	4611      	mov	r1, r2
    6728:	2500      	movs	r5, #0
    672a:	f8b3 a000 	ldrh.w	sl, [r3]
    672e:	fa1f fb82 	uxth.w	fp, r2
    6732:	fb0a 5504 	mla	r5, sl, r4, r5
    6736:	eb05 4511 	add.w	r5, r5, r1, lsr #16
    673a:	ea4b 4205 	orr.w	r2, fp, r5, lsl #16
    673e:	f840 2b04 	str.w	r2, [r0], #4
    6742:	f853 2b04 	ldr.w	r2, [r3], #4
    6746:	f859 1f04 	ldr.w	r1, [r9, #4]!
    674a:	0c12      	lsrs	r2, r2, #16
    674c:	fa1f fa81 	uxth.w	sl, r1
    6750:	fb02 a204 	mla	r2, r2, r4, sl
    6754:	eb02 4215 	add.w	r2, r2, r5, lsr #16
    6758:	0c15      	lsrs	r5, r2, #16
    675a:	429f      	cmp	r7, r3
    675c:	d8e5      	bhi.n	672a <__multiply+0xbe>
    675e:	6002      	str	r2, [r0, #0]
    6760:	4546      	cmp	r6, r8
    6762:	d902      	bls.n	676a <__multiply+0xfe>
    6764:	f10c 0c04 	add.w	ip, ip, #4
    6768:	e7b3      	b.n	66d2 <__multiply+0x66>
    676a:	9c03      	ldr	r4, [sp, #12]
    676c:	2c00      	cmp	r4, #0
    676e:	dd0b      	ble.n	6788 <__multiply+0x11c>
    6770:	9902      	ldr	r1, [sp, #8]
    6772:	1f0b      	subs	r3, r1, #4
    6774:	f851 2c04 	ldr.w	r2, [r1, #-4]
    6778:	b11a      	cbz	r2, 6782 <__multiply+0x116>
    677a:	e005      	b.n	6788 <__multiply+0x11c>
    677c:	f853 2d04 	ldr.w	r2, [r3, #-4]!
    6780:	b912      	cbnz	r2, 6788 <__multiply+0x11c>
    6782:	3c01      	subs	r4, #1
    6784:	2c00      	cmp	r4, #0
    6786:	dcf9      	bgt.n	677c <__multiply+0x110>
    6788:	9a01      	ldr	r2, [sp, #4]
    678a:	4610      	mov	r0, r2
    678c:	6114      	str	r4, [r2, #16]
    678e:	b005      	add	sp, #20
    6790:	e8bd 8ff0 	ldmia.w	sp!, {r4, r5, r6, r7, r8, r9, sl, fp, pc}

00006794 <__pow5mult>:
    6794:	f012 0303 	ands.w	r3, r2, #3
    6798:	e92d 41f0 	stmdb	sp!, {r4, r5, r6, r7, r8, lr}
    679c:	4615      	mov	r5, r2
    679e:	4604      	mov	r4, r0
    67a0:	4688      	mov	r8, r1
    67a2:	d128      	bne.n	67f6 <__pow5mult+0x62>
    67a4:	10ad      	asrs	r5, r5, #2
    67a6:	d01a      	beq.n	67de <__pow5mult+0x4a>
    67a8:	6a66      	ldr	r6, [r4, #36]	; 0x24
    67aa:	2e00      	cmp	r6, #0
    67ac:	d02f      	beq.n	680e <__pow5mult+0x7a>
    67ae:	68b7      	ldr	r7, [r6, #8]
    67b0:	b92f      	cbnz	r7, 67be <__pow5mult+0x2a>
    67b2:	e036      	b.n	6822 <__pow5mult+0x8e>
    67b4:	106d      	asrs	r5, r5, #1
    67b6:	d012      	beq.n	67de <__pow5mult+0x4a>
    67b8:	683e      	ldr	r6, [r7, #0]
    67ba:	b19e      	cbz	r6, 67e4 <__pow5mult+0x50>
    67bc:	4637      	mov	r7, r6
    67be:	f015 0f01 	tst.w	r5, #1
    67c2:	d0f7      	beq.n	67b4 <__pow5mult+0x20>
    67c4:	4641      	mov	r1, r8
    67c6:	463a      	mov	r2, r7
    67c8:	4620      	mov	r0, r4
    67ca:	f7ff ff4f 	bl	666c <__multiply>
    67ce:	4641      	mov	r1, r8
    67d0:	4606      	mov	r6, r0
    67d2:	4620      	mov	r0, r4
    67d4:	f7ff fe46 	bl	6464 <_Bfree>
    67d8:	106d      	asrs	r5, r5, #1
    67da:	46b0      	mov	r8, r6
    67dc:	d1ec      	bne.n	67b8 <__pow5mult+0x24>
    67de:	4640      	mov	r0, r8
    67e0:	e8bd 81f0 	ldmia.w	sp!, {r4, r5, r6, r7, r8, pc}
    67e4:	4639      	mov	r1, r7
    67e6:	463a      	mov	r2, r7
    67e8:	4620      	mov	r0, r4
    67ea:	f7ff ff3f 	bl	666c <__multiply>
    67ee:	6038      	str	r0, [r7, #0]
    67f0:	4607      	mov	r7, r0
    67f2:	6006      	str	r6, [r0, #0]
    67f4:	e7e3      	b.n	67be <__pow5mult+0x2a>
    67f6:	f649 3210 	movw	r2, #39696	; 0x9b10
    67fa:	1e5e      	subs	r6, r3, #1
    67fc:	f2c0 0200 	movt	r2, #0
    6800:	2300      	movs	r3, #0
    6802:	f852 2026 	ldr.w	r2, [r2, r6, lsl #2]
    6806:	f7ff fe49 	bl	649c <__multadd>
    680a:	4680      	mov	r8, r0
    680c:	e7ca      	b.n	67a4 <__pow5mult+0x10>
    680e:	2010      	movs	r0, #16
    6810:	f7ff fa36 	bl	5c80 <malloc>
    6814:	2300      	movs	r3, #0
    6816:	4606      	mov	r6, r0
    6818:	6260      	str	r0, [r4, #36]	; 0x24
    681a:	6043      	str	r3, [r0, #4]
    681c:	6083      	str	r3, [r0, #8]
    681e:	6003      	str	r3, [r0, #0]
    6820:	60c3      	str	r3, [r0, #12]
    6822:	4620      	mov	r0, r4
    6824:	f240 2171 	movw	r1, #625	; 0x271
    6828:	f7ff ff16 	bl	6658 <__i2b>
    682c:	2300      	movs	r3, #0
    682e:	60b0      	str	r0, [r6, #8]
    6830:	4607      	mov	r7, r0
    6832:	6003      	str	r3, [r0, #0]
    6834:	e7c3      	b.n	67be <__pow5mult+0x2a>
    6836:	bf00      	nop

00006838 <__lshift>:
    6838:	e92d 43f8 	stmdb	sp!, {r3, r4, r5, r6, r7, r8, r9, lr}
    683c:	1156      	asrs	r6, r2, #5
    683e:	690d      	ldr	r5, [r1, #16]
    6840:	460c      	mov	r4, r1
    6842:	688b      	ldr	r3, [r1, #8]
    6844:	4690      	mov	r8, r2
    6846:	3501      	adds	r5, #1
    6848:	4681      	mov	r9, r0
    684a:	19ad      	adds	r5, r5, r6
    684c:	6849      	ldr	r1, [r1, #4]
    684e:	429d      	cmp	r5, r3
    6850:	dd03      	ble.n	685a <__lshift+0x22>
    6852:	005b      	lsls	r3, r3, #1
    6854:	3101      	adds	r1, #1
    6856:	429d      	cmp	r5, r3
    6858:	dcfb      	bgt.n	6852 <__lshift+0x1a>
    685a:	4648      	mov	r0, r9
    685c:	f7ff fdce 	bl	63fc <_Balloc>
    6860:	2e00      	cmp	r6, #0
    6862:	4607      	mov	r7, r0
    6864:	f100 0214 	add.w	r2, r0, #20
    6868:	dd0a      	ble.n	6880 <__lshift+0x48>
    686a:	2300      	movs	r3, #0
    686c:	4619      	mov	r1, r3
    686e:	3301      	adds	r3, #1
    6870:	f842 1b04 	str.w	r1, [r2], #4
    6874:	42b3      	cmp	r3, r6
    6876:	d1fa      	bne.n	686e <__lshift+0x36>
    6878:	eb07 0383 	add.w	r3, r7, r3, lsl #2
    687c:	f103 0214 	add.w	r2, r3, #20
    6880:	6926      	ldr	r6, [r4, #16]
    6882:	f104 0114 	add.w	r1, r4, #20
    6886:	eb04 0686 	add.w	r6, r4, r6, lsl #2
    688a:	3614      	adds	r6, #20
    688c:	f018 081f 	ands.w	r8, r8, #31
    6890:	d01a      	beq.n	68c8 <__lshift+0x90>
    6892:	f1c8 0e20 	rsb	lr, r8, #32
    6896:	2000      	movs	r0, #0
    6898:	680b      	ldr	r3, [r1, #0]
    689a:	fa03 f308 	lsl.w	r3, r3, r8
    689e:	4318      	orrs	r0, r3
    68a0:	f842 0b04 	str.w	r0, [r2], #4
    68a4:	f851 0b04 	ldr.w	r0, [r1], #4
    68a8:	428e      	cmp	r6, r1
    68aa:	fa20 f00e 	lsr.w	r0, r0, lr
    68ae:	d8f3      	bhi.n	6898 <__lshift+0x60>
    68b0:	6010      	str	r0, [r2, #0]
    68b2:	b100      	cbz	r0, 68b6 <__lshift+0x7e>
    68b4:	3501      	adds	r5, #1
    68b6:	4648      	mov	r0, r9
    68b8:	3d01      	subs	r5, #1
    68ba:	4621      	mov	r1, r4
    68bc:	613d      	str	r5, [r7, #16]
    68be:	f7ff fdd1 	bl	6464 <_Bfree>
    68c2:	4638      	mov	r0, r7
    68c4:	e8bd 83f8 	ldmia.w	sp!, {r3, r4, r5, r6, r7, r8, r9, pc}
    68c8:	f851 3b04 	ldr.w	r3, [r1], #4
    68cc:	428e      	cmp	r6, r1
    68ce:	f842 3b04 	str.w	r3, [r2], #4
    68d2:	d9f0      	bls.n	68b6 <__lshift+0x7e>
    68d4:	f851 3b04 	ldr.w	r3, [r1], #4
    68d8:	428e      	cmp	r6, r1
    68da:	f842 3b04 	str.w	r3, [r2], #4
    68de:	d8f3      	bhi.n	68c8 <__lshift+0x90>
    68e0:	e7e9      	b.n	68b6 <__lshift+0x7e>
    68e2:	bf00      	nop

000068e4 <__mcmp>:
    68e4:	4603      	mov	r3, r0
    68e6:	690a      	ldr	r2, [r1, #16]
    68e8:	6900      	ldr	r0, [r0, #16]
    68ea:	b430      	push	{r4, r5}
    68ec:	1a80      	subs	r0, r0, r2
    68ee:	d10f      	bne.n	6910 <__mcmp+0x2c>
    68f0:	3204      	adds	r2, #4
    68f2:	f103 0514 	add.w	r5, r3, #20
    68f6:	0092      	lsls	r2, r2, #2
    68f8:	189b      	adds	r3, r3, r2
    68fa:	1889      	adds	r1, r1, r2
    68fc:	3304      	adds	r3, #4
    68fe:	3104      	adds	r1, #4
    6900:	f853 4d04 	ldr.w	r4, [r3, #-4]!
    6904:	f851 2d04 	ldr.w	r2, [r1, #-4]!
    6908:	4294      	cmp	r4, r2
    690a:	d103      	bne.n	6914 <__mcmp+0x30>
    690c:	429d      	cmp	r5, r3
    690e:	d3f7      	bcc.n	6900 <__mcmp+0x1c>
    6910:	bc30      	pop	{r4, r5}
    6912:	4770      	bx	lr
    6914:	bf38      	it	cc
    6916:	f04f 30ff 	movcc.w	r0, #4294967295
    691a:	d3f9      	bcc.n	6910 <__mcmp+0x2c>
    691c:	2001      	movs	r0, #1
    691e:	e7f7      	b.n	6910 <__mcmp+0x2c>

00006920 <__mdiff>:
    6920:	e92d 4ff8 	stmdb	sp!, {r3, r4, r5, r6, r7, r8, r9, sl, fp, lr}
    6924:	4689      	mov	r9, r1
    6926:	4604      	mov	r4, r0
    6928:	4611      	mov	r1, r2
    692a:	4648      	mov	r0, r9
    692c:	4690      	mov	r8, r2
    692e:	f7ff ffd9 	bl	68e4 <__mcmp>
    6932:	1e05      	subs	r5, r0, #0
    6934:	d064      	beq.n	6a00 <__mdiff+0xe0>
    6936:	bfbc      	itt	lt
    6938:	464b      	movlt	r3, r9
    693a:	46c1      	movlt	r9, r8
    693c:	4620      	mov	r0, r4
    693e:	bfb8      	it	lt
    6940:	4698      	movlt	r8, r3
    6942:	f8d9 1004 	ldr.w	r1, [r9, #4]
    6946:	bfac      	ite	ge
    6948:	f04f 0a00 	movge.w	sl, #0
    694c:	f04f 0a01 	movlt.w	sl, #1
    6950:	f7ff fd54 	bl	63fc <_Balloc>
    6954:	f8d9 6010 	ldr.w	r6, [r9, #16]
    6958:	f109 0514 	add.w	r5, r9, #20
    695c:	f8d8 3010 	ldr.w	r3, [r8, #16]
    6960:	f108 0714 	add.w	r7, r8, #20
    6964:	2400      	movs	r4, #0
    6966:	eb09 0986 	add.w	r9, r9, r6, lsl #2
    696a:	f109 0914 	add.w	r9, r9, #20
    696e:	4683      	mov	fp, r0
    6970:	3014      	adds	r0, #20
    6972:	f8cb a00c 	str.w	sl, [fp, #12]
    6976:	eb08 0a83 	add.w	sl, r8, r3, lsl #2
    697a:	f10a 0a14 	add.w	sl, sl, #20
    697e:	f855 1b04 	ldr.w	r1, [r5], #4
    6982:	4603      	mov	r3, r0
    6984:	f857 0b04 	ldr.w	r0, [r7], #4
    6988:	462a      	mov	r2, r5
    698a:	fa1f f881 	uxth.w	r8, r1
    698e:	fa1f fc80 	uxth.w	ip, r0
    6992:	0c00      	lsrs	r0, r0, #16
    6994:	ebcc 0c08 	rsb	ip, ip, r8
    6998:	ebc0 4011 	rsb	r0, r0, r1, lsr #16
    699c:	4464      	add	r4, ip
    699e:	eb00 4024 	add.w	r0, r0, r4, asr #16
    69a2:	b2a4      	uxth	r4, r4
    69a4:	ea44 4100 	orr.w	r1, r4, r0, lsl #16
    69a8:	1404      	asrs	r4, r0, #16
    69aa:	45ba      	cmp	sl, r7
    69ac:	f843 1b04 	str.w	r1, [r3], #4
    69b0:	4618      	mov	r0, r3
    69b2:	d8e4      	bhi.n	697e <__mdiff+0x5e>
    69b4:	45a9      	cmp	r9, r5
    69b6:	461f      	mov	r7, r3
    69b8:	d914      	bls.n	69e4 <__mdiff+0xc4>
    69ba:	f852 1b04 	ldr.w	r1, [r2], #4
    69be:	b288      	uxth	r0, r1
    69c0:	0c09      	lsrs	r1, r1, #16
    69c2:	1824      	adds	r4, r4, r0
    69c4:	eb01 4124 	add.w	r1, r1, r4, asr #16
    69c8:	b2a4      	uxth	r4, r4
    69ca:	ea44 4001 	orr.w	r0, r4, r1, lsl #16
    69ce:	140c      	asrs	r4, r1, #16
    69d0:	4591      	cmp	r9, r2
    69d2:	f843 0b04 	str.w	r0, [r3], #4
    69d6:	d8f0      	bhi.n	69ba <__mdiff+0x9a>
    69d8:	43eb      	mvns	r3, r5
    69da:	444b      	add	r3, r9
    69dc:	f023 0303 	bic.w	r3, r3, #3
    69e0:	3304      	adds	r3, #4
    69e2:	18fb      	adds	r3, r7, r3
    69e4:	f853 2c04 	ldr.w	r2, [r3, #-4]
    69e8:	3b04      	subs	r3, #4
    69ea:	b922      	cbnz	r2, 69f6 <__mdiff+0xd6>
    69ec:	f853 2d04 	ldr.w	r2, [r3, #-4]!
    69f0:	3e01      	subs	r6, #1
    69f2:	2a00      	cmp	r2, #0
    69f4:	d0fa      	beq.n	69ec <__mdiff+0xcc>
    69f6:	f8cb 6010 	str.w	r6, [fp, #16]
    69fa:	4658      	mov	r0, fp
    69fc:	e8bd 8ff8 	ldmia.w	sp!, {r3, r4, r5, r6, r7, r8, r9, sl, fp, pc}
    6a00:	4620      	mov	r0, r4
    6a02:	4629      	mov	r1, r5
    6a04:	f7ff fcfa 	bl	63fc <_Balloc>
    6a08:	2301      	movs	r3, #1
    6a0a:	4683      	mov	fp, r0
    6a0c:	6145      	str	r5, [r0, #20]
    6a0e:	6103      	str	r3, [r0, #16]
    6a10:	4658      	mov	r0, fp
    6a12:	e8bd 8ff8 	ldmia.w	sp!, {r3, r4, r5, r6, r7, r8, r9, sl, fp, pc}
    6a16:	bf00      	nop

00006a18 <__ulp>:
    6a18:	2300      	movs	r3, #0
    6a1a:	f6c7 73f0 	movt	r3, #32752	; 0x7ff0
    6a1e:	ea01 0303 	and.w	r3, r1, r3
    6a22:	f1a3 7350 	sub.w	r3, r3, #54525952	; 0x3400000
    6a26:	2b00      	cmp	r3, #0
    6a28:	dd02      	ble.n	6a30 <__ulp+0x18>
    6a2a:	4619      	mov	r1, r3
    6a2c:	2000      	movs	r0, #0
    6a2e:	4770      	bx	lr
    6a30:	425b      	negs	r3, r3
    6a32:	151b      	asrs	r3, r3, #20
    6a34:	2b13      	cmp	r3, #19
    6a36:	dd0d      	ble.n	6a54 <__ulp+0x3c>
    6a38:	3b14      	subs	r3, #20
    6a3a:	2100      	movs	r1, #0
    6a3c:	2b1e      	cmp	r3, #30
    6a3e:	dd02      	ble.n	6a46 <__ulp+0x2e>
    6a40:	2301      	movs	r3, #1
    6a42:	4618      	mov	r0, r3
    6a44:	4770      	bx	lr
    6a46:	2201      	movs	r2, #1
    6a48:	f1c3 031f 	rsb	r3, r3, #31
    6a4c:	fa12 f303 	lsls.w	r3, r2, r3
    6a50:	4618      	mov	r0, r3
    6a52:	4770      	bx	lr
    6a54:	f44f 2200 	mov.w	r2, #524288	; 0x80000
    6a58:	2000      	movs	r0, #0
    6a5a:	fa52 f103 	asrs.w	r1, r2, r3
    6a5e:	4770      	bx	lr

00006a60 <__b2d>:
    6a60:	e92d 41f0 	stmdb	sp!, {r4, r5, r6, r7, r8, lr}
    6a64:	f100 0614 	add.w	r6, r0, #20
    6a68:	6904      	ldr	r4, [r0, #16]
    6a6a:	460f      	mov	r7, r1
    6a6c:	3404      	adds	r4, #4
    6a6e:	f850 5024 	ldr.w	r5, [r0, r4, lsl #2]
    6a72:	eb00 0484 	add.w	r4, r0, r4, lsl #2
    6a76:	46a0      	mov	r8, r4
    6a78:	4628      	mov	r0, r5
    6a7a:	f7ff fd9b 	bl	65b4 <__hi0bits>
    6a7e:	280a      	cmp	r0, #10
    6a80:	f1c0 0320 	rsb	r3, r0, #32
    6a84:	603b      	str	r3, [r7, #0]
    6a86:	dc15      	bgt.n	6ab4 <__b2d+0x54>
    6a88:	f1c0 010b 	rsb	r1, r0, #11
    6a8c:	fa35 f701 	lsrs.w	r7, r5, r1
    6a90:	42a6      	cmp	r6, r4
    6a92:	f047 577e 	orr.w	r7, r7, #1065353216	; 0x3f800000
    6a96:	f447 03e0 	orr.w	r3, r7, #7340032	; 0x700000
    6a9a:	d233      	bcs.n	6b04 <__b2d+0xa4>
    6a9c:	f854 4c04 	ldr.w	r4, [r4, #-4]
    6aa0:	fa34 f101 	lsrs.w	r1, r4, r1
    6aa4:	3015      	adds	r0, #21
    6aa6:	4085      	lsls	r5, r0
    6aa8:	ea41 0205 	orr.w	r2, r1, r5
    6aac:	4610      	mov	r0, r2
    6aae:	4619      	mov	r1, r3
    6ab0:	e8bd 81f0 	ldmia.w	sp!, {r4, r5, r6, r7, r8, pc}
    6ab4:	42a6      	cmp	r6, r4
    6ab6:	d321      	bcc.n	6afc <__b2d+0x9c>
    6ab8:	2100      	movs	r1, #0
    6aba:	380b      	subs	r0, #11
    6abc:	bf02      	ittt	eq
    6abe:	f045 557e 	orreq.w	r5, r5, #1065353216	; 0x3f800000
    6ac2:	460a      	moveq	r2, r1
    6ac4:	f445 03e0 	orreq.w	r3, r5, #7340032	; 0x700000
    6ac8:	d0f0      	beq.n	6aac <__b2d+0x4c>
    6aca:	4085      	lsls	r5, r0
    6acc:	f1c0 0720 	rsb	r7, r0, #32
    6ad0:	f045 557e 	orr.w	r5, r5, #1065353216	; 0x3f800000
    6ad4:	42b4      	cmp	r4, r6
    6ad6:	fa21 fc07 	lsr.w	ip, r1, r7
    6ada:	f445 05e0 	orr.w	r5, r5, #7340032	; 0x700000
    6ade:	ea45 030c 	orr.w	r3, r5, ip
    6ae2:	d911      	bls.n	6b08 <__b2d+0xa8>
    6ae4:	f854 4c04 	ldr.w	r4, [r4, #-4]
    6ae8:	fa34 f707 	lsrs.w	r7, r4, r7
    6aec:	fa11 f000 	lsls.w	r0, r1, r0
    6af0:	4619      	mov	r1, r3
    6af2:	ea47 0200 	orr.w	r2, r7, r0
    6af6:	4610      	mov	r0, r2
    6af8:	e8bd 81f0 	ldmia.w	sp!, {r4, r5, r6, r7, r8, pc}
    6afc:	3c04      	subs	r4, #4
    6afe:	f858 1c04 	ldr.w	r1, [r8, #-4]
    6b02:	e7da      	b.n	6aba <__b2d+0x5a>
    6b04:	2100      	movs	r1, #0
    6b06:	e7cd      	b.n	6aa4 <__b2d+0x44>
    6b08:	2700      	movs	r7, #0
    6b0a:	e7ef      	b.n	6aec <__b2d+0x8c>

00006b0c <__d2b>:
    6b0c:	e92d 43f0 	stmdb	sp!, {r4, r5, r6, r7, r8, r9, lr}
    6b10:	b083      	sub	sp, #12
    6b12:	2101      	movs	r1, #1
    6b14:	461d      	mov	r5, r3
    6b16:	4614      	mov	r4, r2
    6b18:	9f0a      	ldr	r7, [sp, #40]	; 0x28
    6b1a:	9e0b      	ldr	r6, [sp, #44]	; 0x2c
    6b1c:	f7ff fc6e 	bl	63fc <_Balloc>
    6b20:	f3c5 590a 	ubfx	r9, r5, #20, #11
    6b24:	f025 437f 	bic.w	r3, r5, #4278190080	; 0xff000000
    6b28:	f423 0370 	bic.w	r3, r3, #15728640	; 0xf00000
    6b2c:	9300      	str	r3, [sp, #0]
    6b2e:	4680      	mov	r8, r0
    6b30:	f1b9 0f00 	cmp.w	r9, #0
    6b34:	d002      	beq.n	6b3c <__d2b+0x30>
    6b36:	f443 1380 	orr.w	r3, r3, #1048576	; 0x100000
    6b3a:	9300      	str	r3, [sp, #0]
    6b3c:	2c00      	cmp	r4, #0
    6b3e:	d025      	beq.n	6b8c <__d2b+0x80>
    6b40:	a802      	add	r0, sp, #8
    6b42:	f840 4d04 	str.w	r4, [r0, #-4]!
    6b46:	f7ff fd55 	bl	65f4 <__lo0bits>
    6b4a:	2800      	cmp	r0, #0
    6b4c:	d136      	bne.n	6bbc <__d2b+0xb0>
    6b4e:	9a01      	ldr	r2, [sp, #4]
    6b50:	9b00      	ldr	r3, [sp, #0]
    6b52:	f8c8 2014 	str.w	r2, [r8, #20]
    6b56:	2b00      	cmp	r3, #0
    6b58:	bf0c      	ite	eq
    6b5a:	2401      	moveq	r4, #1
    6b5c:	2402      	movne	r4, #2
    6b5e:	f8c8 3018 	str.w	r3, [r8, #24]
    6b62:	f8c8 4010 	str.w	r4, [r8, #16]
    6b66:	f1b9 0f00 	cmp.w	r9, #0
    6b6a:	d11d      	bne.n	6ba8 <__d2b+0x9c>
    6b6c:	eb08 0384 	add.w	r3, r8, r4, lsl #2
    6b70:	f5a0 6086 	sub.w	r0, r0, #1072	; 0x430
    6b74:	3802      	subs	r0, #2
    6b76:	6038      	str	r0, [r7, #0]
    6b78:	6918      	ldr	r0, [r3, #16]
    6b7a:	0164      	lsls	r4, r4, #5
    6b7c:	f7ff fd1a 	bl	65b4 <__hi0bits>
    6b80:	1a24      	subs	r4, r4, r0
    6b82:	6034      	str	r4, [r6, #0]
    6b84:	4640      	mov	r0, r8
    6b86:	b003      	add	sp, #12
    6b88:	e8bd 83f0 	ldmia.w	sp!, {r4, r5, r6, r7, r8, r9, pc}
    6b8c:	4668      	mov	r0, sp
    6b8e:	f7ff fd31 	bl	65f4 <__lo0bits>
    6b92:	2301      	movs	r3, #1
    6b94:	461c      	mov	r4, r3
    6b96:	f8c8 3010 	str.w	r3, [r8, #16]
    6b9a:	9b00      	ldr	r3, [sp, #0]
    6b9c:	f8c8 3014 	str.w	r3, [r8, #20]
    6ba0:	3020      	adds	r0, #32
    6ba2:	f1b9 0f00 	cmp.w	r9, #0
    6ba6:	d0e1      	beq.n	6b6c <__d2b+0x60>
    6ba8:	f5a9 6986 	sub.w	r9, r9, #1072	; 0x430
    6bac:	f1c0 0335 	rsb	r3, r0, #53	; 0x35
    6bb0:	f1a9 0903 	sub.w	r9, r9, #3
    6bb4:	4448      	add	r0, r9
    6bb6:	6038      	str	r0, [r7, #0]
    6bb8:	6033      	str	r3, [r6, #0]
    6bba:	e7e3      	b.n	6b84 <__d2b+0x78>
    6bbc:	9b00      	ldr	r3, [sp, #0]
    6bbe:	f1c0 0220 	rsb	r2, r0, #32
    6bc2:	9901      	ldr	r1, [sp, #4]
    6bc4:	fa13 f202 	lsls.w	r2, r3, r2
    6bc8:	40c3      	lsrs	r3, r0
    6bca:	430a      	orrs	r2, r1
    6bcc:	9300      	str	r3, [sp, #0]
    6bce:	f8c8 2014 	str.w	r2, [r8, #20]
    6bd2:	e7c0      	b.n	6b56 <__d2b+0x4a>

00006bd4 <__ratio>:
    6bd4:	e92d 41f0 	stmdb	sp!, {r4, r5, r6, r7, r8, lr}
    6bd8:	b082      	sub	sp, #8
    6bda:	4688      	mov	r8, r1
    6bdc:	a901      	add	r1, sp, #4
    6bde:	4606      	mov	r6, r0
    6be0:	f7ff ff3e 	bl	6a60 <__b2d>
    6be4:	460d      	mov	r5, r1
    6be6:	4604      	mov	r4, r0
    6be8:	4669      	mov	r1, sp
    6bea:	4640      	mov	r0, r8
    6bec:	f7ff ff38 	bl	6a60 <__b2d>
    6bf0:	f8d8 e010 	ldr.w	lr, [r8, #16]
    6bf4:	f8d6 c010 	ldr.w	ip, [r6, #16]
    6bf8:	462f      	mov	r7, r5
    6bfa:	f8dd 8004 	ldr.w	r8, [sp, #4]
    6bfe:	4626      	mov	r6, r4
    6c00:	ebce 0c0c 	rsb	ip, lr, ip
    6c04:	f8dd e000 	ldr.w	lr, [sp]
    6c08:	ea4f 1c4c 	mov.w	ip, ip, lsl #5
    6c0c:	ebce 0e08 	rsb	lr, lr, r8
    6c10:	44e6      	add	lr, ip
    6c12:	f1be 0f00 	cmp.w	lr, #0
    6c16:	ea4f 5e0e 	mov.w	lr, lr, lsl #20
    6c1a:	bfc2      	ittt	gt
    6c1c:	4624      	movgt	r4, r4
    6c1e:	eb0e 0705 	addgt.w	r7, lr, r5
    6c22:	463d      	movgt	r5, r7
    6c24:	460b      	mov	r3, r1
    6c26:	bfd8      	it	le
    6c28:	ebce 0101 	rsble	r1, lr, r1
    6c2c:	4602      	mov	r2, r0
    6c2e:	bfdc      	itt	le
    6c30:	460b      	movle	r3, r1
    6c32:	4602      	movle	r2, r0
    6c34:	4629      	mov	r1, r5
    6c36:	4620      	mov	r0, r4
    6c38:	f001 ffd2 	bl	8be0 <__aeabi_ddiv>
    6c3c:	b002      	add	sp, #8
    6c3e:	e8bd 81f0 	ldmia.w	sp!, {r4, r5, r6, r7, r8, pc}
    6c42:	bf00      	nop

00006c44 <_mprec_log10>:
    6c44:	2817      	cmp	r0, #23
    6c46:	b510      	push	{r4, lr}
    6c48:	4604      	mov	r4, r0
    6c4a:	dd0c      	ble.n	6c66 <_mprec_log10+0x22>
    6c4c:	2100      	movs	r1, #0
    6c4e:	2000      	movs	r0, #0
    6c50:	f6c3 71f0 	movt	r1, #16368	; 0x3ff0
    6c54:	2300      	movs	r3, #0
    6c56:	2200      	movs	r2, #0
    6c58:	f2c4 0324 	movt	r3, #16420	; 0x4024
    6c5c:	f001 fe96 	bl	898c <__aeabi_dmul>
    6c60:	3c01      	subs	r4, #1
    6c62:	d1f7      	bne.n	6c54 <_mprec_log10+0x10>
    6c64:	bd10      	pop	{r4, pc}
    6c66:	f649 3310 	movw	r3, #39696	; 0x9b10
    6c6a:	f2c0 0300 	movt	r3, #0
    6c6e:	eb03 03c0 	add.w	r3, r3, r0, lsl #3
    6c72:	e9d3 0104 	ldrd	r0, r1, [r3, #16]
    6c76:	bd10      	pop	{r4, pc}

00006c78 <__copybits>:
    6c78:	b470      	push	{r4, r5, r6}
    6c7a:	3901      	subs	r1, #1
    6c7c:	6916      	ldr	r6, [r2, #16]
    6c7e:	f102 0314 	add.w	r3, r2, #20
    6c82:	1149      	asrs	r1, r1, #5
    6c84:	3101      	adds	r1, #1
    6c86:	eb02 0686 	add.w	r6, r2, r6, lsl #2
    6c8a:	3614      	adds	r6, #20
    6c8c:	eb00 0181 	add.w	r1, r0, r1, lsl #2
    6c90:	42b3      	cmp	r3, r6
    6c92:	d20c      	bcs.n	6cae <__copybits+0x36>
    6c94:	4604      	mov	r4, r0
    6c96:	f853 5b04 	ldr.w	r5, [r3], #4
    6c9a:	429e      	cmp	r6, r3
    6c9c:	f844 5b04 	str.w	r5, [r4], #4
    6ca0:	d8f9      	bhi.n	6c96 <__copybits+0x1e>
    6ca2:	1ab3      	subs	r3, r6, r2
    6ca4:	3b15      	subs	r3, #21
    6ca6:	f023 0303 	bic.w	r3, r3, #3
    6caa:	3304      	adds	r3, #4
    6cac:	18c0      	adds	r0, r0, r3
    6cae:	4281      	cmp	r1, r0
    6cb0:	d904      	bls.n	6cbc <__copybits+0x44>
    6cb2:	2300      	movs	r3, #0
    6cb4:	f840 3b04 	str.w	r3, [r0], #4
    6cb8:	4281      	cmp	r1, r0
    6cba:	d8fb      	bhi.n	6cb4 <__copybits+0x3c>
    6cbc:	bc70      	pop	{r4, r5, r6}
    6cbe:	4770      	bx	lr

00006cc0 <__any_on>:
    6cc0:	6902      	ldr	r2, [r0, #16]
    6cc2:	114b      	asrs	r3, r1, #5
    6cc4:	b410      	push	{r4}
    6cc6:	429a      	cmp	r2, r3
    6cc8:	db11      	blt.n	6cee <__any_on+0x2e>
    6cca:	dd0f      	ble.n	6cec <__any_on+0x2c>
    6ccc:	f011 011f 	ands.w	r1, r1, #31
    6cd0:	d00c      	beq.n	6cec <__any_on+0x2c>
    6cd2:	461a      	mov	r2, r3
    6cd4:	eb00 0383 	add.w	r3, r0, r3, lsl #2
    6cd8:	695b      	ldr	r3, [r3, #20]
    6cda:	fa33 f401 	lsrs.w	r4, r3, r1
    6cde:	fa14 f101 	lsls.w	r1, r4, r1
    6ce2:	4299      	cmp	r1, r3
    6ce4:	d003      	beq.n	6cee <__any_on+0x2e>
    6ce6:	2001      	movs	r0, #1
    6ce8:	bc10      	pop	{r4}
    6cea:	4770      	bx	lr
    6cec:	461a      	mov	r2, r3
    6cee:	3204      	adds	r2, #4
    6cf0:	f100 0114 	add.w	r1, r0, #20
    6cf4:	eb00 0382 	add.w	r3, r0, r2, lsl #2
    6cf8:	1d1c      	adds	r4, r3, #4
    6cfa:	42a1      	cmp	r1, r4
    6cfc:	d20b      	bcs.n	6d16 <__any_on+0x56>
    6cfe:	f850 2022 	ldr.w	r2, [r0, r2, lsl #2]
    6d02:	2a00      	cmp	r2, #0
    6d04:	d1ef      	bne.n	6ce6 <__any_on+0x26>
    6d06:	4299      	cmp	r1, r3
    6d08:	d205      	bcs.n	6d16 <__any_on+0x56>
    6d0a:	f853 2d04 	ldr.w	r2, [r3, #-4]!
    6d0e:	2a00      	cmp	r2, #0
    6d10:	d1e9      	bne.n	6ce6 <__any_on+0x26>
    6d12:	4299      	cmp	r1, r3
    6d14:	d3f9      	bcc.n	6d0a <__any_on+0x4a>
    6d16:	2000      	movs	r0, #0
    6d18:	e7e6      	b.n	6ce8 <__any_on+0x28>
    6d1a:	bf00      	nop

00006d1c <__fpclassifyd>:
    6d1c:	ea50 0301 	orrs.w	r3, r0, r1
    6d20:	b410      	push	{r4}
    6d22:	d03c      	beq.n	6d9e <__fpclassifyd+0x82>
    6d24:	f1d0 0201 	rsbs	r2, r0, #1
    6d28:	bf38      	it	cc
    6d2a:	2200      	movcc	r2, #0
    6d2c:	f1b1 4f00 	cmp.w	r1, #2147483648	; 0x80000000
    6d30:	bf14      	ite	ne
    6d32:	2300      	movne	r3, #0
    6d34:	f002 0301 	andeq.w	r3, r2, #1
    6d38:	2b00      	cmp	r3, #0
    6d3a:	d130      	bne.n	6d9e <__fpclassifyd+0x82>
    6d3c:	f64f 73ff 	movw	r3, #65535	; 0xffff
    6d40:	f5a1 1080 	sub.w	r0, r1, #1048576	; 0x100000
    6d44:	f6c7 73df 	movt	r3, #32735	; 0x7fdf
    6d48:	f101 44fe 	add.w	r4, r1, #2130706432	; 0x7f000000
    6d4c:	4298      	cmp	r0, r3
    6d4e:	f504 0470 	add.w	r4, r4, #15728640	; 0xf00000
    6d52:	bf8c      	ite	hi
    6d54:	2000      	movhi	r0, #0
    6d56:	2001      	movls	r0, #1
    6d58:	429c      	cmp	r4, r3
    6d5a:	bf8c      	ite	hi
    6d5c:	4603      	movhi	r3, r0
    6d5e:	f040 0301 	orrls.w	r3, r0, #1
    6d62:	2b00      	cmp	r3, #0
    6d64:	d120      	bne.n	6da8 <__fpclassifyd+0x8c>
    6d66:	f5b1 1f80 	cmp.w	r1, #1048576	; 0x100000
    6d6a:	f101 4000 	add.w	r0, r1, #2147483648	; 0x80000000
    6d6e:	bf2c      	ite	cs
    6d70:	2300      	movcs	r3, #0
    6d72:	2301      	movcc	r3, #1
    6d74:	f5b0 1f80 	cmp.w	r0, #1048576	; 0x100000
    6d78:	bf38      	it	cc
    6d7a:	f043 0301 	orrcc.w	r3, r3, #1
    6d7e:	b98b      	cbnz	r3, 6da4 <__fpclassifyd+0x88>
    6d80:	f511 1f80 	cmn.w	r1, #1048576	; 0x100000
    6d84:	f6c7 73f0 	movt	r3, #32752	; 0x7ff0
    6d88:	bf14      	ite	ne
    6d8a:	2000      	movne	r0, #0
    6d8c:	2001      	moveq	r0, #1
    6d8e:	4299      	cmp	r1, r3
    6d90:	bf14      	ite	ne
    6d92:	4601      	movne	r1, r0
    6d94:	f040 0101 	orreq.w	r1, r0, #1
    6d98:	ea02 0001 	and.w	r0, r2, r1
    6d9c:	e000      	b.n	6da0 <__fpclassifyd+0x84>
    6d9e:	2002      	movs	r0, #2
    6da0:	bc10      	pop	{r4}
    6da2:	4770      	bx	lr
    6da4:	2003      	movs	r0, #3
    6da6:	e7fb      	b.n	6da0 <__fpclassifyd+0x84>
    6da8:	2004      	movs	r0, #4
    6daa:	e7f9      	b.n	6da0 <__fpclassifyd+0x84>

00006dac <_sbrk_r>:
    6dac:	b538      	push	{r3, r4, r5, lr}
    6dae:	f240 7428 	movw	r4, #1832	; 0x728
    6db2:	f2c2 0400 	movt	r4, #8192	; 0x2000
    6db6:	4605      	mov	r5, r0
    6db8:	4608      	mov	r0, r1
    6dba:	2300      	movs	r3, #0
    6dbc:	6023      	str	r3, [r4, #0]
    6dbe:	f7fc f897 	bl	2ef0 <_sbrk>
    6dc2:	f1b0 3fff 	cmp.w	r0, #4294967295
    6dc6:	d000      	beq.n	6dca <_sbrk_r+0x1e>
    6dc8:	bd38      	pop	{r3, r4, r5, pc}
    6dca:	6823      	ldr	r3, [r4, #0]
    6dcc:	2b00      	cmp	r3, #0
    6dce:	d0fb      	beq.n	6dc8 <_sbrk_r+0x1c>
    6dd0:	602b      	str	r3, [r5, #0]
    6dd2:	bd38      	pop	{r3, r4, r5, pc}

00006dd4 <strcmp>:
    6dd4:	ea80 0201 	eor.w	r2, r0, r1
    6dd8:	f012 0f03 	tst.w	r2, #3
    6ddc:	d13a      	bne.n	6e54 <strcmp_unaligned>
    6dde:	f010 0203 	ands.w	r2, r0, #3
    6de2:	f020 0003 	bic.w	r0, r0, #3
    6de6:	f021 0103 	bic.w	r1, r1, #3
    6dea:	f850 cb04 	ldr.w	ip, [r0], #4
    6dee:	bf08      	it	eq
    6df0:	f851 3b04 	ldreq.w	r3, [r1], #4
    6df4:	d00d      	beq.n	6e12 <strcmp+0x3e>
    6df6:	f082 0203 	eor.w	r2, r2, #3
    6dfa:	ea4f 02c2 	mov.w	r2, r2, lsl #3
    6dfe:	f06f 437f 	mvn.w	r3, #4278190080	; 0xff000000
    6e02:	fa23 f202 	lsr.w	r2, r3, r2
    6e06:	f851 3b04 	ldr.w	r3, [r1], #4
    6e0a:	ea4c 0c02 	orr.w	ip, ip, r2
    6e0e:	ea43 0302 	orr.w	r3, r3, r2
    6e12:	bf00      	nop
    6e14:	f1ac 3201 	sub.w	r2, ip, #16843009	; 0x1010101
    6e18:	459c      	cmp	ip, r3
    6e1a:	bf01      	itttt	eq
    6e1c:	ea22 020c 	biceq.w	r2, r2, ip
    6e20:	f012 3f80 	tsteq.w	r2, #2155905152	; 0x80808080
    6e24:	f850 cb04 	ldreq.w	ip, [r0], #4
    6e28:	f851 3b04 	ldreq.w	r3, [r1], #4
    6e2c:	d0f2      	beq.n	6e14 <strcmp+0x40>
    6e2e:	ea4f 600c 	mov.w	r0, ip, lsl #24
    6e32:	ea4f 2c1c 	mov.w	ip, ip, lsr #8
    6e36:	2801      	cmp	r0, #1
    6e38:	bf28      	it	cs
    6e3a:	ebb0 6f03 	cmpcs.w	r0, r3, lsl #24
    6e3e:	bf08      	it	eq
    6e40:	0a1b      	lsreq	r3, r3, #8
    6e42:	d0f4      	beq.n	6e2e <strcmp+0x5a>
    6e44:	f003 03ff 	and.w	r3, r3, #255	; 0xff
    6e48:	ea4f 6010 	mov.w	r0, r0, lsr #24
    6e4c:	eba0 0003 	sub.w	r0, r0, r3
    6e50:	4770      	bx	lr
    6e52:	bf00      	nop

00006e54 <strcmp_unaligned>:
    6e54:	f010 0f03 	tst.w	r0, #3
    6e58:	d00a      	beq.n	6e70 <strcmp_unaligned+0x1c>
    6e5a:	f810 2b01 	ldrb.w	r2, [r0], #1
    6e5e:	f811 3b01 	ldrb.w	r3, [r1], #1
    6e62:	2a01      	cmp	r2, #1
    6e64:	bf28      	it	cs
    6e66:	429a      	cmpcs	r2, r3
    6e68:	d0f4      	beq.n	6e54 <strcmp_unaligned>
    6e6a:	eba2 0003 	sub.w	r0, r2, r3
    6e6e:	4770      	bx	lr
    6e70:	f84d 5d04 	str.w	r5, [sp, #-4]!
    6e74:	f84d 4d04 	str.w	r4, [sp, #-4]!
    6e78:	f04f 0201 	mov.w	r2, #1
    6e7c:	ea42 2202 	orr.w	r2, r2, r2, lsl #8
    6e80:	ea42 4202 	orr.w	r2, r2, r2, lsl #16
    6e84:	f001 0c03 	and.w	ip, r1, #3
    6e88:	f021 0103 	bic.w	r1, r1, #3
    6e8c:	f850 4b04 	ldr.w	r4, [r0], #4
    6e90:	f851 5b04 	ldr.w	r5, [r1], #4
    6e94:	f1bc 0f02 	cmp.w	ip, #2
    6e98:	d026      	beq.n	6ee8 <strcmp_unaligned+0x94>
    6e9a:	d84b      	bhi.n	6f34 <strcmp_unaligned+0xe0>
    6e9c:	f024 4c7f 	bic.w	ip, r4, #4278190080	; 0xff000000
    6ea0:	ebbc 2f15 	cmp.w	ip, r5, lsr #8
    6ea4:	eba4 0302 	sub.w	r3, r4, r2
    6ea8:	ea23 0304 	bic.w	r3, r3, r4
    6eac:	d10d      	bne.n	6eca <strcmp_unaligned+0x76>
    6eae:	ea13 13c2 	ands.w	r3, r3, r2, lsl #7
    6eb2:	bf08      	it	eq
    6eb4:	f851 5b04 	ldreq.w	r5, [r1], #4
    6eb8:	d10a      	bne.n	6ed0 <strcmp_unaligned+0x7c>
    6eba:	ea8c 0c04 	eor.w	ip, ip, r4
    6ebe:	ebbc 6f05 	cmp.w	ip, r5, lsl #24
    6ec2:	d10c      	bne.n	6ede <strcmp_unaligned+0x8a>
    6ec4:	f850 4b04 	ldr.w	r4, [r0], #4
    6ec8:	e7e8      	b.n	6e9c <strcmp_unaligned+0x48>
    6eca:	ea4f 2515 	mov.w	r5, r5, lsr #8
    6ece:	e05c      	b.n	6f8a <strcmp_unaligned+0x136>
    6ed0:	f033 437f 	bics.w	r3, r3, #4278190080	; 0xff000000
    6ed4:	d152      	bne.n	6f7c <strcmp_unaligned+0x128>
    6ed6:	780d      	ldrb	r5, [r1, #0]
    6ed8:	ea4f 6c14 	mov.w	ip, r4, lsr #24
    6edc:	e055      	b.n	6f8a <strcmp_unaligned+0x136>
    6ede:	ea4f 6c14 	mov.w	ip, r4, lsr #24
    6ee2:	f005 05ff 	and.w	r5, r5, #255	; 0xff
    6ee6:	e050      	b.n	6f8a <strcmp_unaligned+0x136>
    6ee8:	ea4f 4c04 	mov.w	ip, r4, lsl #16
    6eec:	eba4 0302 	sub.w	r3, r4, r2
    6ef0:	ea4f 4c1c 	mov.w	ip, ip, lsr #16
    6ef4:	ea23 0304 	bic.w	r3, r3, r4
    6ef8:	ebbc 4f15 	cmp.w	ip, r5, lsr #16
    6efc:	d117      	bne.n	6f2e <strcmp_unaligned+0xda>
    6efe:	ea13 13c2 	ands.w	r3, r3, r2, lsl #7
    6f02:	bf08      	it	eq
    6f04:	f851 5b04 	ldreq.w	r5, [r1], #4
    6f08:	d107      	bne.n	6f1a <strcmp_unaligned+0xc6>
    6f0a:	ea8c 0c04 	eor.w	ip, ip, r4
    6f0e:	ebbc 4f05 	cmp.w	ip, r5, lsl #16
    6f12:	d108      	bne.n	6f26 <strcmp_unaligned+0xd2>
    6f14:	f850 4b04 	ldr.w	r4, [r0], #4
    6f18:	e7e6      	b.n	6ee8 <strcmp_unaligned+0x94>
    6f1a:	041b      	lsls	r3, r3, #16
    6f1c:	d12e      	bne.n	6f7c <strcmp_unaligned+0x128>
    6f1e:	880d      	ldrh	r5, [r1, #0]
    6f20:	ea4f 4c14 	mov.w	ip, r4, lsr #16
    6f24:	e031      	b.n	6f8a <strcmp_unaligned+0x136>
    6f26:	ea4f 4505 	mov.w	r5, r5, lsl #16
    6f2a:	ea4f 4c14 	mov.w	ip, r4, lsr #16
    6f2e:	ea4f 4515 	mov.w	r5, r5, lsr #16
    6f32:	e02a      	b.n	6f8a <strcmp_unaligned+0x136>
    6f34:	f004 0cff 	and.w	ip, r4, #255	; 0xff
    6f38:	ebbc 6f15 	cmp.w	ip, r5, lsr #24
    6f3c:	eba4 0302 	sub.w	r3, r4, r2
    6f40:	ea23 0304 	bic.w	r3, r3, r4
    6f44:	d10d      	bne.n	6f62 <strcmp_unaligned+0x10e>
    6f46:	ea13 13c2 	ands.w	r3, r3, r2, lsl #7
    6f4a:	bf08      	it	eq
    6f4c:	f851 5b04 	ldreq.w	r5, [r1], #4
    6f50:	d10a      	bne.n	6f68 <strcmp_unaligned+0x114>
    6f52:	ea8c 0c04 	eor.w	ip, ip, r4
    6f56:	ebbc 2f05 	cmp.w	ip, r5, lsl #8
    6f5a:	d10a      	bne.n	6f72 <strcmp_unaligned+0x11e>
    6f5c:	f850 4b04 	ldr.w	r4, [r0], #4
    6f60:	e7e8      	b.n	6f34 <strcmp_unaligned+0xe0>
    6f62:	ea4f 6515 	mov.w	r5, r5, lsr #24
    6f66:	e010      	b.n	6f8a <strcmp_unaligned+0x136>
    6f68:	f014 0fff 	tst.w	r4, #255	; 0xff
    6f6c:	d006      	beq.n	6f7c <strcmp_unaligned+0x128>
    6f6e:	f851 5b04 	ldr.w	r5, [r1], #4
    6f72:	ea4f 2c14 	mov.w	ip, r4, lsr #8
    6f76:	f025 457f 	bic.w	r5, r5, #4278190080	; 0xff000000
    6f7a:	e006      	b.n	6f8a <strcmp_unaligned+0x136>
    6f7c:	f04f 0000 	mov.w	r0, #0
    6f80:	f85d 4b04 	ldr.w	r4, [sp], #4
    6f84:	f85d 5b04 	ldr.w	r5, [sp], #4
    6f88:	4770      	bx	lr
    6f8a:	f00c 02ff 	and.w	r2, ip, #255	; 0xff
    6f8e:	f005 00ff 	and.w	r0, r5, #255	; 0xff
    6f92:	2801      	cmp	r0, #1
    6f94:	bf28      	it	cs
    6f96:	4290      	cmpcs	r0, r2
    6f98:	bf04      	itt	eq
    6f9a:	ea4f 2c1c 	moveq.w	ip, ip, lsr #8
    6f9e:	0a2d      	lsreq	r5, r5, #8
    6fa0:	d0f3      	beq.n	6f8a <strcmp_unaligned+0x136>
    6fa2:	eba2 0000 	sub.w	r0, r2, r0
    6fa6:	f85d 4b04 	ldr.w	r4, [sp], #4
    6faa:	f85d 5b04 	ldr.w	r5, [sp], #4
    6fae:	4770      	bx	lr

00006fb0 <__ssprint_r>:
    6fb0:	e92d 4ff0 	stmdb	sp!, {r4, r5, r6, r7, r8, r9, sl, fp, lr}
    6fb4:	b083      	sub	sp, #12
    6fb6:	4691      	mov	r9, r2
    6fb8:	460d      	mov	r5, r1
    6fba:	9001      	str	r0, [sp, #4]
    6fbc:	6890      	ldr	r0, [r2, #8]
    6fbe:	6817      	ldr	r7, [r2, #0]
    6fc0:	2800      	cmp	r0, #0
    6fc2:	d077      	beq.n	70b4 <__ssprint_r+0x104>
    6fc4:	f04f 0a00 	mov.w	sl, #0
    6fc8:	6808      	ldr	r0, [r1, #0]
    6fca:	688b      	ldr	r3, [r1, #8]
    6fcc:	4654      	mov	r4, sl
    6fce:	2c00      	cmp	r4, #0
    6fd0:	d04c      	beq.n	706c <__ssprint_r+0xbc>
    6fd2:	429c      	cmp	r4, r3
    6fd4:	461e      	mov	r6, r3
    6fd6:	4698      	mov	r8, r3
    6fd8:	bf3c      	itt	cc
    6fda:	4626      	movcc	r6, r4
    6fdc:	46a0      	movcc	r8, r4
    6fde:	d335      	bcc.n	704c <__ssprint_r+0x9c>
    6fe0:	89ab      	ldrh	r3, [r5, #12]
    6fe2:	f413 6f90 	tst.w	r3, #1152	; 0x480
    6fe6:	d031      	beq.n	704c <__ssprint_r+0x9c>
    6fe8:	696a      	ldr	r2, [r5, #20]
    6fea:	f104 0e01 	add.w	lr, r4, #1
    6fee:	6929      	ldr	r1, [r5, #16]
    6ff0:	eb02 0b42 	add.w	fp, r2, r2, lsl #1
    6ff4:	1a46      	subs	r6, r0, r1
    6ff6:	eb0e 0006 	add.w	r0, lr, r6
    6ffa:	eb0b 7bdb 	add.w	fp, fp, fp, lsr #31
    6ffe:	ea4f 0b6b 	mov.w	fp, fp, asr #1
    7002:	4583      	cmp	fp, r0
    7004:	465a      	mov	r2, fp
    7006:	bf3c      	itt	cc
    7008:	4683      	movcc	fp, r0
    700a:	465a      	movcc	r2, fp
    700c:	f413 6f80 	tst.w	r3, #1024	; 0x400
    7010:	d031      	beq.n	7076 <__ssprint_r+0xc6>
    7012:	9801      	ldr	r0, [sp, #4]
    7014:	4611      	mov	r1, r2
    7016:	f7fe fe43 	bl	5ca0 <_malloc_r>
    701a:	4680      	mov	r8, r0
    701c:	2800      	cmp	r0, #0
    701e:	d034      	beq.n	708a <__ssprint_r+0xda>
    7020:	6929      	ldr	r1, [r5, #16]
    7022:	4632      	mov	r2, r6
    7024:	f7ff f93e 	bl	62a4 <memcpy>
    7028:	89ab      	ldrh	r3, [r5, #12]
    702a:	f423 6390 	bic.w	r3, r3, #1152	; 0x480
    702e:	f043 0380 	orr.w	r3, r3, #128	; 0x80
    7032:	81ab      	strh	r3, [r5, #12]
    7034:	eb08 0006 	add.w	r0, r8, r6
    7038:	ebc6 030b 	rsb	r3, r6, fp
    703c:	f8c5 8010 	str.w	r8, [r5, #16]
    7040:	4626      	mov	r6, r4
    7042:	46a0      	mov	r8, r4
    7044:	6028      	str	r0, [r5, #0]
    7046:	f8c5 b014 	str.w	fp, [r5, #20]
    704a:	60ab      	str	r3, [r5, #8]
    704c:	4642      	mov	r2, r8
    704e:	4651      	mov	r1, sl
    7050:	f000 feee 	bl	7e30 <memmove>
    7054:	f8d9 2008 	ldr.w	r2, [r9, #8]
    7058:	68ab      	ldr	r3, [r5, #8]
    705a:	6828      	ldr	r0, [r5, #0]
    705c:	1b14      	subs	r4, r2, r4
    705e:	1b9b      	subs	r3, r3, r6
    7060:	60ab      	str	r3, [r5, #8]
    7062:	4440      	add	r0, r8
    7064:	6028      	str	r0, [r5, #0]
    7066:	f8c9 4008 	str.w	r4, [r9, #8]
    706a:	b1ec      	cbz	r4, 70a8 <__ssprint_r+0xf8>
    706c:	f8d7 a000 	ldr.w	sl, [r7]
    7070:	687c      	ldr	r4, [r7, #4]
    7072:	3708      	adds	r7, #8
    7074:	e7ab      	b.n	6fce <__ssprint_r+0x1e>
    7076:	9801      	ldr	r0, [sp, #4]
    7078:	f000 ff84 	bl	7f84 <_realloc_r>
    707c:	4680      	mov	r8, r0
    707e:	2800      	cmp	r0, #0
    7080:	d1d8      	bne.n	7034 <__ssprint_r+0x84>
    7082:	9801      	ldr	r0, [sp, #4]
    7084:	6929      	ldr	r1, [r5, #16]
    7086:	f000 fe07 	bl	7c98 <_free_r>
    708a:	9a01      	ldr	r2, [sp, #4]
    708c:	230c      	movs	r3, #12
    708e:	f04f 30ff 	mov.w	r0, #4294967295
    7092:	6013      	str	r3, [r2, #0]
    7094:	2300      	movs	r3, #0
    7096:	89aa      	ldrh	r2, [r5, #12]
    7098:	f042 0240 	orr.w	r2, r2, #64	; 0x40
    709c:	81aa      	strh	r2, [r5, #12]
    709e:	f8c9 3008 	str.w	r3, [r9, #8]
    70a2:	f8c9 3004 	str.w	r3, [r9, #4]
    70a6:	e002      	b.n	70ae <__ssprint_r+0xfe>
    70a8:	4620      	mov	r0, r4
    70aa:	f8c9 4004 	str.w	r4, [r9, #4]
    70ae:	b003      	add	sp, #12
    70b0:	e8bd 8ff0 	ldmia.w	sp!, {r4, r5, r6, r7, r8, r9, sl, fp, pc}
    70b4:	6050      	str	r0, [r2, #4]
    70b6:	e7fa      	b.n	70ae <__ssprint_r+0xfe>

000070b8 <_svfiprintf_r>:
    70b8:	e92d 4ff0 	stmdb	sp!, {r4, r5, r6, r7, r8, r9, sl, fp, lr}
    70bc:	b0ab      	sub	sp, #172	; 0xac
    70be:	4689      	mov	r9, r1
    70c0:	4683      	mov	fp, r0
    70c2:	9306      	str	r3, [sp, #24]
    70c4:	898b      	ldrh	r3, [r1, #12]
    70c6:	f013 0f80 	tst.w	r3, #128	; 0x80
    70ca:	d003      	beq.n	70d4 <_svfiprintf_r+0x1c>
    70cc:	690b      	ldr	r3, [r1, #16]
    70ce:	2b00      	cmp	r3, #0
    70d0:	f000 8523 	beq.w	7b1a <_svfiprintf_r+0xa62>
    70d4:	4617      	mov	r7, r2
    70d6:	2300      	movs	r3, #0
    70d8:	ae0c      	add	r6, sp, #48	; 0x30
    70da:	9308      	str	r3, [sp, #32]
    70dc:	9305      	str	r3, [sp, #20]
    70de:	9626      	str	r6, [sp, #152]	; 0x98
    70e0:	9328      	str	r3, [sp, #160]	; 0xa0
    70e2:	9327      	str	r3, [sp, #156]	; 0x9c
    70e4:	783b      	ldrb	r3, [r7, #0]
    70e6:	f1b3 0225 	subs.w	r2, r3, #37	; 0x25
    70ea:	bf18      	it	ne
    70ec:	2201      	movne	r2, #1
    70ee:	2b00      	cmp	r3, #0
    70f0:	bf0c      	ite	eq
    70f2:	2300      	moveq	r3, #0
    70f4:	f002 0301 	andne.w	r3, r2, #1
    70f8:	2b00      	cmp	r3, #0
    70fa:	f000 8360 	beq.w	77be <_svfiprintf_r+0x706>
    70fe:	1c7a      	adds	r2, r7, #1
    7100:	4614      	mov	r4, r2
    7102:	3201      	adds	r2, #1
    7104:	7823      	ldrb	r3, [r4, #0]
    7106:	1e19      	subs	r1, r3, #0
    7108:	bf18      	it	ne
    710a:	2101      	movne	r1, #1
    710c:	2b25      	cmp	r3, #37	; 0x25
    710e:	bf0c      	ite	eq
    7110:	2300      	moveq	r3, #0
    7112:	f001 0301 	andne.w	r3, r1, #1
    7116:	2b00      	cmp	r3, #0
    7118:	d1f2      	bne.n	7100 <_svfiprintf_r+0x48>
    711a:	1be5      	subs	r5, r4, r7
    711c:	d00e      	beq.n	713c <_svfiprintf_r+0x84>
    711e:	9b27      	ldr	r3, [sp, #156]	; 0x9c
    7120:	9a28      	ldr	r2, [sp, #160]	; 0xa0
    7122:	3301      	adds	r3, #1
    7124:	6037      	str	r7, [r6, #0]
    7126:	2b07      	cmp	r3, #7
    7128:	6075      	str	r5, [r6, #4]
    712a:	442a      	add	r2, r5
    712c:	9327      	str	r3, [sp, #156]	; 0x9c
    712e:	9228      	str	r2, [sp, #160]	; 0xa0
    7130:	f300 83bc 	bgt.w	78ac <_svfiprintf_r+0x7f4>
    7134:	3608      	adds	r6, #8
    7136:	9905      	ldr	r1, [sp, #20]
    7138:	1949      	adds	r1, r1, r5
    713a:	9105      	str	r1, [sp, #20]
    713c:	7823      	ldrb	r3, [r4, #0]
    713e:	2b00      	cmp	r3, #0
    7140:	f000 833f 	beq.w	77c2 <_svfiprintf_r+0x70a>
    7144:	2200      	movs	r2, #0
    7146:	2300      	movs	r3, #0
    7148:	9204      	str	r2, [sp, #16]
    714a:	1c67      	adds	r7, r4, #1
    714c:	f88d 30a7 	strb.w	r3, [sp, #167]	; 0xa7
    7150:	f04f 38ff 	mov.w	r8, #4294967295
    7154:	7863      	ldrb	r3, [r4, #1]
    7156:	4692      	mov	sl, r2
    7158:	f04f 0c20 	mov.w	ip, #32
    715c:	242b      	movs	r4, #43	; 0x2b
    715e:	3701      	adds	r7, #1
    7160:	f1a3 0220 	sub.w	r2, r3, #32
    7164:	2a58      	cmp	r2, #88	; 0x58
    7166:	f200 824e 	bhi.w	7606 <_svfiprintf_r+0x54e>
    716a:	e8df f012 	tbh	[pc, r2, lsl #1]
    716e:	025a      	.short	0x025a
    7170:	024c024c 	.word	0x024c024c
    7174:	024c01fb 	.word	0x024c01fb
    7178:	024c024c 	.word	0x024c024c
    717c:	024c024c 	.word	0x024c024c
    7180:	00fe024c 	.word	0x00fe024c
    7184:	024c0214 	.word	0x024c0214
    7188:	0218010a 	.word	0x0218010a
    718c:	0210024c 	.word	0x0210024c
    7190:	01ff01ff 	.word	0x01ff01ff
    7194:	01ff01ff 	.word	0x01ff01ff
    7198:	01ff01ff 	.word	0x01ff01ff
    719c:	01ff01ff 	.word	0x01ff01ff
    71a0:	024c01ff 	.word	0x024c01ff
    71a4:	024c024c 	.word	0x024c024c
    71a8:	024c024c 	.word	0x024c024c
    71ac:	024c024c 	.word	0x024c024c
    71b0:	024c024c 	.word	0x024c024c
    71b4:	00c7024c 	.word	0x00c7024c
    71b8:	024c024c 	.word	0x024c024c
    71bc:	024c024c 	.word	0x024c024c
    71c0:	024c024c 	.word	0x024c024c
    71c4:	024c024c 	.word	0x024c024c
    71c8:	024c024c 	.word	0x024c024c
    71cc:	024c00bd 	.word	0x024c00bd
    71d0:	024c024c 	.word	0x024c024c
    71d4:	024c024c 	.word	0x024c024c
    71d8:	024c0059 	.word	0x024c0059
    71dc:	016d024c 	.word	0x016d024c
    71e0:	024c024c 	.word	0x024c024c
    71e4:	024c024c 	.word	0x024c024c
    71e8:	024c024c 	.word	0x024c024c
    71ec:	024c024c 	.word	0x024c024c
    71f0:	024c024c 	.word	0x024c024c
    71f4:	00c90192 	.word	0x00c90192
    71f8:	024c024c 	.word	0x024c024c
    71fc:	0169024c 	.word	0x0169024c
    7200:	024c00c9 	.word	0x024c00c9
    7204:	015f024c 	.word	0x015f024c
    7208:	014c024c 	.word	0x014c024c
    720c:	013400bf 	.word	0x013400bf
    7210:	024c0130 	.word	0x024c0130
    7214:	024c010e 	.word	0x024c010e
    7218:	024c005b 	.word	0x024c005b
    721c:	0235024c 	.word	0x0235024c
    7220:	f04a 0a10 	orr.w	sl, sl, #16
    7224:	f01a 0f20 	tst.w	sl, #32
    7228:	f000 83bf 	beq.w	79aa <_svfiprintf_r+0x8f2>
    722c:	9b06      	ldr	r3, [sp, #24]
    722e:	1dda      	adds	r2, r3, #7
    7230:	2301      	movs	r3, #1
    7232:	f022 0207 	bic.w	r2, r2, #7
    7236:	f102 0508 	add.w	r5, r2, #8
    723a:	9506      	str	r5, [sp, #24]
    723c:	e9d2 4500 	ldrd	r4, r5, [r2]
    7240:	ea54 0005 	orrs.w	r0, r4, r5
    7244:	bf0c      	ite	eq
    7246:	2200      	moveq	r2, #0
    7248:	2201      	movne	r2, #1
    724a:	2100      	movs	r1, #0
    724c:	f88d 10a7 	strb.w	r1, [sp, #167]	; 0xa7
    7250:	f1b8 0f00 	cmp.w	r8, #0
    7254:	bfa8      	it	ge
    7256:	f02a 0a80 	bicge.w	sl, sl, #128	; 0x80
    725a:	f1b8 0f00 	cmp.w	r8, #0
    725e:	bf18      	it	ne
    7260:	f042 0201 	orrne.w	r2, r2, #1
    7264:	2a00      	cmp	r2, #0
    7266:	d070      	beq.n	734a <_svfiprintf_r+0x292>
    7268:	2b01      	cmp	r3, #1
    726a:	f000 8348 	beq.w	78fe <_svfiprintf_r+0x846>
    726e:	2b02      	cmp	r3, #2
    7270:	f000 836f 	beq.w	7952 <_svfiprintf_r+0x89a>
    7274:	aa1c      	add	r2, sp, #112	; 0x70
    7276:	46b4      	mov	ip, r6
    7278:	f102 0327 	add.w	r3, r2, #39	; 0x27
    727c:	9202      	str	r2, [sp, #8]
    727e:	9703      	str	r7, [sp, #12]
    7280:	08ea      	lsrs	r2, r5, #3
    7282:	08e7      	lsrs	r7, r4, #3
    7284:	ea47 7745 	orr.w	r7, r7, r5, lsl #29
    7288:	f004 0407 	and.w	r4, r4, #7
    728c:	4611      	mov	r1, r2
    728e:	f104 0230 	add.w	r2, r4, #48	; 0x30
    7292:	460d      	mov	r5, r1
    7294:	463c      	mov	r4, r7
    7296:	461e      	mov	r6, r3
    7298:	701a      	strb	r2, [r3, #0]
    729a:	3b01      	subs	r3, #1
    729c:	ea54 0005 	orrs.w	r0, r4, r5
    72a0:	d1ee      	bne.n	7280 <_svfiprintf_r+0x1c8>
    72a2:	f01a 0f01 	tst.w	sl, #1
    72a6:	9609      	str	r6, [sp, #36]	; 0x24
    72a8:	9f03      	ldr	r7, [sp, #12]
    72aa:	4666      	mov	r6, ip
    72ac:	f000 83b8 	beq.w	7a20 <_svfiprintf_r+0x968>
    72b0:	2a30      	cmp	r2, #48	; 0x30
    72b2:	f000 8365 	beq.w	7980 <_svfiprintf_r+0x8c8>
    72b6:	9309      	str	r3, [sp, #36]	; 0x24
    72b8:	9902      	ldr	r1, [sp, #8]
    72ba:	9a09      	ldr	r2, [sp, #36]	; 0x24
    72bc:	f101 0328 	add.w	r3, r1, #40	; 0x28
    72c0:	1a9b      	subs	r3, r3, r2
    72c2:	9303      	str	r3, [sp, #12]
    72c4:	2330      	movs	r3, #48	; 0x30
    72c6:	7013      	strb	r3, [r2, #0]
    72c8:	f8cd 801c 	str.w	r8, [sp, #28]
    72cc:	9803      	ldr	r0, [sp, #12]
    72ce:	9907      	ldr	r1, [sp, #28]
    72d0:	f89d 30a7 	ldrb.w	r3, [sp, #167]	; 0xa7
    72d4:	4288      	cmp	r0, r1
    72d6:	bfb8      	it	lt
    72d8:	4608      	movlt	r0, r1
    72da:	9002      	str	r0, [sp, #8]
    72dc:	2b00      	cmp	r3, #0
    72de:	f000 80e8 	beq.w	74b2 <_svfiprintf_r+0x3fa>
    72e2:	3001      	adds	r0, #1
    72e4:	9002      	str	r0, [sp, #8]
    72e6:	e0e4      	b.n	74b2 <_svfiprintf_r+0x3fa>
    72e8:	f04a 0a10 	orr.w	sl, sl, #16
    72ec:	f01a 0320 	ands.w	r3, sl, #32
    72f0:	f000 8366 	beq.w	79c0 <_svfiprintf_r+0x908>
    72f4:	9b06      	ldr	r3, [sp, #24]
    72f6:	1dda      	adds	r2, r3, #7
    72f8:	2300      	movs	r3, #0
    72fa:	e79a      	b.n	7232 <_svfiprintf_r+0x17a>
    72fc:	f04a 0a10 	orr.w	sl, sl, #16
    7300:	f01a 0f20 	tst.w	sl, #32
    7304:	f000 8343 	beq.w	798e <_svfiprintf_r+0x8d6>
    7308:	9806      	ldr	r0, [sp, #24]
    730a:	1dc3      	adds	r3, r0, #7
    730c:	f023 0307 	bic.w	r3, r3, #7
    7310:	f103 0108 	add.w	r1, r3, #8
    7314:	9106      	str	r1, [sp, #24]
    7316:	e9d3 4500 	ldrd	r4, r5, [r3]
    731a:	2c00      	cmp	r4, #0
    731c:	f175 0000 	sbcs.w	r0, r5, #0
    7320:	f2c0 83b8 	blt.w	7a94 <_svfiprintf_r+0x9dc>
    7324:	ea54 0105 	orrs.w	r1, r4, r5
    7328:	f04f 0301 	mov.w	r3, #1
    732c:	bf0c      	ite	eq
    732e:	2200      	moveq	r2, #0
    7330:	2201      	movne	r2, #1
    7332:	f1b8 0f00 	cmp.w	r8, #0
    7336:	bfa8      	it	ge
    7338:	f02a 0a80 	bicge.w	sl, sl, #128	; 0x80
    733c:	f1b8 0f00 	cmp.w	r8, #0
    7340:	bf18      	it	ne
    7342:	f042 0201 	orrne.w	r2, r2, #1
    7346:	2a00      	cmp	r2, #0
    7348:	d18e      	bne.n	7268 <_svfiprintf_r+0x1b0>
    734a:	2b00      	cmp	r3, #0
    734c:	f040 82aa 	bne.w	78a4 <_svfiprintf_r+0x7ec>
    7350:	f01a 0f01 	tst.w	sl, #1
    7354:	f000 82f9 	beq.w	794a <_svfiprintf_r+0x892>
    7358:	2101      	movs	r1, #1
    735a:	2330      	movs	r3, #48	; 0x30
    735c:	f10d 0297 	add.w	r2, sp, #151	; 0x97
    7360:	9103      	str	r1, [sp, #12]
    7362:	f88d 3097 	strb.w	r3, [sp, #151]	; 0x97
    7366:	9209      	str	r2, [sp, #36]	; 0x24
    7368:	e7ae      	b.n	72c8 <_svfiprintf_r+0x210>
    736a:	9806      	ldr	r0, [sp, #24]
    736c:	9906      	ldr	r1, [sp, #24]
    736e:	6800      	ldr	r0, [r0, #0]
    7370:	1d0a      	adds	r2, r1, #4
    7372:	2800      	cmp	r0, #0
    7374:	9004      	str	r0, [sp, #16]
    7376:	f280 8345 	bge.w	7a04 <_svfiprintf_r+0x94c>
    737a:	9b04      	ldr	r3, [sp, #16]
    737c:	9206      	str	r2, [sp, #24]
    737e:	425b      	negs	r3, r3
    7380:	9304      	str	r3, [sp, #16]
    7382:	f04a 0a04 	orr.w	sl, sl, #4
    7386:	783b      	ldrb	r3, [r7, #0]
    7388:	e6e9      	b.n	715e <_svfiprintf_r+0xa6>
    738a:	9b06      	ldr	r3, [sp, #24]
    738c:	2500      	movs	r5, #0
    738e:	f88d 50a7 	strb.w	r5, [sp, #167]	; 0xa7
    7392:	1d18      	adds	r0, r3, #4
    7394:	9006      	str	r0, [sp, #24]
    7396:	681b      	ldr	r3, [r3, #0]
    7398:	9309      	str	r3, [sp, #36]	; 0x24
    739a:	2b00      	cmp	r3, #0
    739c:	f000 83db 	beq.w	7b56 <_svfiprintf_r+0xa9e>
    73a0:	f1b8 0f00 	cmp.w	r8, #0
    73a4:	f2c0 8388 	blt.w	7ab8 <_svfiprintf_r+0xa00>
    73a8:	9809      	ldr	r0, [sp, #36]	; 0x24
    73aa:	2100      	movs	r1, #0
    73ac:	4642      	mov	r2, r8
    73ae:	f7fe ff35 	bl	621c <memchr>
    73b2:	2800      	cmp	r0, #0
    73b4:	f000 83e1 	beq.w	7b7a <_svfiprintf_r+0xac2>
    73b8:	9d09      	ldr	r5, [sp, #36]	; 0x24
    73ba:	1b40      	subs	r0, r0, r5
    73bc:	9003      	str	r0, [sp, #12]
    73be:	4540      	cmp	r0, r8
    73c0:	f340 838c 	ble.w	7adc <_svfiprintf_r+0xa24>
    73c4:	2500      	movs	r5, #0
    73c6:	f8cd 800c 	str.w	r8, [sp, #12]
    73ca:	9507      	str	r5, [sp, #28]
    73cc:	e77e      	b.n	72cc <_svfiprintf_r+0x214>
    73ce:	f04a 0a20 	orr.w	sl, sl, #32
    73d2:	783b      	ldrb	r3, [r7, #0]
    73d4:	e6c3      	b.n	715e <_svfiprintf_r+0xa6>
    73d6:	9b06      	ldr	r3, [sp, #24]
    73d8:	f649 21cc 	movw	r1, #39628	; 0x9acc
    73dc:	2500      	movs	r5, #0
    73de:	f2c0 0100 	movt	r1, #0
    73e2:	f04a 0a02 	orr.w	sl, sl, #2
    73e6:	681a      	ldr	r2, [r3, #0]
    73e8:	3304      	adds	r3, #4
    73ea:	9306      	str	r3, [sp, #24]
    73ec:	2330      	movs	r3, #48	; 0x30
    73ee:	4614      	mov	r4, r2
    73f0:	f88d 30a4 	strb.w	r3, [sp, #164]	; 0xa4
    73f4:	2378      	movs	r3, #120	; 0x78
    73f6:	3a00      	subs	r2, #0
    73f8:	f88d 30a5 	strb.w	r3, [sp, #165]	; 0xa5
    73fc:	bf18      	it	ne
    73fe:	2201      	movne	r2, #1
    7400:	9108      	str	r1, [sp, #32]
    7402:	2302      	movs	r3, #2
    7404:	e721      	b.n	724a <_svfiprintf_r+0x192>
    7406:	f01a 0f20 	tst.w	sl, #32
    740a:	f040 8319 	bne.w	7a40 <_svfiprintf_r+0x988>
    740e:	f01a 0f10 	tst.w	sl, #16
    7412:	f040 8358 	bne.w	7ac6 <_svfiprintf_r+0xa0e>
    7416:	f01a 0f40 	tst.w	sl, #64	; 0x40
    741a:	f000 8354 	beq.w	7ac6 <_svfiprintf_r+0xa0e>
    741e:	9d06      	ldr	r5, [sp, #24]
    7420:	9805      	ldr	r0, [sp, #20]
    7422:	682b      	ldr	r3, [r5, #0]
    7424:	3504      	adds	r5, #4
    7426:	9506      	str	r5, [sp, #24]
    7428:	8018      	strh	r0, [r3, #0]
    742a:	e65b      	b.n	70e4 <_svfiprintf_r+0x2c>
    742c:	783b      	ldrb	r3, [r7, #0]
    742e:	2b6c      	cmp	r3, #108	; 0x6c
    7430:	bf0a      	itet	eq
    7432:	f04a 0a20 	orreq.w	sl, sl, #32
    7436:	f04a 0a10 	orrne.w	sl, sl, #16
    743a:	f817 3f01 	ldrbeq.w	r3, [r7, #1]!
    743e:	e68e      	b.n	715e <_svfiprintf_r+0xa6>
    7440:	f04a 0a40 	orr.w	sl, sl, #64	; 0x40
    7444:	783b      	ldrb	r3, [r7, #0]
    7446:	e68a      	b.n	715e <_svfiprintf_r+0xa6>
    7448:	f01a 0f20 	tst.w	sl, #32
    744c:	f649 22b8 	movw	r2, #39608	; 0x9ab8
    7450:	f2c0 0200 	movt	r2, #0
    7454:	9208      	str	r2, [sp, #32]
    7456:	f000 80c8 	beq.w	75ea <_svfiprintf_r+0x532>
    745a:	9d06      	ldr	r5, [sp, #24]
    745c:	1dea      	adds	r2, r5, #7
    745e:	f022 0207 	bic.w	r2, r2, #7
    7462:	f102 0008 	add.w	r0, r2, #8
    7466:	9006      	str	r0, [sp, #24]
    7468:	e9d2 4500 	ldrd	r4, r5, [r2]
    746c:	ea54 0005 	orrs.w	r0, r4, r5
    7470:	bf0c      	ite	eq
    7472:	2200      	moveq	r2, #0
    7474:	2201      	movne	r2, #1
    7476:	ea1a 0f02 	tst.w	sl, r2
    747a:	f000 82b4 	beq.w	79e6 <_svfiprintf_r+0x92e>
    747e:	f88d 30a5 	strb.w	r3, [sp, #165]	; 0xa5
    7482:	f04a 0a02 	orr.w	sl, sl, #2
    7486:	2330      	movs	r3, #48	; 0x30
    7488:	2201      	movs	r2, #1
    748a:	f88d 30a4 	strb.w	r3, [sp, #164]	; 0xa4
    748e:	2302      	movs	r3, #2
    7490:	e6db      	b.n	724a <_svfiprintf_r+0x192>
    7492:	9b06      	ldr	r3, [sp, #24]
    7494:	2001      	movs	r0, #1
    7496:	aa1c      	add	r2, sp, #112	; 0x70
    7498:	2500      	movs	r5, #0
    749a:	1d19      	adds	r1, r3, #4
    749c:	9002      	str	r0, [sp, #8]
    749e:	681b      	ldr	r3, [r3, #0]
    74a0:	9106      	str	r1, [sp, #24]
    74a2:	9003      	str	r0, [sp, #12]
    74a4:	9209      	str	r2, [sp, #36]	; 0x24
    74a6:	f88d 50a7 	strb.w	r5, [sp, #167]	; 0xa7
    74aa:	f88d 3070 	strb.w	r3, [sp, #112]	; 0x70
    74ae:	2100      	movs	r1, #0
    74b0:	9107      	str	r1, [sp, #28]
    74b2:	f01a 0202 	ands.w	r2, sl, #2
    74b6:	920a      	str	r2, [sp, #40]	; 0x28
    74b8:	d002      	beq.n	74c0 <_svfiprintf_r+0x408>
    74ba:	9b02      	ldr	r3, [sp, #8]
    74bc:	3302      	adds	r3, #2
    74be:	9302      	str	r3, [sp, #8]
    74c0:	f01a 0584 	ands.w	r5, sl, #132	; 0x84
    74c4:	950b      	str	r5, [sp, #44]	; 0x2c
    74c6:	f040 80b5 	bne.w	7634 <_svfiprintf_r+0x57c>
    74ca:	9804      	ldr	r0, [sp, #16]
    74cc:	9902      	ldr	r1, [sp, #8]
    74ce:	1a44      	subs	r4, r0, r1
    74d0:	2c00      	cmp	r4, #0
    74d2:	f340 80af 	ble.w	7634 <_svfiprintf_r+0x57c>
    74d6:	2c10      	cmp	r4, #16
    74d8:	f340 832e 	ble.w	7b38 <_svfiprintf_r+0xa80>
    74dc:	f649 4538 	movw	r5, #39992	; 0x9c38
    74e0:	9a28      	ldr	r2, [sp, #160]	; 0xa0
    74e2:	9b27      	ldr	r3, [sp, #156]	; 0x9c
    74e4:	f2c0 0500 	movt	r5, #0
    74e8:	f04f 0810 	mov.w	r8, #16
    74ec:	e002      	b.n	74f4 <_svfiprintf_r+0x43c>
    74ee:	3c10      	subs	r4, #16
    74f0:	2c10      	cmp	r4, #16
    74f2:	dd1c      	ble.n	752e <_svfiprintf_r+0x476>
    74f4:	3301      	adds	r3, #1
    74f6:	6035      	str	r5, [r6, #0]
    74f8:	f8c6 8004 	str.w	r8, [r6, #4]
    74fc:	3210      	adds	r2, #16
    74fe:	3608      	adds	r6, #8
    7500:	2b07      	cmp	r3, #7
    7502:	9327      	str	r3, [sp, #156]	; 0x9c
    7504:	f106 0c08 	add.w	ip, r6, #8
    7508:	9228      	str	r2, [sp, #160]	; 0xa0
    750a:	ddf0      	ble.n	74ee <_svfiprintf_r+0x436>
    750c:	aa26      	add	r2, sp, #152	; 0x98
    750e:	4658      	mov	r0, fp
    7510:	4649      	mov	r1, r9
    7512:	ae0c      	add	r6, sp, #48	; 0x30
    7514:	f7ff fd4c 	bl	6fb0 <__ssprint_r>
    7518:	aa0c      	add	r2, sp, #48	; 0x30
    751a:	f102 0c08 	add.w	ip, r2, #8
    751e:	2800      	cmp	r0, #0
    7520:	f040 8156 	bne.w	77d0 <_svfiprintf_r+0x718>
    7524:	3c10      	subs	r4, #16
    7526:	9a28      	ldr	r2, [sp, #160]	; 0xa0
    7528:	2c10      	cmp	r4, #16
    752a:	9b27      	ldr	r3, [sp, #156]	; 0x9c
    752c:	dce2      	bgt.n	74f4 <_svfiprintf_r+0x43c>
    752e:	3301      	adds	r3, #1
    7530:	6035      	str	r5, [r6, #0]
    7532:	2b07      	cmp	r3, #7
    7534:	6074      	str	r4, [r6, #4]
    7536:	4422      	add	r2, r4
    7538:	9327      	str	r3, [sp, #156]	; 0x9c
    753a:	9228      	str	r2, [sp, #160]	; 0xa0
    753c:	bfdc      	itt	le
    753e:	f10c 0108 	addle.w	r1, ip, #8
    7542:	4666      	movle	r6, ip
    7544:	dd7a      	ble.n	763c <_svfiprintf_r+0x584>
    7546:	4658      	mov	r0, fp
    7548:	4649      	mov	r1, r9
    754a:	aa26      	add	r2, sp, #152	; 0x98
    754c:	f7ff fd30 	bl	6fb0 <__ssprint_r>
    7550:	2800      	cmp	r0, #0
    7552:	f040 813d 	bne.w	77d0 <_svfiprintf_r+0x718>
    7556:	ab0c      	add	r3, sp, #48	; 0x30
    7558:	9a28      	ldr	r2, [sp, #160]	; 0xa0
    755a:	f103 0108 	add.w	r1, r3, #8
    755e:	ae0c      	add	r6, sp, #48	; 0x30
    7560:	9b27      	ldr	r3, [sp, #156]	; 0x9c
    7562:	e06b      	b.n	763c <_svfiprintf_r+0x584>
    7564:	f04a 0a01 	orr.w	sl, sl, #1
    7568:	783b      	ldrb	r3, [r7, #0]
    756a:	e5f8      	b.n	715e <_svfiprintf_r+0xa6>
    756c:	4639      	mov	r1, r7
    756e:	2200      	movs	r2, #0
    7570:	f1a3 0530 	sub.w	r5, r3, #48	; 0x30
    7574:	f811 3b01 	ldrb.w	r3, [r1], #1
    7578:	eb02 0282 	add.w	r2, r2, r2, lsl #2
    757c:	f1a3 0030 	sub.w	r0, r3, #48	; 0x30
    7580:	460f      	mov	r7, r1
    7582:	2809      	cmp	r0, #9
    7584:	eb05 0242 	add.w	r2, r5, r2, lsl #1
    7588:	d9f2      	bls.n	7570 <_svfiprintf_r+0x4b8>
    758a:	9204      	str	r2, [sp, #16]
    758c:	e5e8      	b.n	7160 <_svfiprintf_r+0xa8>
    758e:	f04a 0a80 	orr.w	sl, sl, #128	; 0x80
    7592:	783b      	ldrb	r3, [r7, #0]
    7594:	e5e3      	b.n	715e <_svfiprintf_r+0xa6>
    7596:	f88d 40a7 	strb.w	r4, [sp, #167]	; 0xa7
    759a:	783b      	ldrb	r3, [r7, #0]
    759c:	e5df      	b.n	715e <_svfiprintf_r+0xa6>
    759e:	f817 3b01 	ldrb.w	r3, [r7], #1
    75a2:	2b2a      	cmp	r3, #42	; 0x2a
    75a4:	f000 8221 	beq.w	79ea <_svfiprintf_r+0x932>
    75a8:	f1a3 0230 	sub.w	r2, r3, #48	; 0x30
    75ac:	2a09      	cmp	r2, #9
    75ae:	bf88      	it	hi
    75b0:	f04f 0800 	movhi.w	r8, #0
    75b4:	d80d      	bhi.n	75d2 <_svfiprintf_r+0x51a>
    75b6:	4639      	mov	r1, r7
    75b8:	f04f 0800 	mov.w	r8, #0
    75bc:	f811 3b01 	ldrb.w	r3, [r1], #1
    75c0:	eb08 0888 	add.w	r8, r8, r8, lsl #2
    75c4:	eb02 0848 	add.w	r8, r2, r8, lsl #1
    75c8:	f1a3 0230 	sub.w	r2, r3, #48	; 0x30
    75cc:	2a09      	cmp	r2, #9
    75ce:	460f      	mov	r7, r1
    75d0:	d9f4      	bls.n	75bc <_svfiprintf_r+0x504>
    75d2:	ea48 78e8 	orr.w	r8, r8, r8, asr #31
    75d6:	e5c3      	b.n	7160 <_svfiprintf_r+0xa8>
    75d8:	f01a 0f20 	tst.w	sl, #32
    75dc:	f649 21cc 	movw	r1, #39628	; 0x9acc
    75e0:	f2c0 0100 	movt	r1, #0
    75e4:	9108      	str	r1, [sp, #32]
    75e6:	f47f af38 	bne.w	745a <_svfiprintf_r+0x3a2>
    75ea:	f01a 0f10 	tst.w	sl, #16
    75ee:	f040 8233 	bne.w	7a58 <_svfiprintf_r+0x9a0>
    75f2:	f01a 0f40 	tst.w	sl, #64	; 0x40
    75f6:	f000 8286 	beq.w	7b06 <_svfiprintf_r+0xa4e>
    75fa:	9a06      	ldr	r2, [sp, #24]
    75fc:	2500      	movs	r5, #0
    75fe:	8814      	ldrh	r4, [r2, #0]
    7600:	3204      	adds	r2, #4
    7602:	9206      	str	r2, [sp, #24]
    7604:	e732      	b.n	746c <_svfiprintf_r+0x3b4>
    7606:	2b00      	cmp	r3, #0
    7608:	f000 80db 	beq.w	77c2 <_svfiprintf_r+0x70a>
    760c:	2001      	movs	r0, #1
    760e:	2100      	movs	r1, #0
    7610:	aa1c      	add	r2, sp, #112	; 0x70
    7612:	9002      	str	r0, [sp, #8]
    7614:	f88d 3070 	strb.w	r3, [sp, #112]	; 0x70
    7618:	f88d 10a7 	strb.w	r1, [sp, #167]	; 0xa7
    761c:	9003      	str	r0, [sp, #12]
    761e:	9209      	str	r2, [sp, #36]	; 0x24
    7620:	e745      	b.n	74ae <_svfiprintf_r+0x3f6>
    7622:	f89d 30a7 	ldrb.w	r3, [sp, #167]	; 0xa7
    7626:	2b00      	cmp	r3, #0
    7628:	f040 8227 	bne.w	7a7a <_svfiprintf_r+0x9c2>
    762c:	f88d c0a7 	strb.w	ip, [sp, #167]	; 0xa7
    7630:	783b      	ldrb	r3, [r7, #0]
    7632:	e594      	b.n	715e <_svfiprintf_r+0xa6>
    7634:	9a28      	ldr	r2, [sp, #160]	; 0xa0
    7636:	f106 0108 	add.w	r1, r6, #8
    763a:	9b27      	ldr	r3, [sp, #156]	; 0x9c
    763c:	f89d 00a7 	ldrb.w	r0, [sp, #167]	; 0xa7
    7640:	b168      	cbz	r0, 765e <_svfiprintf_r+0x5a6>
    7642:	3301      	adds	r3, #1
    7644:	f10d 00a7 	add.w	r0, sp, #167	; 0xa7
    7648:	6030      	str	r0, [r6, #0]
    764a:	2001      	movs	r0, #1
    764c:	2b07      	cmp	r3, #7
    764e:	6070      	str	r0, [r6, #4]
    7650:	4402      	add	r2, r0
    7652:	9327      	str	r3, [sp, #156]	; 0x9c
    7654:	9228      	str	r2, [sp, #160]	; 0xa0
    7656:	f300 8132 	bgt.w	78be <_svfiprintf_r+0x806>
    765a:	460e      	mov	r6, r1
    765c:	3108      	adds	r1, #8
    765e:	980a      	ldr	r0, [sp, #40]	; 0x28
    7660:	b160      	cbz	r0, 767c <_svfiprintf_r+0x5c4>
    7662:	3301      	adds	r3, #1
    7664:	a829      	add	r0, sp, #164	; 0xa4
    7666:	6030      	str	r0, [r6, #0]
    7668:	2002      	movs	r0, #2
    766a:	2b07      	cmp	r3, #7
    766c:	6070      	str	r0, [r6, #4]
    766e:	4402      	add	r2, r0
    7670:	9327      	str	r3, [sp, #156]	; 0x9c
    7672:	9228      	str	r2, [sp, #160]	; 0xa0
    7674:	f300 8134 	bgt.w	78e0 <_svfiprintf_r+0x828>
    7678:	460e      	mov	r6, r1
    767a:	3108      	adds	r1, #8
    767c:	9d0b      	ldr	r5, [sp, #44]	; 0x2c
    767e:	2d80      	cmp	r5, #128	; 0x80
    7680:	f000 80b3 	beq.w	77ea <_svfiprintf_r+0x732>
    7684:	9807      	ldr	r0, [sp, #28]
    7686:	9d03      	ldr	r5, [sp, #12]
    7688:	1b44      	subs	r4, r0, r5
    768a:	2c00      	cmp	r4, #0
    768c:	dd3e      	ble.n	770c <_svfiprintf_r+0x654>
    768e:	2c10      	cmp	r4, #16
    7690:	f340 8221 	ble.w	7ad6 <_svfiprintf_r+0xa1e>
    7694:	4d91      	ldr	r5, [pc, #580]	; (78dc <_svfiprintf_r+0x824>)
    7696:	f04f 0810 	mov.w	r8, #16
    769a:	e002      	b.n	76a2 <_svfiprintf_r+0x5ea>
    769c:	3c10      	subs	r4, #16
    769e:	2c10      	cmp	r4, #16
    76a0:	dd1b      	ble.n	76da <_svfiprintf_r+0x622>
    76a2:	3301      	adds	r3, #1
    76a4:	6035      	str	r5, [r6, #0]
    76a6:	f8c6 8004 	str.w	r8, [r6, #4]
    76aa:	3210      	adds	r2, #16
    76ac:	3608      	adds	r6, #8
    76ae:	2b07      	cmp	r3, #7
    76b0:	9327      	str	r3, [sp, #156]	; 0x9c
    76b2:	f106 0c08 	add.w	ip, r6, #8
    76b6:	9228      	str	r2, [sp, #160]	; 0xa0
    76b8:	ddf0      	ble.n	769c <_svfiprintf_r+0x5e4>
    76ba:	4649      	mov	r1, r9
    76bc:	4658      	mov	r0, fp
    76be:	aa26      	add	r2, sp, #152	; 0x98
    76c0:	ae0c      	add	r6, sp, #48	; 0x30
    76c2:	f7ff fc75 	bl	6fb0 <__ssprint_r>
    76c6:	a90c      	add	r1, sp, #48	; 0x30
    76c8:	f101 0c08 	add.w	ip, r1, #8
    76cc:	2800      	cmp	r0, #0
    76ce:	d17f      	bne.n	77d0 <_svfiprintf_r+0x718>
    76d0:	3c10      	subs	r4, #16
    76d2:	9a28      	ldr	r2, [sp, #160]	; 0xa0
    76d4:	2c10      	cmp	r4, #16
    76d6:	9b27      	ldr	r3, [sp, #156]	; 0x9c
    76d8:	dce3      	bgt.n	76a2 <_svfiprintf_r+0x5ea>
    76da:	3301      	adds	r3, #1
    76dc:	6035      	str	r5, [r6, #0]
    76de:	2b07      	cmp	r3, #7
    76e0:	6074      	str	r4, [r6, #4]
    76e2:	4422      	add	r2, r4
    76e4:	9327      	str	r3, [sp, #156]	; 0x9c
    76e6:	9228      	str	r2, [sp, #160]	; 0xa0
    76e8:	bfdc      	itt	le
    76ea:	f10c 0108 	addle.w	r1, ip, #8
    76ee:	4666      	movle	r6, ip
    76f0:	dd0c      	ble.n	770c <_svfiprintf_r+0x654>
    76f2:	4658      	mov	r0, fp
    76f4:	4649      	mov	r1, r9
    76f6:	aa26      	add	r2, sp, #152	; 0x98
    76f8:	f7ff fc5a 	bl	6fb0 <__ssprint_r>
    76fc:	2800      	cmp	r0, #0
    76fe:	d167      	bne.n	77d0 <_svfiprintf_r+0x718>
    7700:	ab0c      	add	r3, sp, #48	; 0x30
    7702:	9a28      	ldr	r2, [sp, #160]	; 0xa0
    7704:	f103 0108 	add.w	r1, r3, #8
    7708:	9b27      	ldr	r3, [sp, #156]	; 0x9c
    770a:	ae0c      	add	r6, sp, #48	; 0x30
    770c:	3301      	adds	r3, #1
    770e:	9803      	ldr	r0, [sp, #12]
    7710:	9d09      	ldr	r5, [sp, #36]	; 0x24
    7712:	2b07      	cmp	r3, #7
    7714:	4402      	add	r2, r0
    7716:	6070      	str	r0, [r6, #4]
    7718:	6035      	str	r5, [r6, #0]
    771a:	9327      	str	r3, [sp, #156]	; 0x9c
    771c:	9228      	str	r2, [sp, #160]	; 0xa0
    771e:	f300 80ae 	bgt.w	787e <_svfiprintf_r+0x7c6>
    7722:	f01a 0f04 	tst.w	sl, #4
    7726:	d030      	beq.n	778a <_svfiprintf_r+0x6d2>
    7728:	9b04      	ldr	r3, [sp, #16]
    772a:	9d02      	ldr	r5, [sp, #8]
    772c:	1b5c      	subs	r4, r3, r5
    772e:	2c00      	cmp	r4, #0
    7730:	dd2b      	ble.n	778a <_svfiprintf_r+0x6d2>
    7732:	2c10      	cmp	r4, #16
    7734:	f340 8209 	ble.w	7b4a <_svfiprintf_r+0xa92>
    7738:	f649 4538 	movw	r5, #39992	; 0x9c38
    773c:	9b27      	ldr	r3, [sp, #156]	; 0x9c
    773e:	f2c0 0500 	movt	r5, #0
    7742:	2610      	movs	r6, #16
    7744:	e002      	b.n	774c <_svfiprintf_r+0x694>
    7746:	3c10      	subs	r4, #16
    7748:	2c10      	cmp	r4, #16
    774a:	dd15      	ble.n	7778 <_svfiprintf_r+0x6c0>
    774c:	3301      	adds	r3, #1
    774e:	600d      	str	r5, [r1, #0]
    7750:	604e      	str	r6, [r1, #4]
    7752:	3210      	adds	r2, #16
    7754:	3108      	adds	r1, #8
    7756:	2b07      	cmp	r3, #7
    7758:	9327      	str	r3, [sp, #156]	; 0x9c
    775a:	9228      	str	r2, [sp, #160]	; 0xa0
    775c:	ddf3      	ble.n	7746 <_svfiprintf_r+0x68e>
    775e:	4649      	mov	r1, r9
    7760:	4658      	mov	r0, fp
    7762:	aa26      	add	r2, sp, #152	; 0x98
    7764:	f7ff fc24 	bl	6fb0 <__ssprint_r>
    7768:	a90c      	add	r1, sp, #48	; 0x30
    776a:	2800      	cmp	r0, #0
    776c:	d130      	bne.n	77d0 <_svfiprintf_r+0x718>
    776e:	3c10      	subs	r4, #16
    7770:	9a28      	ldr	r2, [sp, #160]	; 0xa0
    7772:	2c10      	cmp	r4, #16
    7774:	9b27      	ldr	r3, [sp, #156]	; 0x9c
    7776:	dce9      	bgt.n	774c <_svfiprintf_r+0x694>
    7778:	3301      	adds	r3, #1
    777a:	600d      	str	r5, [r1, #0]
    777c:	2b07      	cmp	r3, #7
    777e:	604c      	str	r4, [r1, #4]
    7780:	4422      	add	r2, r4
    7782:	9327      	str	r3, [sp, #156]	; 0x9c
    7784:	9228      	str	r2, [sp, #160]	; 0xa0
    7786:	f300 8141 	bgt.w	7a0c <_svfiprintf_r+0x954>
    778a:	9805      	ldr	r0, [sp, #20]
    778c:	9b02      	ldr	r3, [sp, #8]
    778e:	9904      	ldr	r1, [sp, #16]
    7790:	428b      	cmp	r3, r1
    7792:	bfac      	ite	ge
    7794:	18c0      	addge	r0, r0, r3
    7796:	1840      	addlt	r0, r0, r1
    7798:	9005      	str	r0, [sp, #20]
    779a:	2a00      	cmp	r2, #0
    779c:	d179      	bne.n	7892 <_svfiprintf_r+0x7da>
    779e:	2500      	movs	r5, #0
    77a0:	9527      	str	r5, [sp, #156]	; 0x9c
    77a2:	783b      	ldrb	r3, [r7, #0]
    77a4:	ae0c      	add	r6, sp, #48	; 0x30
    77a6:	f1b3 0225 	subs.w	r2, r3, #37	; 0x25
    77aa:	bf18      	it	ne
    77ac:	2201      	movne	r2, #1
    77ae:	2b00      	cmp	r3, #0
    77b0:	bf0c      	ite	eq
    77b2:	2300      	moveq	r3, #0
    77b4:	f002 0301 	andne.w	r3, r2, #1
    77b8:	2b00      	cmp	r3, #0
    77ba:	f47f aca0 	bne.w	70fe <_svfiprintf_r+0x46>
    77be:	463c      	mov	r4, r7
    77c0:	e4bc      	b.n	713c <_svfiprintf_r+0x84>
    77c2:	9b28      	ldr	r3, [sp, #160]	; 0xa0
    77c4:	b123      	cbz	r3, 77d0 <_svfiprintf_r+0x718>
    77c6:	4658      	mov	r0, fp
    77c8:	4649      	mov	r1, r9
    77ca:	aa26      	add	r2, sp, #152	; 0x98
    77cc:	f7ff fbf0 	bl	6fb0 <__ssprint_r>
    77d0:	f8b9 300c 	ldrh.w	r3, [r9, #12]
    77d4:	9805      	ldr	r0, [sp, #20]
    77d6:	f013 0f40 	tst.w	r3, #64	; 0x40
    77da:	bf18      	it	ne
    77dc:	f04f 30ff 	movne.w	r0, #4294967295
    77e0:	9005      	str	r0, [sp, #20]
    77e2:	9805      	ldr	r0, [sp, #20]
    77e4:	b02b      	add	sp, #172	; 0xac
    77e6:	e8bd 8ff0 	ldmia.w	sp!, {r4, r5, r6, r7, r8, r9, sl, fp, pc}
    77ea:	9804      	ldr	r0, [sp, #16]
    77ec:	9d02      	ldr	r5, [sp, #8]
    77ee:	1b44      	subs	r4, r0, r5
    77f0:	2c00      	cmp	r4, #0
    77f2:	bfd8      	it	le
    77f4:	f106 0108 	addle.w	r1, r6, #8
    77f8:	f77f af44 	ble.w	7684 <_svfiprintf_r+0x5cc>
    77fc:	2c10      	cmp	r4, #16
    77fe:	f340 81b9 	ble.w	7b74 <_svfiprintf_r+0xabc>
    7802:	4d36      	ldr	r5, [pc, #216]	; (78dc <_svfiprintf_r+0x824>)
    7804:	f04f 0810 	mov.w	r8, #16
    7808:	e002      	b.n	7810 <_svfiprintf_r+0x758>
    780a:	3c10      	subs	r4, #16
    780c:	2c10      	cmp	r4, #16
    780e:	dd1b      	ble.n	7848 <_svfiprintf_r+0x790>
    7810:	3301      	adds	r3, #1
    7812:	6035      	str	r5, [r6, #0]
    7814:	f8c6 8004 	str.w	r8, [r6, #4]
    7818:	3210      	adds	r2, #16
    781a:	3608      	adds	r6, #8
    781c:	2b07      	cmp	r3, #7
    781e:	9327      	str	r3, [sp, #156]	; 0x9c
    7820:	f106 0c08 	add.w	ip, r6, #8
    7824:	9228      	str	r2, [sp, #160]	; 0xa0
    7826:	ddf0      	ble.n	780a <_svfiprintf_r+0x752>
    7828:	4649      	mov	r1, r9
    782a:	4658      	mov	r0, fp
    782c:	aa26      	add	r2, sp, #152	; 0x98
    782e:	ae0c      	add	r6, sp, #48	; 0x30
    7830:	f7ff fbbe 	bl	6fb0 <__ssprint_r>
    7834:	a90c      	add	r1, sp, #48	; 0x30
    7836:	f101 0c08 	add.w	ip, r1, #8
    783a:	2800      	cmp	r0, #0
    783c:	d1c8      	bne.n	77d0 <_svfiprintf_r+0x718>
    783e:	3c10      	subs	r4, #16
    7840:	9a28      	ldr	r2, [sp, #160]	; 0xa0
    7842:	2c10      	cmp	r4, #16
    7844:	9b27      	ldr	r3, [sp, #156]	; 0x9c
    7846:	dce3      	bgt.n	7810 <_svfiprintf_r+0x758>
    7848:	3301      	adds	r3, #1
    784a:	6035      	str	r5, [r6, #0]
    784c:	2b07      	cmp	r3, #7
    784e:	6074      	str	r4, [r6, #4]
    7850:	4422      	add	r2, r4
    7852:	9327      	str	r3, [sp, #156]	; 0x9c
    7854:	9228      	str	r2, [sp, #160]	; 0xa0
    7856:	bfdc      	itt	le
    7858:	f10c 0108 	addle.w	r1, ip, #8
    785c:	4666      	movle	r6, ip
    785e:	f77f af11 	ble.w	7684 <_svfiprintf_r+0x5cc>
    7862:	4658      	mov	r0, fp
    7864:	4649      	mov	r1, r9
    7866:	aa26      	add	r2, sp, #152	; 0x98
    7868:	f7ff fba2 	bl	6fb0 <__ssprint_r>
    786c:	2800      	cmp	r0, #0
    786e:	d1af      	bne.n	77d0 <_svfiprintf_r+0x718>
    7870:	ab0c      	add	r3, sp, #48	; 0x30
    7872:	9a28      	ldr	r2, [sp, #160]	; 0xa0
    7874:	f103 0108 	add.w	r1, r3, #8
    7878:	ae0c      	add	r6, sp, #48	; 0x30
    787a:	9b27      	ldr	r3, [sp, #156]	; 0x9c
    787c:	e702      	b.n	7684 <_svfiprintf_r+0x5cc>
    787e:	4658      	mov	r0, fp
    7880:	4649      	mov	r1, r9
    7882:	aa26      	add	r2, sp, #152	; 0x98
    7884:	f7ff fb94 	bl	6fb0 <__ssprint_r>
    7888:	2800      	cmp	r0, #0
    788a:	d1a1      	bne.n	77d0 <_svfiprintf_r+0x718>
    788c:	9a28      	ldr	r2, [sp, #160]	; 0xa0
    788e:	a90c      	add	r1, sp, #48	; 0x30
    7890:	e747      	b.n	7722 <_svfiprintf_r+0x66a>
    7892:	4658      	mov	r0, fp
    7894:	4649      	mov	r1, r9
    7896:	aa26      	add	r2, sp, #152	; 0x98
    7898:	f7ff fb8a 	bl	6fb0 <__ssprint_r>
    789c:	2800      	cmp	r0, #0
    789e:	f43f af7e 	beq.w	779e <_svfiprintf_r+0x6e6>
    78a2:	e795      	b.n	77d0 <_svfiprintf_r+0x718>
    78a4:	ab26      	add	r3, sp, #152	; 0x98
    78a6:	9203      	str	r2, [sp, #12]
    78a8:	9309      	str	r3, [sp, #36]	; 0x24
    78aa:	e50d      	b.n	72c8 <_svfiprintf_r+0x210>
    78ac:	4658      	mov	r0, fp
    78ae:	4649      	mov	r1, r9
    78b0:	aa26      	add	r2, sp, #152	; 0x98
    78b2:	f7ff fb7d 	bl	6fb0 <__ssprint_r>
    78b6:	2800      	cmp	r0, #0
    78b8:	d18a      	bne.n	77d0 <_svfiprintf_r+0x718>
    78ba:	ae0c      	add	r6, sp, #48	; 0x30
    78bc:	e43b      	b.n	7136 <_svfiprintf_r+0x7e>
    78be:	4658      	mov	r0, fp
    78c0:	4649      	mov	r1, r9
    78c2:	aa26      	add	r2, sp, #152	; 0x98
    78c4:	f7ff fb74 	bl	6fb0 <__ssprint_r>
    78c8:	2800      	cmp	r0, #0
    78ca:	d181      	bne.n	77d0 <_svfiprintf_r+0x718>
    78cc:	ad0c      	add	r5, sp, #48	; 0x30
    78ce:	9a28      	ldr	r2, [sp, #160]	; 0xa0
    78d0:	f105 0108 	add.w	r1, r5, #8
    78d4:	9b27      	ldr	r3, [sp, #156]	; 0x9c
    78d6:	462e      	mov	r6, r5
    78d8:	e6c1      	b.n	765e <_svfiprintf_r+0x5a6>
    78da:	bf00      	nop
    78dc:	00009c48 	.word	0x00009c48
    78e0:	4658      	mov	r0, fp
    78e2:	4649      	mov	r1, r9
    78e4:	aa26      	add	r2, sp, #152	; 0x98
    78e6:	f7ff fb63 	bl	6fb0 <__ssprint_r>
    78ea:	2800      	cmp	r0, #0
    78ec:	f47f af70 	bne.w	77d0 <_svfiprintf_r+0x718>
    78f0:	ab0c      	add	r3, sp, #48	; 0x30
    78f2:	9a28      	ldr	r2, [sp, #160]	; 0xa0
    78f4:	f103 0108 	add.w	r1, r3, #8
    78f8:	ae0c      	add	r6, sp, #48	; 0x30
    78fa:	9b27      	ldr	r3, [sp, #156]	; 0x9c
    78fc:	e6be      	b.n	767c <_svfiprintf_r+0x5c4>
    78fe:	2c0a      	cmp	r4, #10
    7900:	f175 0300 	sbcs.w	r3, r5, #0
    7904:	f0c0 8093 	bcc.w	7a2e <_svfiprintf_r+0x976>
    7908:	a91c      	add	r1, sp, #112	; 0x70
    790a:	9703      	str	r7, [sp, #12]
    790c:	f101 0327 	add.w	r3, r1, #39	; 0x27
    7910:	9102      	str	r1, [sp, #8]
    7912:	461f      	mov	r7, r3
    7914:	9607      	str	r6, [sp, #28]
    7916:	4620      	mov	r0, r4
    7918:	4629      	mov	r1, r5
    791a:	220a      	movs	r2, #10
    791c:	2300      	movs	r3, #0
    791e:	f001 faf7 	bl	8f10 <__aeabi_uldivmod>
    7922:	463e      	mov	r6, r7
    7924:	4620      	mov	r0, r4
    7926:	4629      	mov	r1, r5
    7928:	2300      	movs	r3, #0
    792a:	3f01      	subs	r7, #1
    792c:	f102 0430 	add.w	r4, r2, #48	; 0x30
    7930:	220a      	movs	r2, #10
    7932:	7034      	strb	r4, [r6, #0]
    7934:	f001 faec 	bl	8f10 <__aeabi_uldivmod>
    7938:	4604      	mov	r4, r0
    793a:	460d      	mov	r5, r1
    793c:	ea54 0205 	orrs.w	r2, r4, r5
    7940:	d1e9      	bne.n	7916 <_svfiprintf_r+0x85e>
    7942:	9609      	str	r6, [sp, #36]	; 0x24
    7944:	9f03      	ldr	r7, [sp, #12]
    7946:	9e07      	ldr	r6, [sp, #28]
    7948:	e01a      	b.n	7980 <_svfiprintf_r+0x8c8>
    794a:	ad26      	add	r5, sp, #152	; 0x98
    794c:	9303      	str	r3, [sp, #12]
    794e:	9509      	str	r5, [sp, #36]	; 0x24
    7950:	e4ba      	b.n	72c8 <_svfiprintf_r+0x210>
    7952:	a91c      	add	r1, sp, #112	; 0x70
    7954:	f8dd c020 	ldr.w	ip, [sp, #32]
    7958:	f101 0027 	add.w	r0, r1, #39	; 0x27
    795c:	9102      	str	r1, [sp, #8]
    795e:	f004 020f 	and.w	r2, r4, #15
    7962:	0923      	lsrs	r3, r4, #4
    7964:	ea43 7305 	orr.w	r3, r3, r5, lsl #28
    7968:	0929      	lsrs	r1, r5, #4
    796a:	f81c 2002 	ldrb.w	r2, [ip, r2]
    796e:	461c      	mov	r4, r3
    7970:	4603      	mov	r3, r0
    7972:	460d      	mov	r5, r1
    7974:	3801      	subs	r0, #1
    7976:	701a      	strb	r2, [r3, #0]
    7978:	ea54 0205 	orrs.w	r2, r4, r5
    797c:	d1ef      	bne.n	795e <_svfiprintf_r+0x8a6>
    797e:	9309      	str	r3, [sp, #36]	; 0x24
    7980:	9d02      	ldr	r5, [sp, #8]
    7982:	9809      	ldr	r0, [sp, #36]	; 0x24
    7984:	f105 0328 	add.w	r3, r5, #40	; 0x28
    7988:	1a1b      	subs	r3, r3, r0
    798a:	9303      	str	r3, [sp, #12]
    798c:	e49c      	b.n	72c8 <_svfiprintf_r+0x210>
    798e:	f01a 0f10 	tst.w	sl, #16
    7992:	d175      	bne.n	7a80 <_svfiprintf_r+0x9c8>
    7994:	f01a 0f40 	tst.w	sl, #64	; 0x40
    7998:	f000 80a4 	beq.w	7ae4 <_svfiprintf_r+0xa2c>
    799c:	9b06      	ldr	r3, [sp, #24]
    799e:	f9b3 4000 	ldrsh.w	r4, [r3]
    79a2:	3304      	adds	r3, #4
    79a4:	9306      	str	r3, [sp, #24]
    79a6:	17e5      	asrs	r5, r4, #31
    79a8:	e4b7      	b.n	731a <_svfiprintf_r+0x262>
    79aa:	f01a 0f10 	tst.w	sl, #16
    79ae:	d17f      	bne.n	7ab0 <_svfiprintf_r+0x9f8>
    79b0:	f01a 0f40 	tst.w	sl, #64	; 0x40
    79b4:	f000 80ad 	beq.w	7b12 <_svfiprintf_r+0xa5a>
    79b8:	9b06      	ldr	r3, [sp, #24]
    79ba:	881a      	ldrh	r2, [r3, #0]
    79bc:	2301      	movs	r3, #1
    79be:	e009      	b.n	79d4 <_svfiprintf_r+0x91c>
    79c0:	f01a 0110 	ands.w	r1, sl, #16
    79c4:	d14e      	bne.n	7a64 <_svfiprintf_r+0x9ac>
    79c6:	f01a 0340 	ands.w	r3, sl, #64	; 0x40
    79ca:	f000 8091 	beq.w	7af0 <_svfiprintf_r+0xa38>
    79ce:	9b06      	ldr	r3, [sp, #24]
    79d0:	881a      	ldrh	r2, [r3, #0]
    79d2:	460b      	mov	r3, r1
    79d4:	9d06      	ldr	r5, [sp, #24]
    79d6:	4614      	mov	r4, r2
    79d8:	3504      	adds	r5, #4
    79da:	9506      	str	r5, [sp, #24]
    79dc:	2500      	movs	r5, #0
    79de:	3a00      	subs	r2, #0
    79e0:	bf18      	it	ne
    79e2:	2201      	movne	r2, #1
    79e4:	e431      	b.n	724a <_svfiprintf_r+0x192>
    79e6:	2302      	movs	r3, #2
    79e8:	e42f      	b.n	724a <_svfiprintf_r+0x192>
    79ea:	9d06      	ldr	r5, [sp, #24]
    79ec:	1d2a      	adds	r2, r5, #4
    79ee:	f8d5 8000 	ldr.w	r8, [r5]
    79f2:	f1b8 0f00 	cmp.w	r8, #0
    79f6:	bfbe      	ittt	lt
    79f8:	f04f 38ff 	movlt.w	r8, #4294967295
    79fc:	783b      	ldrblt	r3, [r7, #0]
    79fe:	9206      	strlt	r2, [sp, #24]
    7a00:	f6ff abad 	blt.w	715e <_svfiprintf_r+0xa6>
    7a04:	783b      	ldrb	r3, [r7, #0]
    7a06:	9206      	str	r2, [sp, #24]
    7a08:	f7ff bba9 	b.w	715e <_svfiprintf_r+0xa6>
    7a0c:	4658      	mov	r0, fp
    7a0e:	4649      	mov	r1, r9
    7a10:	aa26      	add	r2, sp, #152	; 0x98
    7a12:	f7ff facd 	bl	6fb0 <__ssprint_r>
    7a16:	2800      	cmp	r0, #0
    7a18:	f47f aeda 	bne.w	77d0 <_svfiprintf_r+0x718>
    7a1c:	9a28      	ldr	r2, [sp, #160]	; 0xa0
    7a1e:	e6b4      	b.n	778a <_svfiprintf_r+0x6d2>
    7a20:	9902      	ldr	r1, [sp, #8]
    7a22:	9a09      	ldr	r2, [sp, #36]	; 0x24
    7a24:	f101 0328 	add.w	r3, r1, #40	; 0x28
    7a28:	1a9b      	subs	r3, r3, r2
    7a2a:	9303      	str	r3, [sp, #12]
    7a2c:	e44c      	b.n	72c8 <_svfiprintf_r+0x210>
    7a2e:	3430      	adds	r4, #48	; 0x30
    7a30:	2501      	movs	r5, #1
    7a32:	f10d 0097 	add.w	r0, sp, #151	; 0x97
    7a36:	9503      	str	r5, [sp, #12]
    7a38:	f88d 4097 	strb.w	r4, [sp, #151]	; 0x97
    7a3c:	9009      	str	r0, [sp, #36]	; 0x24
    7a3e:	e443      	b.n	72c8 <_svfiprintf_r+0x210>
    7a40:	9b06      	ldr	r3, [sp, #24]
    7a42:	9d05      	ldr	r5, [sp, #20]
    7a44:	9806      	ldr	r0, [sp, #24]
    7a46:	6819      	ldr	r1, [r3, #0]
    7a48:	462a      	mov	r2, r5
    7a4a:	17eb      	asrs	r3, r5, #31
    7a4c:	3004      	adds	r0, #4
    7a4e:	9006      	str	r0, [sp, #24]
    7a50:	e9c1 2300 	strd	r2, r3, [r1]
    7a54:	f7ff bb46 	b.w	70e4 <_svfiprintf_r+0x2c>
    7a58:	9906      	ldr	r1, [sp, #24]
    7a5a:	2500      	movs	r5, #0
    7a5c:	680c      	ldr	r4, [r1, #0]
    7a5e:	3104      	adds	r1, #4
    7a60:	9106      	str	r1, [sp, #24]
    7a62:	e503      	b.n	746c <_svfiprintf_r+0x3b4>
    7a64:	9906      	ldr	r1, [sp, #24]
    7a66:	680a      	ldr	r2, [r1, #0]
    7a68:	3104      	adds	r1, #4
    7a6a:	4614      	mov	r4, r2
    7a6c:	2500      	movs	r5, #0
    7a6e:	3a00      	subs	r2, #0
    7a70:	9106      	str	r1, [sp, #24]
    7a72:	bf18      	it	ne
    7a74:	2201      	movne	r2, #1
    7a76:	f7ff bbe8 	b.w	724a <_svfiprintf_r+0x192>
    7a7a:	783b      	ldrb	r3, [r7, #0]
    7a7c:	f7ff bb6f 	b.w	715e <_svfiprintf_r+0xa6>
    7a80:	9a06      	ldr	r2, [sp, #24]
    7a82:	6814      	ldr	r4, [r2, #0]
    7a84:	3204      	adds	r2, #4
    7a86:	9206      	str	r2, [sp, #24]
    7a88:	17e5      	asrs	r5, r4, #31
    7a8a:	2c00      	cmp	r4, #0
    7a8c:	f175 0000 	sbcs.w	r0, r5, #0
    7a90:	f6bf ac48 	bge.w	7324 <_svfiprintf_r+0x26c>
    7a94:	4264      	negs	r4, r4
    7a96:	eb65 0545 	sbc.w	r5, r5, r5, lsl #1
    7a9a:	232d      	movs	r3, #45	; 0x2d
    7a9c:	ea54 0205 	orrs.w	r2, r4, r5
    7aa0:	f88d 30a7 	strb.w	r3, [sp, #167]	; 0xa7
    7aa4:	bf0c      	ite	eq
    7aa6:	2200      	moveq	r2, #0
    7aa8:	2201      	movne	r2, #1
    7aaa:	2301      	movs	r3, #1
    7aac:	f7ff bbd0 	b.w	7250 <_svfiprintf_r+0x198>
    7ab0:	9906      	ldr	r1, [sp, #24]
    7ab2:	2301      	movs	r3, #1
    7ab4:	680a      	ldr	r2, [r1, #0]
    7ab6:	e7d7      	b.n	7a68 <_svfiprintf_r+0x9b0>
    7ab8:	9809      	ldr	r0, [sp, #36]	; 0x24
    7aba:	2100      	movs	r1, #0
    7abc:	9107      	str	r1, [sp, #28]
    7abe:	f7fb fcf5 	bl	34ac <strlen>
    7ac2:	9003      	str	r0, [sp, #12]
    7ac4:	e402      	b.n	72cc <_svfiprintf_r+0x214>
    7ac6:	9906      	ldr	r1, [sp, #24]
    7ac8:	9a05      	ldr	r2, [sp, #20]
    7aca:	680b      	ldr	r3, [r1, #0]
    7acc:	3104      	adds	r1, #4
    7ace:	9106      	str	r1, [sp, #24]
    7ad0:	601a      	str	r2, [r3, #0]
    7ad2:	f7ff bb07 	b.w	70e4 <_svfiprintf_r+0x2c>
    7ad6:	4d2e      	ldr	r5, [pc, #184]	; (7b90 <_svfiprintf_r+0xad8>)
    7ad8:	468c      	mov	ip, r1
    7ada:	e5fe      	b.n	76da <_svfiprintf_r+0x622>
    7adc:	2300      	movs	r3, #0
    7ade:	9307      	str	r3, [sp, #28]
    7ae0:	f7ff bbf4 	b.w	72cc <_svfiprintf_r+0x214>
    7ae4:	9d06      	ldr	r5, [sp, #24]
    7ae6:	682c      	ldr	r4, [r5, #0]
    7ae8:	3504      	adds	r5, #4
    7aea:	9506      	str	r5, [sp, #24]
    7aec:	17e5      	asrs	r5, r4, #31
    7aee:	e414      	b.n	731a <_svfiprintf_r+0x262>
    7af0:	9806      	ldr	r0, [sp, #24]
    7af2:	6802      	ldr	r2, [r0, #0]
    7af4:	3004      	adds	r0, #4
    7af6:	4614      	mov	r4, r2
    7af8:	2500      	movs	r5, #0
    7afa:	3a00      	subs	r2, #0
    7afc:	9006      	str	r0, [sp, #24]
    7afe:	bf18      	it	ne
    7b00:	2201      	movne	r2, #1
    7b02:	f7ff bba2 	b.w	724a <_svfiprintf_r+0x192>
    7b06:	9d06      	ldr	r5, [sp, #24]
    7b08:	682c      	ldr	r4, [r5, #0]
    7b0a:	3504      	adds	r5, #4
    7b0c:	9506      	str	r5, [sp, #24]
    7b0e:	2500      	movs	r5, #0
    7b10:	e4ac      	b.n	746c <_svfiprintf_r+0x3b4>
    7b12:	9806      	ldr	r0, [sp, #24]
    7b14:	2301      	movs	r3, #1
    7b16:	6802      	ldr	r2, [r0, #0]
    7b18:	e7ec      	b.n	7af4 <_svfiprintf_r+0xa3c>
    7b1a:	2140      	movs	r1, #64	; 0x40
    7b1c:	9201      	str	r2, [sp, #4]
    7b1e:	f7fe f8bf 	bl	5ca0 <_malloc_r>
    7b22:	9a01      	ldr	r2, [sp, #4]
    7b24:	f8c9 0000 	str.w	r0, [r9]
    7b28:	f8c9 0010 	str.w	r0, [r9, #16]
    7b2c:	b350      	cbz	r0, 7b84 <_svfiprintf_r+0xacc>
    7b2e:	2340      	movs	r3, #64	; 0x40
    7b30:	f8c9 3014 	str.w	r3, [r9, #20]
    7b34:	f7ff bace 	b.w	70d4 <_svfiprintf_r+0x1c>
    7b38:	f649 4538 	movw	r5, #39992	; 0x9c38
    7b3c:	f106 0c08 	add.w	ip, r6, #8
    7b40:	9a28      	ldr	r2, [sp, #160]	; 0xa0
    7b42:	f2c0 0500 	movt	r5, #0
    7b46:	9b27      	ldr	r3, [sp, #156]	; 0x9c
    7b48:	e4f1      	b.n	752e <_svfiprintf_r+0x476>
    7b4a:	f649 4538 	movw	r5, #39992	; 0x9c38
    7b4e:	9b27      	ldr	r3, [sp, #156]	; 0x9c
    7b50:	f2c0 0500 	movt	r5, #0
    7b54:	e610      	b.n	7778 <_svfiprintf_r+0x6c0>
    7b56:	f1b8 0f06 	cmp.w	r8, #6
    7b5a:	bf34      	ite	cc
    7b5c:	4641      	movcc	r1, r8
    7b5e:	2106      	movcs	r1, #6
    7b60:	f649 22e0 	movw	r2, #39648	; 0x9ae0
    7b64:	ea21 73e1 	bic.w	r3, r1, r1, asr #31
    7b68:	f2c0 0200 	movt	r2, #0
    7b6c:	9103      	str	r1, [sp, #12]
    7b6e:	9302      	str	r3, [sp, #8]
    7b70:	9209      	str	r2, [sp, #36]	; 0x24
    7b72:	e49c      	b.n	74ae <_svfiprintf_r+0x3f6>
    7b74:	4d06      	ldr	r5, [pc, #24]	; (7b90 <_svfiprintf_r+0xad8>)
    7b76:	468c      	mov	ip, r1
    7b78:	e666      	b.n	7848 <_svfiprintf_r+0x790>
    7b7a:	f8cd 800c 	str.w	r8, [sp, #12]
    7b7e:	9007      	str	r0, [sp, #28]
    7b80:	f7ff bba4 	b.w	72cc <_svfiprintf_r+0x214>
    7b84:	3801      	subs	r0, #1
    7b86:	230c      	movs	r3, #12
    7b88:	9005      	str	r0, [sp, #20]
    7b8a:	f8cb 3000 	str.w	r3, [fp]
    7b8e:	e628      	b.n	77e2 <_svfiprintf_r+0x72a>
    7b90:	00009c48 	.word	0x00009c48

00007b94 <_calloc_r>:
    7b94:	b538      	push	{r3, r4, r5, lr}
    7b96:	fb01 f102 	mul.w	r1, r1, r2
    7b9a:	f7fe f881 	bl	5ca0 <_malloc_r>
    7b9e:	4604      	mov	r4, r0
    7ba0:	b1f8      	cbz	r0, 7be2 <_calloc_r+0x4e>
    7ba2:	f850 2c04 	ldr.w	r2, [r0, #-4]
    7ba6:	f022 0203 	bic.w	r2, r2, #3
    7baa:	3a04      	subs	r2, #4
    7bac:	2a24      	cmp	r2, #36	; 0x24
    7bae:	d81a      	bhi.n	7be6 <_calloc_r+0x52>
    7bb0:	2a13      	cmp	r2, #19
    7bb2:	4603      	mov	r3, r0
    7bb4:	d90f      	bls.n	7bd6 <_calloc_r+0x42>
    7bb6:	2100      	movs	r1, #0
    7bb8:	f840 1b04 	str.w	r1, [r0], #4
    7bbc:	1d03      	adds	r3, r0, #4
    7bbe:	2a1b      	cmp	r2, #27
    7bc0:	6061      	str	r1, [r4, #4]
    7bc2:	d908      	bls.n	7bd6 <_calloc_r+0x42>
    7bc4:	1d1d      	adds	r5, r3, #4
    7bc6:	6041      	str	r1, [r0, #4]
    7bc8:	6059      	str	r1, [r3, #4]
    7bca:	3308      	adds	r3, #8
    7bcc:	2a24      	cmp	r2, #36	; 0x24
    7bce:	bf02      	ittt	eq
    7bd0:	6069      	streq	r1, [r5, #4]
    7bd2:	6059      	streq	r1, [r3, #4]
    7bd4:	3308      	addeq	r3, #8
    7bd6:	461a      	mov	r2, r3
    7bd8:	2100      	movs	r1, #0
    7bda:	f842 1b04 	str.w	r1, [r2], #4
    7bde:	6059      	str	r1, [r3, #4]
    7be0:	6051      	str	r1, [r2, #4]
    7be2:	4620      	mov	r0, r4
    7be4:	bd38      	pop	{r3, r4, r5, pc}
    7be6:	2100      	movs	r1, #0
    7be8:	f000 f972 	bl	7ed0 <memset>
    7bec:	4620      	mov	r0, r4
    7bee:	bd38      	pop	{r3, r4, r5, pc}

00007bf0 <_malloc_trim_r>:
    7bf0:	b5f8      	push	{r3, r4, r5, r6, r7, lr}
    7bf2:	f240 1484 	movw	r4, #388	; 0x184
    7bf6:	f2c2 0400 	movt	r4, #8192	; 0x2000
    7bfa:	460f      	mov	r7, r1
    7bfc:	4605      	mov	r5, r0
    7bfe:	f7fe fbf9 	bl	63f4 <__malloc_lock>
    7c02:	68a3      	ldr	r3, [r4, #8]
    7c04:	685e      	ldr	r6, [r3, #4]
    7c06:	f026 0603 	bic.w	r6, r6, #3
    7c0a:	f506 637e 	add.w	r3, r6, #4064	; 0xfe0
    7c0e:	330f      	adds	r3, #15
    7c10:	1bdf      	subs	r7, r3, r7
    7c12:	0b3f      	lsrs	r7, r7, #12
    7c14:	3f01      	subs	r7, #1
    7c16:	033f      	lsls	r7, r7, #12
    7c18:	f5b7 5f80 	cmp.w	r7, #4096	; 0x1000
    7c1c:	db07      	blt.n	7c2e <_malloc_trim_r+0x3e>
    7c1e:	2100      	movs	r1, #0
    7c20:	4628      	mov	r0, r5
    7c22:	f7ff f8c3 	bl	6dac <_sbrk_r>
    7c26:	68a3      	ldr	r3, [r4, #8]
    7c28:	199b      	adds	r3, r3, r6
    7c2a:	4298      	cmp	r0, r3
    7c2c:	d004      	beq.n	7c38 <_malloc_trim_r+0x48>
    7c2e:	4628      	mov	r0, r5
    7c30:	f7fe fbe2 	bl	63f8 <__malloc_unlock>
    7c34:	2000      	movs	r0, #0
    7c36:	bdf8      	pop	{r3, r4, r5, r6, r7, pc}
    7c38:	4279      	negs	r1, r7
    7c3a:	4628      	mov	r0, r5
    7c3c:	f7ff f8b6 	bl	6dac <_sbrk_r>
    7c40:	f1b0 3fff 	cmp.w	r0, #4294967295
    7c44:	d010      	beq.n	7c68 <_malloc_trim_r+0x78>
    7c46:	f240 53cc 	movw	r3, #1484	; 0x5cc
    7c4a:	68a1      	ldr	r1, [r4, #8]
    7c4c:	f2c2 0300 	movt	r3, #8192	; 0x2000
    7c50:	1bf6      	subs	r6, r6, r7
    7c52:	4628      	mov	r0, r5
    7c54:	f046 0601 	orr.w	r6, r6, #1
    7c58:	681a      	ldr	r2, [r3, #0]
    7c5a:	604e      	str	r6, [r1, #4]
    7c5c:	1bd7      	subs	r7, r2, r7
    7c5e:	601f      	str	r7, [r3, #0]
    7c60:	f7fe fbca 	bl	63f8 <__malloc_unlock>
    7c64:	2001      	movs	r0, #1
    7c66:	bdf8      	pop	{r3, r4, r5, r6, r7, pc}
    7c68:	2100      	movs	r1, #0
    7c6a:	4628      	mov	r0, r5
    7c6c:	f7ff f89e 	bl	6dac <_sbrk_r>
    7c70:	68a3      	ldr	r3, [r4, #8]
    7c72:	1ac2      	subs	r2, r0, r3
    7c74:	2a0f      	cmp	r2, #15
    7c76:	ddda      	ble.n	7c2e <_malloc_trim_r+0x3e>
    7c78:	f240 548c 	movw	r4, #1420	; 0x58c
    7c7c:	f240 51cc 	movw	r1, #1484	; 0x5cc
    7c80:	f2c2 0400 	movt	r4, #8192	; 0x2000
    7c84:	f2c2 0100 	movt	r1, #8192	; 0x2000
    7c88:	f042 0201 	orr.w	r2, r2, #1
    7c8c:	605a      	str	r2, [r3, #4]
    7c8e:	6823      	ldr	r3, [r4, #0]
    7c90:	1ac0      	subs	r0, r0, r3
    7c92:	6008      	str	r0, [r1, #0]
    7c94:	e7cb      	b.n	7c2e <_malloc_trim_r+0x3e>
    7c96:	bf00      	nop

00007c98 <_free_r>:
    7c98:	e92d 41f0 	stmdb	sp!, {r4, r5, r6, r7, r8, lr}
    7c9c:	460d      	mov	r5, r1
    7c9e:	4604      	mov	r4, r0
    7ca0:	2900      	cmp	r1, #0
    7ca2:	d058      	beq.n	7d56 <_free_r+0xbe>
    7ca4:	f7fe fba6 	bl	63f4 <__malloc_lock>
    7ca8:	f1a5 0208 	sub.w	r2, r5, #8
    7cac:	f240 1084 	movw	r0, #388	; 0x184
    7cb0:	6856      	ldr	r6, [r2, #4]
    7cb2:	f2c2 0000 	movt	r0, #8192	; 0x2000
    7cb6:	f026 0301 	bic.w	r3, r6, #1
    7cba:	f8d0 c008 	ldr.w	ip, [r0, #8]
    7cbe:	18d1      	adds	r1, r2, r3
    7cc0:	458c      	cmp	ip, r1
    7cc2:	684f      	ldr	r7, [r1, #4]
    7cc4:	f027 0703 	bic.w	r7, r7, #3
    7cc8:	d065      	beq.n	7d96 <_free_r+0xfe>
    7cca:	f016 0601 	ands.w	r6, r6, #1
    7cce:	604f      	str	r7, [r1, #4]
    7cd0:	d031      	beq.n	7d36 <_free_r+0x9e>
    7cd2:	2600      	movs	r6, #0
    7cd4:	19cd      	adds	r5, r1, r7
    7cd6:	686d      	ldr	r5, [r5, #4]
    7cd8:	f015 0f01 	tst.w	r5, #1
    7cdc:	d106      	bne.n	7cec <_free_r+0x54>
    7cde:	19db      	adds	r3, r3, r7
    7ce0:	2e00      	cmp	r6, #0
    7ce2:	d04b      	beq.n	7d7c <_free_r+0xe4>
    7ce4:	688d      	ldr	r5, [r1, #8]
    7ce6:	68c9      	ldr	r1, [r1, #12]
    7ce8:	60e9      	str	r1, [r5, #12]
    7cea:	608d      	str	r5, [r1, #8]
    7cec:	f043 0101 	orr.w	r1, r3, #1
    7cf0:	50d3      	str	r3, [r2, r3]
    7cf2:	6051      	str	r1, [r2, #4]
    7cf4:	b9d6      	cbnz	r6, 7d2c <_free_r+0x94>
    7cf6:	f5b3 7f00 	cmp.w	r3, #512	; 0x200
    7cfa:	d32e      	bcc.n	7d5a <_free_r+0xc2>
    7cfc:	0a59      	lsrs	r1, r3, #9
    7cfe:	2904      	cmp	r1, #4
    7d00:	d86b      	bhi.n	7dda <_free_r+0x142>
    7d02:	099e      	lsrs	r6, r3, #6
    7d04:	3638      	adds	r6, #56	; 0x38
    7d06:	00f5      	lsls	r5, r6, #3
    7d08:	1945      	adds	r5, r0, r5
    7d0a:	68a9      	ldr	r1, [r5, #8]
    7d0c:	42a9      	cmp	r1, r5
    7d0e:	d103      	bne.n	7d18 <_free_r+0x80>
    7d10:	e069      	b.n	7de6 <_free_r+0x14e>
    7d12:	6889      	ldr	r1, [r1, #8]
    7d14:	428d      	cmp	r5, r1
    7d16:	d004      	beq.n	7d22 <_free_r+0x8a>
    7d18:	6848      	ldr	r0, [r1, #4]
    7d1a:	f020 0003 	bic.w	r0, r0, #3
    7d1e:	4283      	cmp	r3, r0
    7d20:	d3f7      	bcc.n	7d12 <_free_r+0x7a>
    7d22:	68cb      	ldr	r3, [r1, #12]
    7d24:	60d3      	str	r3, [r2, #12]
    7d26:	6091      	str	r1, [r2, #8]
    7d28:	60ca      	str	r2, [r1, #12]
    7d2a:	609a      	str	r2, [r3, #8]
    7d2c:	4620      	mov	r0, r4
    7d2e:	e8bd 41f0 	ldmia.w	sp!, {r4, r5, r6, r7, r8, lr}
    7d32:	f7fe bb61 	b.w	63f8 <__malloc_unlock>
    7d36:	f855 5c08 	ldr.w	r5, [r5, #-8]
    7d3a:	f100 0c08 	add.w	ip, r0, #8
    7d3e:	1b52      	subs	r2, r2, r5
    7d40:	195b      	adds	r3, r3, r5
    7d42:	6895      	ldr	r5, [r2, #8]
    7d44:	4565      	cmp	r5, ip
    7d46:	d046      	beq.n	7dd6 <_free_r+0x13e>
    7d48:	f8d2 c00c 	ldr.w	ip, [r2, #12]
    7d4c:	f8c5 c00c 	str.w	ip, [r5, #12]
    7d50:	f8cc 5008 	str.w	r5, [ip, #8]
    7d54:	e7be      	b.n	7cd4 <_free_r+0x3c>
    7d56:	e8bd 81f0 	ldmia.w	sp!, {r4, r5, r6, r7, r8, pc}
    7d5a:	08db      	lsrs	r3, r3, #3
    7d5c:	2501      	movs	r5, #1
    7d5e:	6846      	ldr	r6, [r0, #4]
    7d60:	eb00 01c3 	add.w	r1, r0, r3, lsl #3
    7d64:	109b      	asrs	r3, r3, #2
    7d66:	fa15 f303 	lsls.w	r3, r5, r3
    7d6a:	60d1      	str	r1, [r2, #12]
    7d6c:	688d      	ldr	r5, [r1, #8]
    7d6e:	ea46 0303 	orr.w	r3, r6, r3
    7d72:	6043      	str	r3, [r0, #4]
    7d74:	6095      	str	r5, [r2, #8]
    7d76:	60ea      	str	r2, [r5, #12]
    7d78:	608a      	str	r2, [r1, #8]
    7d7a:	e7d7      	b.n	7d2c <_free_r+0x94>
    7d7c:	688d      	ldr	r5, [r1, #8]
    7d7e:	4f2b      	ldr	r7, [pc, #172]	; (7e2c <_free_r+0x194>)
    7d80:	42bd      	cmp	r5, r7
    7d82:	d1b0      	bne.n	7ce6 <_free_r+0x4e>
    7d84:	60ea      	str	r2, [r5, #12]
    7d86:	f043 0101 	orr.w	r1, r3, #1
    7d8a:	60aa      	str	r2, [r5, #8]
    7d8c:	60d5      	str	r5, [r2, #12]
    7d8e:	6095      	str	r5, [r2, #8]
    7d90:	6051      	str	r1, [r2, #4]
    7d92:	50d3      	str	r3, [r2, r3]
    7d94:	e7ca      	b.n	7d2c <_free_r+0x94>
    7d96:	f016 0f01 	tst.w	r6, #1
    7d9a:	443b      	add	r3, r7
    7d9c:	d107      	bne.n	7dae <_free_r+0x116>
    7d9e:	f855 1c08 	ldr.w	r1, [r5, #-8]
    7da2:	1a52      	subs	r2, r2, r1
    7da4:	185b      	adds	r3, r3, r1
    7da6:	6895      	ldr	r5, [r2, #8]
    7da8:	68d1      	ldr	r1, [r2, #12]
    7daa:	60e9      	str	r1, [r5, #12]
    7dac:	608d      	str	r5, [r1, #8]
    7dae:	f240 5190 	movw	r1, #1424	; 0x590
    7db2:	f043 0501 	orr.w	r5, r3, #1
    7db6:	f2c2 0100 	movt	r1, #8192	; 0x2000
    7dba:	6055      	str	r5, [r2, #4]
    7dbc:	6082      	str	r2, [r0, #8]
    7dbe:	680a      	ldr	r2, [r1, #0]
    7dc0:	4293      	cmp	r3, r2
    7dc2:	d3b3      	bcc.n	7d2c <_free_r+0x94>
    7dc4:	f240 53c8 	movw	r3, #1480	; 0x5c8
    7dc8:	4620      	mov	r0, r4
    7dca:	f2c2 0300 	movt	r3, #8192	; 0x2000
    7dce:	6819      	ldr	r1, [r3, #0]
    7dd0:	f7ff ff0e 	bl	7bf0 <_malloc_trim_r>
    7dd4:	e7aa      	b.n	7d2c <_free_r+0x94>
    7dd6:	2601      	movs	r6, #1
    7dd8:	e77c      	b.n	7cd4 <_free_r+0x3c>
    7dda:	2914      	cmp	r1, #20
    7ddc:	d80c      	bhi.n	7df8 <_free_r+0x160>
    7dde:	f101 065b 	add.w	r6, r1, #91	; 0x5b
    7de2:	00f5      	lsls	r5, r6, #3
    7de4:	e790      	b.n	7d08 <_free_r+0x70>
    7de6:	2501      	movs	r5, #1
    7de8:	6847      	ldr	r7, [r0, #4]
    7dea:	10b6      	asrs	r6, r6, #2
    7dec:	460b      	mov	r3, r1
    7dee:	40b5      	lsls	r5, r6
    7df0:	ea47 0505 	orr.w	r5, r7, r5
    7df4:	6045      	str	r5, [r0, #4]
    7df6:	e795      	b.n	7d24 <_free_r+0x8c>
    7df8:	2954      	cmp	r1, #84	; 0x54
    7dfa:	d803      	bhi.n	7e04 <_free_r+0x16c>
    7dfc:	0b1e      	lsrs	r6, r3, #12
    7dfe:	366e      	adds	r6, #110	; 0x6e
    7e00:	00f5      	lsls	r5, r6, #3
    7e02:	e781      	b.n	7d08 <_free_r+0x70>
    7e04:	f5b1 7faa 	cmp.w	r1, #340	; 0x154
    7e08:	d803      	bhi.n	7e12 <_free_r+0x17a>
    7e0a:	0bde      	lsrs	r6, r3, #15
    7e0c:	3677      	adds	r6, #119	; 0x77
    7e0e:	00f5      	lsls	r5, r6, #3
    7e10:	e77a      	b.n	7d08 <_free_r+0x70>
    7e12:	f240 5554 	movw	r5, #1364	; 0x554
    7e16:	42a9      	cmp	r1, r5
    7e18:	d803      	bhi.n	7e22 <_free_r+0x18a>
    7e1a:	0c9e      	lsrs	r6, r3, #18
    7e1c:	367c      	adds	r6, #124	; 0x7c
    7e1e:	00f5      	lsls	r5, r6, #3
    7e20:	e772      	b.n	7d08 <_free_r+0x70>
    7e22:	f44f 757c 	mov.w	r5, #1008	; 0x3f0
    7e26:	267e      	movs	r6, #126	; 0x7e
    7e28:	e76e      	b.n	7d08 <_free_r+0x70>
    7e2a:	bf00      	nop
    7e2c:	2000018c 	.word	0x2000018c

00007e30 <memmove>:
    7e30:	4288      	cmp	r0, r1
    7e32:	b4f0      	push	{r4, r5, r6, r7}
    7e34:	4605      	mov	r5, r0
    7e36:	460e      	mov	r6, r1
    7e38:	d90d      	bls.n	7e56 <memmove+0x26>
    7e3a:	188b      	adds	r3, r1, r2
    7e3c:	4298      	cmp	r0, r3
    7e3e:	d20a      	bcs.n	7e56 <memmove+0x26>
    7e40:	b13a      	cbz	r2, 7e52 <memmove+0x22>
    7e42:	4619      	mov	r1, r3
    7e44:	1883      	adds	r3, r0, r2
    7e46:	f811 4d01 	ldrb.w	r4, [r1, #-1]!
    7e4a:	3a01      	subs	r2, #1
    7e4c:	f803 4d01 	strb.w	r4, [r3, #-1]!
    7e50:	d1f9      	bne.n	7e46 <memmove+0x16>
    7e52:	bcf0      	pop	{r4, r5, r6, r7}
    7e54:	4770      	bx	lr
    7e56:	2a0f      	cmp	r2, #15
    7e58:	d931      	bls.n	7ebe <memmove+0x8e>
    7e5a:	ea41 0300 	orr.w	r3, r1, r0
    7e5e:	f013 0f03 	tst.w	r3, #3
    7e62:	d12e      	bne.n	7ec2 <memmove+0x92>
    7e64:	460c      	mov	r4, r1
    7e66:	4603      	mov	r3, r0
    7e68:	4615      	mov	r5, r2
    7e6a:	6826      	ldr	r6, [r4, #0]
    7e6c:	3d10      	subs	r5, #16
    7e6e:	601e      	str	r6, [r3, #0]
    7e70:	6866      	ldr	r6, [r4, #4]
    7e72:	605e      	str	r6, [r3, #4]
    7e74:	68a6      	ldr	r6, [r4, #8]
    7e76:	609e      	str	r6, [r3, #8]
    7e78:	68e6      	ldr	r6, [r4, #12]
    7e7a:	3410      	adds	r4, #16
    7e7c:	60de      	str	r6, [r3, #12]
    7e7e:	3310      	adds	r3, #16
    7e80:	2d0f      	cmp	r5, #15
    7e82:	d8f2      	bhi.n	7e6a <memmove+0x3a>
    7e84:	3a10      	subs	r2, #16
    7e86:	f022 060f 	bic.w	r6, r2, #15
    7e8a:	f002 020f 	and.w	r2, r2, #15
    7e8e:	3610      	adds	r6, #16
    7e90:	2a03      	cmp	r2, #3
    7e92:	eb00 0506 	add.w	r5, r0, r6
    7e96:	440e      	add	r6, r1
    7e98:	d911      	bls.n	7ebe <memmove+0x8e>
    7e9a:	4637      	mov	r7, r6
    7e9c:	462c      	mov	r4, r5
    7e9e:	4613      	mov	r3, r2
    7ea0:	f857 1b04 	ldr.w	r1, [r7], #4
    7ea4:	3b04      	subs	r3, #4
    7ea6:	2b03      	cmp	r3, #3
    7ea8:	f844 1b04 	str.w	r1, [r4], #4
    7eac:	d8f8      	bhi.n	7ea0 <memmove+0x70>
    7eae:	3a04      	subs	r2, #4
    7eb0:	f022 0303 	bic.w	r3, r2, #3
    7eb4:	f002 0203 	and.w	r2, r2, #3
    7eb8:	3304      	adds	r3, #4
    7eba:	18ed      	adds	r5, r5, r3
    7ebc:	18f6      	adds	r6, r6, r3
    7ebe:	2a00      	cmp	r2, #0
    7ec0:	d0c7      	beq.n	7e52 <memmove+0x22>
    7ec2:	2300      	movs	r3, #0
    7ec4:	5cf4      	ldrb	r4, [r6, r3]
    7ec6:	54ec      	strb	r4, [r5, r3]
    7ec8:	3301      	adds	r3, #1
    7eca:	4293      	cmp	r3, r2
    7ecc:	d1fa      	bne.n	7ec4 <memmove+0x94>
    7ece:	e7c0      	b.n	7e52 <memmove+0x22>

00007ed0 <memset>:
    7ed0:	2a03      	cmp	r2, #3
    7ed2:	b2c9      	uxtb	r1, r1
    7ed4:	b470      	push	{r4, r5, r6}
    7ed6:	d808      	bhi.n	7eea <memset+0x1a>
    7ed8:	b12a      	cbz	r2, 7ee6 <memset+0x16>
    7eda:	4603      	mov	r3, r0
    7edc:	1812      	adds	r2, r2, r0
    7ede:	f803 1b01 	strb.w	r1, [r3], #1
    7ee2:	4293      	cmp	r3, r2
    7ee4:	d1fb      	bne.n	7ede <memset+0xe>
    7ee6:	bc70      	pop	{r4, r5, r6}
    7ee8:	4770      	bx	lr
    7eea:	1882      	adds	r2, r0, r2
    7eec:	4604      	mov	r4, r0
    7eee:	e001      	b.n	7ef4 <memset+0x24>
    7ef0:	f804 1b01 	strb.w	r1, [r4], #1
    7ef4:	f014 0f03 	tst.w	r4, #3
    7ef8:	d1fa      	bne.n	7ef0 <memset+0x20>
    7efa:	f04f 3301 	mov.w	r3, #16843009	; 0x1010101
    7efe:	fb03 f301 	mul.w	r3, r3, r1
    7f02:	e01f      	b.n	7f44 <memset+0x74>
    7f04:	f844 3c40 	str.w	r3, [r4, #-64]
    7f08:	f844 3c3c 	str.w	r3, [r4, #-60]
    7f0c:	f844 3c38 	str.w	r3, [r4, #-56]
    7f10:	f844 3c34 	str.w	r3, [r4, #-52]
    7f14:	f844 3c30 	str.w	r3, [r4, #-48]
    7f18:	f844 3c2c 	str.w	r3, [r4, #-44]
    7f1c:	f844 3c28 	str.w	r3, [r4, #-40]
    7f20:	f844 3c24 	str.w	r3, [r4, #-36]
    7f24:	f844 3c20 	str.w	r3, [r4, #-32]
    7f28:	f844 3c1c 	str.w	r3, [r4, #-28]
    7f2c:	f844 3c18 	str.w	r3, [r4, #-24]
    7f30:	f844 3c14 	str.w	r3, [r4, #-20]
    7f34:	f844 3c10 	str.w	r3, [r4, #-16]
    7f38:	f844 3c0c 	str.w	r3, [r4, #-12]
    7f3c:	f844 3c08 	str.w	r3, [r4, #-8]
    7f40:	f844 3c04 	str.w	r3, [r4, #-4]
    7f44:	1b16      	subs	r6, r2, r4
    7f46:	4625      	mov	r5, r4
    7f48:	3440      	adds	r4, #64	; 0x40
    7f4a:	2e3f      	cmp	r6, #63	; 0x3f
    7f4c:	dcda      	bgt.n	7f04 <memset+0x34>
    7f4e:	462c      	mov	r4, r5
    7f50:	e007      	b.n	7f62 <memset+0x92>
    7f52:	f844 3c10 	str.w	r3, [r4, #-16]
    7f56:	f844 3c0c 	str.w	r3, [r4, #-12]
    7f5a:	f844 3c08 	str.w	r3, [r4, #-8]
    7f5e:	f844 3c04 	str.w	r3, [r4, #-4]
    7f62:	1b16      	subs	r6, r2, r4
    7f64:	4625      	mov	r5, r4
    7f66:	3410      	adds	r4, #16
    7f68:	2e0f      	cmp	r6, #15
    7f6a:	dcf2      	bgt.n	7f52 <memset+0x82>
    7f6c:	e001      	b.n	7f72 <memset+0xa2>
    7f6e:	f845 3b04 	str.w	r3, [r5], #4
    7f72:	1b54      	subs	r4, r2, r5
    7f74:	2c03      	cmp	r4, #3
    7f76:	dcfa      	bgt.n	7f6e <memset+0x9e>
    7f78:	e001      	b.n	7f7e <memset+0xae>
    7f7a:	f805 1b01 	strb.w	r1, [r5], #1
    7f7e:	4295      	cmp	r5, r2
    7f80:	d3fb      	bcc.n	7f7a <memset+0xaa>
    7f82:	e7b0      	b.n	7ee6 <memset+0x16>

00007f84 <_realloc_r>:
    7f84:	e92d 4ff0 	stmdb	sp!, {r4, r5, r6, r7, r8, r9, sl, fp, lr}
    7f88:	460d      	mov	r5, r1
    7f8a:	b083      	sub	sp, #12
    7f8c:	4607      	mov	r7, r0
    7f8e:	4690      	mov	r8, r2
    7f90:	2900      	cmp	r1, #0
    7f92:	f000 8155 	beq.w	8240 <_realloc_r+0x2bc>
    7f96:	f108 040b 	add.w	r4, r8, #11
    7f9a:	f1a1 0a08 	sub.w	sl, r1, #8
    7f9e:	f7fe fa29 	bl	63f4 <__malloc_lock>
    7fa2:	2c16      	cmp	r4, #22
    7fa4:	f8da 3004 	ldr.w	r3, [sl, #4]
    7fa8:	f200 8097 	bhi.w	80da <_realloc_r+0x156>
    7fac:	2210      	movs	r2, #16
    7fae:	2000      	movs	r0, #0
    7fb0:	4614      	mov	r4, r2
    7fb2:	4544      	cmp	r4, r8
    7fb4:	bf38      	it	cc
    7fb6:	f040 0001 	orrcc.w	r0, r0, #1
    7fba:	2800      	cmp	r0, #0
    7fbc:	f040 8146 	bne.w	824c <_realloc_r+0x2c8>
    7fc0:	f023 0b03 	bic.w	fp, r3, #3
    7fc4:	4593      	cmp	fp, r2
    7fc6:	bfa4      	itt	ge
    7fc8:	f10a 0808 	addge.w	r8, sl, #8
    7fcc:	465e      	movge	r6, fp
    7fce:	da6e      	bge.n	80ae <_realloc_r+0x12a>
    7fd0:	f240 1984 	movw	r9, #388	; 0x184
    7fd4:	eb0a 010b 	add.w	r1, sl, fp
    7fd8:	f2c2 0900 	movt	r9, #8192	; 0x2000
    7fdc:	f8d9 e008 	ldr.w	lr, [r9, #8]
    7fe0:	458e      	cmp	lr, r1
    7fe2:	f000 8138 	beq.w	8256 <_realloc_r+0x2d2>
    7fe6:	684e      	ldr	r6, [r1, #4]
    7fe8:	f026 0c01 	bic.w	ip, r6, #1
    7fec:	448c      	add	ip, r1
    7fee:	f8dc c004 	ldr.w	ip, [ip, #4]
    7ff2:	f01c 0f01 	tst.w	ip, #1
    7ff6:	bf18      	it	ne
    7ff8:	4601      	movne	r1, r0
    7ffa:	d073      	beq.n	80e4 <_realloc_r+0x160>
    7ffc:	f013 0f01 	tst.w	r3, #1
    8000:	f040 8092 	bne.w	8128 <_realloc_r+0x1a4>
    8004:	f855 3c08 	ldr.w	r3, [r5, #-8]
    8008:	ebc3 0c0a 	rsb	ip, r3, sl
    800c:	f8dc 3004 	ldr.w	r3, [ip, #4]
    8010:	f023 0303 	bic.w	r3, r3, #3
    8014:	2900      	cmp	r1, #0
    8016:	f000 80d1 	beq.w	81bc <_realloc_r+0x238>
    801a:	4571      	cmp	r1, lr
    801c:	f000 814f 	beq.w	82be <_realloc_r+0x33a>
    8020:	445b      	add	r3, fp
    8022:	18c6      	adds	r6, r0, r3
    8024:	42b2      	cmp	r2, r6
    8026:	f300 80ca 	bgt.w	81be <_realloc_r+0x23a>
    802a:	68cb      	ldr	r3, [r1, #12]
    802c:	46e0      	mov	r8, ip
    802e:	6889      	ldr	r1, [r1, #8]
    8030:	f1ab 0204 	sub.w	r2, fp, #4
    8034:	2a24      	cmp	r2, #36	; 0x24
    8036:	60cb      	str	r3, [r1, #12]
    8038:	6099      	str	r1, [r3, #8]
    803a:	f8dc 300c 	ldr.w	r3, [ip, #12]
    803e:	f858 1f08 	ldr.w	r1, [r8, #8]!
    8042:	60cb      	str	r3, [r1, #12]
    8044:	6099      	str	r1, [r3, #8]
    8046:	f200 8196 	bhi.w	8376 <_realloc_r+0x3f2>
    804a:	2a13      	cmp	r2, #19
    804c:	4641      	mov	r1, r8
    804e:	d921      	bls.n	8094 <_realloc_r+0x110>
    8050:	462b      	mov	r3, r5
    8052:	f10c 0110 	add.w	r1, ip, #16
    8056:	f853 0b04 	ldr.w	r0, [r3], #4
    805a:	f8cc 0008 	str.w	r0, [ip, #8]
    805e:	6868      	ldr	r0, [r5, #4]
    8060:	1d1d      	adds	r5, r3, #4
    8062:	2a1b      	cmp	r2, #27
    8064:	f8cc 000c 	str.w	r0, [ip, #12]
    8068:	d914      	bls.n	8094 <_realloc_r+0x110>
    806a:	6858      	ldr	r0, [r3, #4]
    806c:	1d2b      	adds	r3, r5, #4
    806e:	f10c 0118 	add.w	r1, ip, #24
    8072:	f8cc 0010 	str.w	r0, [ip, #16]
    8076:	6868      	ldr	r0, [r5, #4]
    8078:	3508      	adds	r5, #8
    807a:	2a24      	cmp	r2, #36	; 0x24
    807c:	f8cc 0014 	str.w	r0, [ip, #20]
    8080:	d108      	bne.n	8094 <_realloc_r+0x110>
    8082:	685b      	ldr	r3, [r3, #4]
    8084:	f10c 0120 	add.w	r1, ip, #32
    8088:	f8cc 3018 	str.w	r3, [ip, #24]
    808c:	686b      	ldr	r3, [r5, #4]
    808e:	3508      	adds	r5, #8
    8090:	f8cc 301c 	str.w	r3, [ip, #28]
    8094:	462a      	mov	r2, r5
    8096:	460b      	mov	r3, r1
    8098:	46e2      	mov	sl, ip
    809a:	f852 0b04 	ldr.w	r0, [r2], #4
    809e:	f843 0b04 	str.w	r0, [r3], #4
    80a2:	6868      	ldr	r0, [r5, #4]
    80a4:	6048      	str	r0, [r1, #4]
    80a6:	6852      	ldr	r2, [r2, #4]
    80a8:	605a      	str	r2, [r3, #4]
    80aa:	f8dc 3004 	ldr.w	r3, [ip, #4]
    80ae:	1b30      	subs	r0, r6, r4
    80b0:	280f      	cmp	r0, #15
    80b2:	d824      	bhi.n	80fe <_realloc_r+0x17a>
    80b4:	eb0a 0206 	add.w	r2, sl, r6
    80b8:	f003 0301 	and.w	r3, r3, #1
    80bc:	ea43 0606 	orr.w	r6, r3, r6
    80c0:	f8ca 6004 	str.w	r6, [sl, #4]
    80c4:	6853      	ldr	r3, [r2, #4]
    80c6:	f043 0301 	orr.w	r3, r3, #1
    80ca:	6053      	str	r3, [r2, #4]
    80cc:	4638      	mov	r0, r7
    80ce:	f7fe f993 	bl	63f8 <__malloc_unlock>
    80d2:	4640      	mov	r0, r8
    80d4:	b003      	add	sp, #12
    80d6:	e8bd 8ff0 	ldmia.w	sp!, {r4, r5, r6, r7, r8, r9, sl, fp, pc}
    80da:	f024 0407 	bic.w	r4, r4, #7
    80de:	4622      	mov	r2, r4
    80e0:	0fe0      	lsrs	r0, r4, #31
    80e2:	e766      	b.n	7fb2 <_realloc_r+0x2e>
    80e4:	f026 0003 	bic.w	r0, r6, #3
    80e8:	eb00 060b 	add.w	r6, r0, fp
    80ec:	42b2      	cmp	r2, r6
    80ee:	dc85      	bgt.n	7ffc <_realloc_r+0x78>
    80f0:	68ca      	ldr	r2, [r1, #12]
    80f2:	f10a 0808 	add.w	r8, sl, #8
    80f6:	6889      	ldr	r1, [r1, #8]
    80f8:	60ca      	str	r2, [r1, #12]
    80fa:	6091      	str	r1, [r2, #8]
    80fc:	e7d7      	b.n	80ae <_realloc_r+0x12a>
    80fe:	eb0a 0104 	add.w	r1, sl, r4
    8102:	f003 0301 	and.w	r3, r3, #1
    8106:	180a      	adds	r2, r1, r0
    8108:	ea43 0404 	orr.w	r4, r3, r4
    810c:	f040 0001 	orr.w	r0, r0, #1
    8110:	f8ca 4004 	str.w	r4, [sl, #4]
    8114:	6048      	str	r0, [r1, #4]
    8116:	4638      	mov	r0, r7
    8118:	6853      	ldr	r3, [r2, #4]
    811a:	3108      	adds	r1, #8
    811c:	f043 0301 	orr.w	r3, r3, #1
    8120:	6053      	str	r3, [r2, #4]
    8122:	f7ff fdb9 	bl	7c98 <_free_r>
    8126:	e7d1      	b.n	80cc <_realloc_r+0x148>
    8128:	4641      	mov	r1, r8
    812a:	4638      	mov	r0, r7
    812c:	f7fd fdb8 	bl	5ca0 <_malloc_r>
    8130:	4680      	mov	r8, r0
    8132:	2800      	cmp	r0, #0
    8134:	d0ca      	beq.n	80cc <_realloc_r+0x148>
    8136:	f8da 3004 	ldr.w	r3, [sl, #4]
    813a:	f1a0 0208 	sub.w	r2, r0, #8
    813e:	f023 0101 	bic.w	r1, r3, #1
    8142:	4451      	add	r1, sl
    8144:	428a      	cmp	r2, r1
    8146:	f000 810e 	beq.w	8366 <_realloc_r+0x3e2>
    814a:	f1ab 0204 	sub.w	r2, fp, #4
    814e:	2a24      	cmp	r2, #36	; 0x24
    8150:	f200 80b1 	bhi.w	82b6 <_realloc_r+0x332>
    8154:	2a13      	cmp	r2, #19
    8156:	4629      	mov	r1, r5
    8158:	4603      	mov	r3, r0
    815a:	d91d      	bls.n	8198 <_realloc_r+0x214>
    815c:	462c      	mov	r4, r5
    815e:	f854 3b04 	ldr.w	r3, [r4], #4
    8162:	1d21      	adds	r1, r4, #4
    8164:	f840 3b04 	str.w	r3, [r0], #4
    8168:	1d03      	adds	r3, r0, #4
    816a:	686e      	ldr	r6, [r5, #4]
    816c:	2a1b      	cmp	r2, #27
    816e:	f8c8 6004 	str.w	r6, [r8, #4]
    8172:	d911      	bls.n	8198 <_realloc_r+0x214>
    8174:	f8d4 e004 	ldr.w	lr, [r4, #4]
    8178:	1d0e      	adds	r6, r1, #4
    817a:	1d1c      	adds	r4, r3, #4
    817c:	f8c0 e004 	str.w	lr, [r0, #4]
    8180:	6848      	ldr	r0, [r1, #4]
    8182:	3108      	adds	r1, #8
    8184:	6058      	str	r0, [r3, #4]
    8186:	3308      	adds	r3, #8
    8188:	2a24      	cmp	r2, #36	; 0x24
    818a:	d105      	bne.n	8198 <_realloc_r+0x214>
    818c:	6872      	ldr	r2, [r6, #4]
    818e:	6062      	str	r2, [r4, #4]
    8190:	684a      	ldr	r2, [r1, #4]
    8192:	3108      	adds	r1, #8
    8194:	605a      	str	r2, [r3, #4]
    8196:	3308      	adds	r3, #8
    8198:	4608      	mov	r0, r1
    819a:	461a      	mov	r2, r3
    819c:	f850 4b04 	ldr.w	r4, [r0], #4
    81a0:	f842 4b04 	str.w	r4, [r2], #4
    81a4:	6849      	ldr	r1, [r1, #4]
    81a6:	6059      	str	r1, [r3, #4]
    81a8:	6843      	ldr	r3, [r0, #4]
    81aa:	6053      	str	r3, [r2, #4]
    81ac:	4638      	mov	r0, r7
    81ae:	4629      	mov	r1, r5
    81b0:	f7ff fd72 	bl	7c98 <_free_r>
    81b4:	4638      	mov	r0, r7
    81b6:	f7fe f91f 	bl	63f8 <__malloc_unlock>
    81ba:	e78a      	b.n	80d2 <_realloc_r+0x14e>
    81bc:	445b      	add	r3, fp
    81be:	429a      	cmp	r2, r3
    81c0:	dcb2      	bgt.n	8128 <_realloc_r+0x1a4>
    81c2:	46e0      	mov	r8, ip
    81c4:	f8dc 100c 	ldr.w	r1, [ip, #12]
    81c8:	f1ab 0204 	sub.w	r2, fp, #4
    81cc:	f858 0f08 	ldr.w	r0, [r8, #8]!
    81d0:	2a24      	cmp	r2, #36	; 0x24
    81d2:	60c1      	str	r1, [r0, #12]
    81d4:	6088      	str	r0, [r1, #8]
    81d6:	d85f      	bhi.n	8298 <_realloc_r+0x314>
    81d8:	2a13      	cmp	r2, #19
    81da:	4640      	mov	r0, r8
    81dc:	d921      	bls.n	8222 <_realloc_r+0x29e>
    81de:	4629      	mov	r1, r5
    81e0:	f10c 0010 	add.w	r0, ip, #16
    81e4:	f851 6b04 	ldr.w	r6, [r1], #4
    81e8:	f8cc 6008 	str.w	r6, [ip, #8]
    81ec:	686e      	ldr	r6, [r5, #4]
    81ee:	1d0d      	adds	r5, r1, #4
    81f0:	2a1b      	cmp	r2, #27
    81f2:	f8cc 600c 	str.w	r6, [ip, #12]
    81f6:	d914      	bls.n	8222 <_realloc_r+0x29e>
    81f8:	684e      	ldr	r6, [r1, #4]
    81fa:	1d29      	adds	r1, r5, #4
    81fc:	f10c 0018 	add.w	r0, ip, #24
    8200:	f8cc 6010 	str.w	r6, [ip, #16]
    8204:	686e      	ldr	r6, [r5, #4]
    8206:	3508      	adds	r5, #8
    8208:	2a24      	cmp	r2, #36	; 0x24
    820a:	f8cc 6014 	str.w	r6, [ip, #20]
    820e:	d108      	bne.n	8222 <_realloc_r+0x29e>
    8210:	684a      	ldr	r2, [r1, #4]
    8212:	f10c 0020 	add.w	r0, ip, #32
    8216:	f8cc 2018 	str.w	r2, [ip, #24]
    821a:	686a      	ldr	r2, [r5, #4]
    821c:	3508      	adds	r5, #8
    821e:	f8cc 201c 	str.w	r2, [ip, #28]
    8222:	4629      	mov	r1, r5
    8224:	461e      	mov	r6, r3
    8226:	4602      	mov	r2, r0
    8228:	46e2      	mov	sl, ip
    822a:	f851 3b04 	ldr.w	r3, [r1], #4
    822e:	f842 3b04 	str.w	r3, [r2], #4
    8232:	686b      	ldr	r3, [r5, #4]
    8234:	6043      	str	r3, [r0, #4]
    8236:	684b      	ldr	r3, [r1, #4]
    8238:	6053      	str	r3, [r2, #4]
    823a:	f8dc 3004 	ldr.w	r3, [ip, #4]
    823e:	e736      	b.n	80ae <_realloc_r+0x12a>
    8240:	4611      	mov	r1, r2
    8242:	b003      	add	sp, #12
    8244:	e8bd 4ff0 	ldmia.w	sp!, {r4, r5, r6, r7, r8, r9, sl, fp, lr}
    8248:	f7fd bd2a 	b.w	5ca0 <_malloc_r>
    824c:	230c      	movs	r3, #12
    824e:	f04f 0800 	mov.w	r8, #0
    8252:	603b      	str	r3, [r7, #0]
    8254:	e73d      	b.n	80d2 <_realloc_r+0x14e>
    8256:	f8de 0004 	ldr.w	r0, [lr, #4]
    825a:	f104 0c10 	add.w	ip, r4, #16
    825e:	f020 0003 	bic.w	r0, r0, #3
    8262:	eb00 010b 	add.w	r1, r0, fp
    8266:	4561      	cmp	r1, ip
    8268:	bfb8      	it	lt
    826a:	4671      	movlt	r1, lr
    826c:	f6ff aec6 	blt.w	7ffc <_realloc_r+0x78>
    8270:	eb0a 0304 	add.w	r3, sl, r4
    8274:	1b0a      	subs	r2, r1, r4
    8276:	f042 0201 	orr.w	r2, r2, #1
    827a:	f8c9 3008 	str.w	r3, [r9, #8]
    827e:	605a      	str	r2, [r3, #4]
    8280:	4638      	mov	r0, r7
    8282:	f8da 2004 	ldr.w	r2, [sl, #4]
    8286:	46a8      	mov	r8, r5
    8288:	f002 0301 	and.w	r3, r2, #1
    828c:	431c      	orrs	r4, r3
    828e:	f8ca 4004 	str.w	r4, [sl, #4]
    8292:	f7fe f8b1 	bl	63f8 <__malloc_unlock>
    8296:	e71c      	b.n	80d2 <_realloc_r+0x14e>
    8298:	4640      	mov	r0, r8
    829a:	4629      	mov	r1, r5
    829c:	9301      	str	r3, [sp, #4]
    829e:	f8cd c000 	str.w	ip, [sp]
    82a2:	f7ff fdc5 	bl	7e30 <memmove>
    82a6:	f8dd c000 	ldr.w	ip, [sp]
    82aa:	9b01      	ldr	r3, [sp, #4]
    82ac:	46e2      	mov	sl, ip
    82ae:	461e      	mov	r6, r3
    82b0:	f8dc 3004 	ldr.w	r3, [ip, #4]
    82b4:	e6fb      	b.n	80ae <_realloc_r+0x12a>
    82b6:	4629      	mov	r1, r5
    82b8:	f7ff fdba 	bl	7e30 <memmove>
    82bc:	e776      	b.n	81ac <_realloc_r+0x228>
    82be:	445b      	add	r3, fp
    82c0:	f104 0110 	add.w	r1, r4, #16
    82c4:	18c6      	adds	r6, r0, r3
    82c6:	428e      	cmp	r6, r1
    82c8:	f6ff af79 	blt.w	81be <_realloc_r+0x23a>
    82cc:	46e0      	mov	r8, ip
    82ce:	f8dc 300c 	ldr.w	r3, [ip, #12]
    82d2:	f1ab 0204 	sub.w	r2, fp, #4
    82d6:	f858 1f08 	ldr.w	r1, [r8, #8]!
    82da:	2a24      	cmp	r2, #36	; 0x24
    82dc:	60cb      	str	r3, [r1, #12]
    82de:	6099      	str	r1, [r3, #8]
    82e0:	d855      	bhi.n	838e <_realloc_r+0x40a>
    82e2:	2a13      	cmp	r2, #19
    82e4:	4641      	mov	r1, r8
    82e6:	d921      	bls.n	832c <_realloc_r+0x3a8>
    82e8:	462b      	mov	r3, r5
    82ea:	f10c 0110 	add.w	r1, ip, #16
    82ee:	f853 0b04 	ldr.w	r0, [r3], #4
    82f2:	f8cc 0008 	str.w	r0, [ip, #8]
    82f6:	6868      	ldr	r0, [r5, #4]
    82f8:	1d1d      	adds	r5, r3, #4
    82fa:	2a1b      	cmp	r2, #27
    82fc:	f8cc 000c 	str.w	r0, [ip, #12]
    8300:	d914      	bls.n	832c <_realloc_r+0x3a8>
    8302:	6858      	ldr	r0, [r3, #4]
    8304:	1d2b      	adds	r3, r5, #4
    8306:	f10c 0118 	add.w	r1, ip, #24
    830a:	f8cc 0010 	str.w	r0, [ip, #16]
    830e:	6868      	ldr	r0, [r5, #4]
    8310:	3508      	adds	r5, #8
    8312:	2a24      	cmp	r2, #36	; 0x24
    8314:	f8cc 0014 	str.w	r0, [ip, #20]
    8318:	d108      	bne.n	832c <_realloc_r+0x3a8>
    831a:	685b      	ldr	r3, [r3, #4]
    831c:	f10c 0120 	add.w	r1, ip, #32
    8320:	f8cc 3018 	str.w	r3, [ip, #24]
    8324:	686b      	ldr	r3, [r5, #4]
    8326:	3508      	adds	r5, #8
    8328:	f8cc 301c 	str.w	r3, [ip, #28]
    832c:	462a      	mov	r2, r5
    832e:	460b      	mov	r3, r1
    8330:	f852 0b04 	ldr.w	r0, [r2], #4
    8334:	f843 0b04 	str.w	r0, [r3], #4
    8338:	6868      	ldr	r0, [r5, #4]
    833a:	6048      	str	r0, [r1, #4]
    833c:	6852      	ldr	r2, [r2, #4]
    833e:	605a      	str	r2, [r3, #4]
    8340:	eb0c 0304 	add.w	r3, ip, r4
    8344:	1b32      	subs	r2, r6, r4
    8346:	f042 0201 	orr.w	r2, r2, #1
    834a:	f8c9 3008 	str.w	r3, [r9, #8]
    834e:	605a      	str	r2, [r3, #4]
    8350:	4638      	mov	r0, r7
    8352:	f8dc 2004 	ldr.w	r2, [ip, #4]
    8356:	f002 0301 	and.w	r3, r2, #1
    835a:	431c      	orrs	r4, r3
    835c:	f8cc 4004 	str.w	r4, [ip, #4]
    8360:	f7fe f84a 	bl	63f8 <__malloc_unlock>
    8364:	e6b5      	b.n	80d2 <_realloc_r+0x14e>
    8366:	f850 6c04 	ldr.w	r6, [r0, #-4]
    836a:	f10a 0808 	add.w	r8, sl, #8
    836e:	f026 0603 	bic.w	r6, r6, #3
    8372:	445e      	add	r6, fp
    8374:	e69b      	b.n	80ae <_realloc_r+0x12a>
    8376:	4640      	mov	r0, r8
    8378:	4629      	mov	r1, r5
    837a:	f8cd c000 	str.w	ip, [sp]
    837e:	f7ff fd57 	bl	7e30 <memmove>
    8382:	f8dd c000 	ldr.w	ip, [sp]
    8386:	46e2      	mov	sl, ip
    8388:	f8dc 3004 	ldr.w	r3, [ip, #4]
    838c:	e68f      	b.n	80ae <_realloc_r+0x12a>
    838e:	4640      	mov	r0, r8
    8390:	4629      	mov	r1, r5
    8392:	f8cd c000 	str.w	ip, [sp]
    8396:	f7ff fd4b 	bl	7e30 <memmove>
    839a:	f8dd c000 	ldr.w	ip, [sp]
    839e:	e7cf      	b.n	8340 <_realloc_r+0x3bc>

000083a0 <__aeabi_uidiv>:
    83a0:	1e4a      	subs	r2, r1, #1
    83a2:	bf08      	it	eq
    83a4:	4770      	bxeq	lr
    83a6:	f0c0 8124 	bcc.w	85f2 <__aeabi_uidiv+0x252>
    83aa:	4288      	cmp	r0, r1
    83ac:	f240 8116 	bls.w	85dc <__aeabi_uidiv+0x23c>
    83b0:	4211      	tst	r1, r2
    83b2:	f000 8117 	beq.w	85e4 <__aeabi_uidiv+0x244>
    83b6:	fab0 f380 	clz	r3, r0
    83ba:	fab1 f281 	clz	r2, r1
    83be:	eba2 0303 	sub.w	r3, r2, r3
    83c2:	f1c3 031f 	rsb	r3, r3, #31
    83c6:	a204      	add	r2, pc, #16	; (adr r2, 83d8 <__aeabi_uidiv+0x38>)
    83c8:	eb02 1303 	add.w	r3, r2, r3, lsl #4
    83cc:	f04f 0200 	mov.w	r2, #0
    83d0:	469f      	mov	pc, r3
    83d2:	bf00      	nop
    83d4:	f3af 8000 	nop.w
    83d8:	ebb0 7fc1 	cmp.w	r0, r1, lsl #31
    83dc:	bf00      	nop
    83de:	eb42 0202 	adc.w	r2, r2, r2
    83e2:	bf28      	it	cs
    83e4:	eba0 70c1 	subcs.w	r0, r0, r1, lsl #31
    83e8:	ebb0 7f81 	cmp.w	r0, r1, lsl #30
    83ec:	bf00      	nop
    83ee:	eb42 0202 	adc.w	r2, r2, r2
    83f2:	bf28      	it	cs
    83f4:	eba0 7081 	subcs.w	r0, r0, r1, lsl #30
    83f8:	ebb0 7f41 	cmp.w	r0, r1, lsl #29
    83fc:	bf00      	nop
    83fe:	eb42 0202 	adc.w	r2, r2, r2
    8402:	bf28      	it	cs
    8404:	eba0 7041 	subcs.w	r0, r0, r1, lsl #29
    8408:	ebb0 7f01 	cmp.w	r0, r1, lsl #28
    840c:	bf00      	nop
    840e:	eb42 0202 	adc.w	r2, r2, r2
    8412:	bf28      	it	cs
    8414:	eba0 7001 	subcs.w	r0, r0, r1, lsl #28
    8418:	ebb0 6fc1 	cmp.w	r0, r1, lsl #27
    841c:	bf00      	nop
    841e:	eb42 0202 	adc.w	r2, r2, r2
    8422:	bf28      	it	cs
    8424:	eba0 60c1 	subcs.w	r0, r0, r1, lsl #27
    8428:	ebb0 6f81 	cmp.w	r0, r1, lsl #26
    842c:	bf00      	nop
    842e:	eb42 0202 	adc.w	r2, r2, r2
    8432:	bf28      	it	cs
    8434:	eba0 6081 	subcs.w	r0, r0, r1, lsl #26
    8438:	ebb0 6f41 	cmp.w	r0, r1, lsl #25
    843c:	bf00      	nop
    843e:	eb42 0202 	adc.w	r2, r2, r2
    8442:	bf28      	it	cs
    8444:	eba0 6041 	subcs.w	r0, r0, r1, lsl #25
    8448:	ebb0 6f01 	cmp.w	r0, r1, lsl #24
    844c:	bf00      	nop
    844e:	eb42 0202 	adc.w	r2, r2, r2
    8452:	bf28      	it	cs
    8454:	eba0 6001 	subcs.w	r0, r0, r1, lsl #24
    8458:	ebb0 5fc1 	cmp.w	r0, r1, lsl #23
    845c:	bf00      	nop
    845e:	eb42 0202 	adc.w	r2, r2, r2
    8462:	bf28      	it	cs
    8464:	eba0 50c1 	subcs.w	r0, r0, r1, lsl #23
    8468:	ebb0 5f81 	cmp.w	r0, r1, lsl #22
    846c:	bf00      	nop
    846e:	eb42 0202 	adc.w	r2, r2, r2
    8472:	bf28      	it	cs
    8474:	eba0 5081 	subcs.w	r0, r0, r1, lsl #22
    8478:	ebb0 5f41 	cmp.w	r0, r1, lsl #21
    847c:	bf00      	nop
    847e:	eb42 0202 	adc.w	r2, r2, r2
    8482:	bf28      	it	cs
    8484:	eba0 5041 	subcs.w	r0, r0, r1, lsl #21
    8488:	ebb0 5f01 	cmp.w	r0, r1, lsl #20
    848c:	bf00      	nop
    848e:	eb42 0202 	adc.w	r2, r2, r2
    8492:	bf28      	it	cs
    8494:	eba0 5001 	subcs.w	r0, r0, r1, lsl #20
    8498:	ebb0 4fc1 	cmp.w	r0, r1, lsl #19
    849c:	bf00      	nop
    849e:	eb42 0202 	adc.w	r2, r2, r2
    84a2:	bf28      	it	cs
    84a4:	eba0 40c1 	subcs.w	r0, r0, r1, lsl #19
    84a8:	ebb0 4f81 	cmp.w	r0, r1, lsl #18
    84ac:	bf00      	nop
    84ae:	eb42 0202 	adc.w	r2, r2, r2
    84b2:	bf28      	it	cs
    84b4:	eba0 4081 	subcs.w	r0, r0, r1, lsl #18
    84b8:	ebb0 4f41 	cmp.w	r0, r1, lsl #17
    84bc:	bf00      	nop
    84be:	eb42 0202 	adc.w	r2, r2, r2
    84c2:	bf28      	it	cs
    84c4:	eba0 4041 	subcs.w	r0, r0, r1, lsl #17
    84c8:	ebb0 4f01 	cmp.w	r0, r1, lsl #16
    84cc:	bf00      	nop
    84ce:	eb42 0202 	adc.w	r2, r2, r2
    84d2:	bf28      	it	cs
    84d4:	eba0 4001 	subcs.w	r0, r0, r1, lsl #16
    84d8:	ebb0 3fc1 	cmp.w	r0, r1, lsl #15
    84dc:	bf00      	nop
    84de:	eb42 0202 	adc.w	r2, r2, r2
    84e2:	bf28      	it	cs
    84e4:	eba0 30c1 	subcs.w	r0, r0, r1, lsl #15
    84e8:	ebb0 3f81 	cmp.w	r0, r1, lsl #14
    84ec:	bf00      	nop
    84ee:	eb42 0202 	adc.w	r2, r2, r2
    84f2:	bf28      	it	cs
    84f4:	eba0 3081 	subcs.w	r0, r0, r1, lsl #14
    84f8:	ebb0 3f41 	cmp.w	r0, r1, lsl #13
    84fc:	bf00      	nop
    84fe:	eb42 0202 	adc.w	r2, r2, r2
    8502:	bf28      	it	cs
    8504:	eba0 3041 	subcs.w	r0, r0, r1, lsl #13
    8508:	ebb0 3f01 	cmp.w	r0, r1, lsl #12
    850c:	bf00      	nop
    850e:	eb42 0202 	adc.w	r2, r2, r2
    8512:	bf28      	it	cs
    8514:	eba0 3001 	subcs.w	r0, r0, r1, lsl #12
    8518:	ebb0 2fc1 	cmp.w	r0, r1, lsl #11
    851c:	bf00      	nop
    851e:	eb42 0202 	adc.w	r2, r2, r2
    8522:	bf28      	it	cs
    8524:	eba0 20c1 	subcs.w	r0, r0, r1, lsl #11
    8528:	ebb0 2f81 	cmp.w	r0, r1, lsl #10
    852c:	bf00      	nop
    852e:	eb42 0202 	adc.w	r2, r2, r2
    8532:	bf28      	it	cs
    8534:	eba0 2081 	subcs.w	r0, r0, r1, lsl #10
    8538:	ebb0 2f41 	cmp.w	r0, r1, lsl #9
    853c:	bf00      	nop
    853e:	eb42 0202 	adc.w	r2, r2, r2
    8542:	bf28      	it	cs
    8544:	eba0 2041 	subcs.w	r0, r0, r1, lsl #9
    8548:	ebb0 2f01 	cmp.w	r0, r1, lsl #8
    854c:	bf00      	nop
    854e:	eb42 0202 	adc.w	r2, r2, r2
    8552:	bf28      	it	cs
    8554:	eba0 2001 	subcs.w	r0, r0, r1, lsl #8
    8558:	ebb0 1fc1 	cmp.w	r0, r1, lsl #7
    855c:	bf00      	nop
    855e:	eb42 0202 	adc.w	r2, r2, r2
    8562:	bf28      	it	cs
    8564:	eba0 10c1 	subcs.w	r0, r0, r1, lsl #7
    8568:	ebb0 1f81 	cmp.w	r0, r1, lsl #6
    856c:	bf00      	nop
    856e:	eb42 0202 	adc.w	r2, r2, r2
    8572:	bf28      	it	cs
    8574:	eba0 1081 	subcs.w	r0, r0, r1, lsl #6
    8578:	ebb0 1f41 	cmp.w	r0, r1, lsl #5
    857c:	bf00      	nop
    857e:	eb42 0202 	adc.w	r2, r2, r2
    8582:	bf28      	it	cs
    8584:	eba0 1041 	subcs.w	r0, r0, r1, lsl #5
    8588:	ebb0 1f01 	cmp.w	r0, r1, lsl #4
    858c:	bf00      	nop
    858e:	eb42 0202 	adc.w	r2, r2, r2
    8592:	bf28      	it	cs
    8594:	eba0 1001 	subcs.w	r0, r0, r1, lsl #4
    8598:	ebb0 0fc1 	cmp.w	r0, r1, lsl #3
    859c:	bf00      	nop
    859e:	eb42 0202 	adc.w	r2, r2, r2
    85a2:	bf28      	it	cs
    85a4:	eba0 00c1 	subcs.w	r0, r0, r1, lsl #3
    85a8:	ebb0 0f81 	cmp.w	r0, r1, lsl #2
    85ac:	bf00      	nop
    85ae:	eb42 0202 	adc.w	r2, r2, r2
    85b2:	bf28      	it	cs
    85b4:	eba0 0081 	subcs.w	r0, r0, r1, lsl #2
    85b8:	ebb0 0f41 	cmp.w	r0, r1, lsl #1
    85bc:	bf00      	nop
    85be:	eb42 0202 	adc.w	r2, r2, r2
    85c2:	bf28      	it	cs
    85c4:	eba0 0041 	subcs.w	r0, r0, r1, lsl #1
    85c8:	ebb0 0f01 	cmp.w	r0, r1
    85cc:	bf00      	nop
    85ce:	eb42 0202 	adc.w	r2, r2, r2
    85d2:	bf28      	it	cs
    85d4:	eba0 0001 	subcs.w	r0, r0, r1
    85d8:	4610      	mov	r0, r2
    85da:	4770      	bx	lr
    85dc:	bf0c      	ite	eq
    85de:	2001      	moveq	r0, #1
    85e0:	2000      	movne	r0, #0
    85e2:	4770      	bx	lr
    85e4:	fab1 f281 	clz	r2, r1
    85e8:	f1c2 021f 	rsb	r2, r2, #31
    85ec:	fa20 f002 	lsr.w	r0, r0, r2
    85f0:	4770      	bx	lr
    85f2:	b108      	cbz	r0, 85f8 <__aeabi_uidiv+0x258>
    85f4:	f04f 30ff 	mov.w	r0, #4294967295
    85f8:	f000 b80e 	b.w	8618 <__aeabi_idiv0>

000085fc <__aeabi_uidivmod>:
    85fc:	2900      	cmp	r1, #0
    85fe:	d0f8      	beq.n	85f2 <__aeabi_uidiv+0x252>
    8600:	e92d 4003 	stmdb	sp!, {r0, r1, lr}
    8604:	f7ff fecc 	bl	83a0 <__aeabi_uidiv>
    8608:	e8bd 4006 	ldmia.w	sp!, {r1, r2, lr}
    860c:	fb02 f300 	mul.w	r3, r2, r0
    8610:	eba1 0103 	sub.w	r1, r1, r3
    8614:	4770      	bx	lr
    8616:	bf00      	nop

00008618 <__aeabi_idiv0>:
    8618:	4770      	bx	lr
    861a:	bf00      	nop

0000861c <__aeabi_drsub>:
    861c:	f081 4100 	eor.w	r1, r1, #2147483648	; 0x80000000
    8620:	e002      	b.n	8628 <__adddf3>
    8622:	bf00      	nop

00008624 <__aeabi_dsub>:
    8624:	f083 4300 	eor.w	r3, r3, #2147483648	; 0x80000000

00008628 <__adddf3>:
    8628:	b530      	push	{r4, r5, lr}
    862a:	ea4f 0441 	mov.w	r4, r1, lsl #1
    862e:	ea4f 0543 	mov.w	r5, r3, lsl #1
    8632:	ea94 0f05 	teq	r4, r5
    8636:	bf08      	it	eq
    8638:	ea90 0f02 	teqeq	r0, r2
    863c:	bf1f      	itttt	ne
    863e:	ea54 0c00 	orrsne.w	ip, r4, r0
    8642:	ea55 0c02 	orrsne.w	ip, r5, r2
    8646:	ea7f 5c64 	mvnsne.w	ip, r4, asr #21
    864a:	ea7f 5c65 	mvnsne.w	ip, r5, asr #21
    864e:	f000 80e2 	beq.w	8816 <__adddf3+0x1ee>
    8652:	ea4f 5454 	mov.w	r4, r4, lsr #21
    8656:	ebd4 5555 	rsbs	r5, r4, r5, lsr #21
    865a:	bfb8      	it	lt
    865c:	426d      	neglt	r5, r5
    865e:	dd0c      	ble.n	867a <__adddf3+0x52>
    8660:	442c      	add	r4, r5
    8662:	ea80 0202 	eor.w	r2, r0, r2
    8666:	ea81 0303 	eor.w	r3, r1, r3
    866a:	ea82 0000 	eor.w	r0, r2, r0
    866e:	ea83 0101 	eor.w	r1, r3, r1
    8672:	ea80 0202 	eor.w	r2, r0, r2
    8676:	ea81 0303 	eor.w	r3, r1, r3
    867a:	2d36      	cmp	r5, #54	; 0x36
    867c:	bf88      	it	hi
    867e:	bd30      	pophi	{r4, r5, pc}
    8680:	f011 4f00 	tst.w	r1, #2147483648	; 0x80000000
    8684:	ea4f 3101 	mov.w	r1, r1, lsl #12
    8688:	f44f 1c80 	mov.w	ip, #1048576	; 0x100000
    868c:	ea4c 3111 	orr.w	r1, ip, r1, lsr #12
    8690:	d002      	beq.n	8698 <__adddf3+0x70>
    8692:	4240      	negs	r0, r0
    8694:	eb61 0141 	sbc.w	r1, r1, r1, lsl #1
    8698:	f013 4f00 	tst.w	r3, #2147483648	; 0x80000000
    869c:	ea4f 3303 	mov.w	r3, r3, lsl #12
    86a0:	ea4c 3313 	orr.w	r3, ip, r3, lsr #12
    86a4:	d002      	beq.n	86ac <__adddf3+0x84>
    86a6:	4252      	negs	r2, r2
    86a8:	eb63 0343 	sbc.w	r3, r3, r3, lsl #1
    86ac:	ea94 0f05 	teq	r4, r5
    86b0:	f000 80a7 	beq.w	8802 <__adddf3+0x1da>
    86b4:	f1a4 0401 	sub.w	r4, r4, #1
    86b8:	f1d5 0e20 	rsbs	lr, r5, #32
    86bc:	db0d      	blt.n	86da <__adddf3+0xb2>
    86be:	fa02 fc0e 	lsl.w	ip, r2, lr
    86c2:	fa22 f205 	lsr.w	r2, r2, r5
    86c6:	1880      	adds	r0, r0, r2
    86c8:	f141 0100 	adc.w	r1, r1, #0
    86cc:	fa03 f20e 	lsl.w	r2, r3, lr
    86d0:	1880      	adds	r0, r0, r2
    86d2:	fa43 f305 	asr.w	r3, r3, r5
    86d6:	4159      	adcs	r1, r3
    86d8:	e00e      	b.n	86f8 <__adddf3+0xd0>
    86da:	f1a5 0520 	sub.w	r5, r5, #32
    86de:	f10e 0e20 	add.w	lr, lr, #32
    86e2:	2a01      	cmp	r2, #1
    86e4:	fa03 fc0e 	lsl.w	ip, r3, lr
    86e8:	bf28      	it	cs
    86ea:	f04c 0c02 	orrcs.w	ip, ip, #2
    86ee:	fa43 f305 	asr.w	r3, r3, r5
    86f2:	18c0      	adds	r0, r0, r3
    86f4:	eb51 71e3 	adcs.w	r1, r1, r3, asr #31
    86f8:	f001 4500 	and.w	r5, r1, #2147483648	; 0x80000000
    86fc:	d507      	bpl.n	870e <__adddf3+0xe6>
    86fe:	f04f 0e00 	mov.w	lr, #0
    8702:	f1dc 0c00 	rsbs	ip, ip, #0
    8706:	eb7e 0000 	sbcs.w	r0, lr, r0
    870a:	eb6e 0101 	sbc.w	r1, lr, r1
    870e:	f5b1 1f80 	cmp.w	r1, #1048576	; 0x100000
    8712:	d31b      	bcc.n	874c <__adddf3+0x124>
    8714:	f5b1 1f00 	cmp.w	r1, #2097152	; 0x200000
    8718:	d30c      	bcc.n	8734 <__adddf3+0x10c>
    871a:	0849      	lsrs	r1, r1, #1
    871c:	ea5f 0030 	movs.w	r0, r0, rrx
    8720:	ea4f 0c3c 	mov.w	ip, ip, rrx
    8724:	f104 0401 	add.w	r4, r4, #1
    8728:	ea4f 5244 	mov.w	r2, r4, lsl #21
    872c:	f512 0f80 	cmn.w	r2, #4194304	; 0x400000
    8730:	f080 809a 	bcs.w	8868 <__adddf3+0x240>
    8734:	f1bc 4f00 	cmp.w	ip, #2147483648	; 0x80000000
    8738:	bf08      	it	eq
    873a:	ea5f 0c50 	movseq.w	ip, r0, lsr #1
    873e:	f150 0000 	adcs.w	r0, r0, #0
    8742:	eb41 5104 	adc.w	r1, r1, r4, lsl #20
    8746:	ea41 0105 	orr.w	r1, r1, r5
    874a:	bd30      	pop	{r4, r5, pc}
    874c:	ea5f 0c4c 	movs.w	ip, ip, lsl #1
    8750:	4140      	adcs	r0, r0
    8752:	eb41 0101 	adc.w	r1, r1, r1
    8756:	f411 1f80 	tst.w	r1, #1048576	; 0x100000
    875a:	f1a4 0401 	sub.w	r4, r4, #1
    875e:	d1e9      	bne.n	8734 <__adddf3+0x10c>
    8760:	f091 0f00 	teq	r1, #0
    8764:	bf04      	itt	eq
    8766:	4601      	moveq	r1, r0
    8768:	2000      	moveq	r0, #0
    876a:	fab1 f381 	clz	r3, r1
    876e:	bf08      	it	eq
    8770:	3320      	addeq	r3, #32
    8772:	f1a3 030b 	sub.w	r3, r3, #11
    8776:	f1b3 0220 	subs.w	r2, r3, #32
    877a:	da0c      	bge.n	8796 <__adddf3+0x16e>
    877c:	320c      	adds	r2, #12
    877e:	dd08      	ble.n	8792 <__adddf3+0x16a>
    8780:	f102 0c14 	add.w	ip, r2, #20
    8784:	f1c2 020c 	rsb	r2, r2, #12
    8788:	fa01 f00c 	lsl.w	r0, r1, ip
    878c:	fa21 f102 	lsr.w	r1, r1, r2
    8790:	e00c      	b.n	87ac <__adddf3+0x184>
    8792:	f102 0214 	add.w	r2, r2, #20
    8796:	bfd8      	it	le
    8798:	f1c2 0c20 	rsble	ip, r2, #32
    879c:	fa01 f102 	lsl.w	r1, r1, r2
    87a0:	fa20 fc0c 	lsr.w	ip, r0, ip
    87a4:	bfdc      	itt	le
    87a6:	ea41 010c 	orrle.w	r1, r1, ip
    87aa:	4090      	lslle	r0, r2
    87ac:	1ae4      	subs	r4, r4, r3
    87ae:	bfa2      	ittt	ge
    87b0:	eb01 5104 	addge.w	r1, r1, r4, lsl #20
    87b4:	4329      	orrge	r1, r5
    87b6:	bd30      	popge	{r4, r5, pc}
    87b8:	ea6f 0404 	mvn.w	r4, r4
    87bc:	3c1f      	subs	r4, #31
    87be:	da1c      	bge.n	87fa <__adddf3+0x1d2>
    87c0:	340c      	adds	r4, #12
    87c2:	dc0e      	bgt.n	87e2 <__adddf3+0x1ba>
    87c4:	f104 0414 	add.w	r4, r4, #20
    87c8:	f1c4 0220 	rsb	r2, r4, #32
    87cc:	fa20 f004 	lsr.w	r0, r0, r4
    87d0:	fa01 f302 	lsl.w	r3, r1, r2
    87d4:	ea40 0003 	orr.w	r0, r0, r3
    87d8:	fa21 f304 	lsr.w	r3, r1, r4
    87dc:	ea45 0103 	orr.w	r1, r5, r3
    87e0:	bd30      	pop	{r4, r5, pc}
    87e2:	f1c4 040c 	rsb	r4, r4, #12
    87e6:	f1c4 0220 	rsb	r2, r4, #32
    87ea:	fa20 f002 	lsr.w	r0, r0, r2
    87ee:	fa01 f304 	lsl.w	r3, r1, r4
    87f2:	ea40 0003 	orr.w	r0, r0, r3
    87f6:	4629      	mov	r1, r5
    87f8:	bd30      	pop	{r4, r5, pc}
    87fa:	fa21 f004 	lsr.w	r0, r1, r4
    87fe:	4629      	mov	r1, r5
    8800:	bd30      	pop	{r4, r5, pc}
    8802:	f094 0f00 	teq	r4, #0
    8806:	f483 1380 	eor.w	r3, r3, #1048576	; 0x100000
    880a:	bf06      	itte	eq
    880c:	f481 1180 	eoreq.w	r1, r1, #1048576	; 0x100000
    8810:	3401      	addeq	r4, #1
    8812:	3d01      	subne	r5, #1
    8814:	e74e      	b.n	86b4 <__adddf3+0x8c>
    8816:	ea7f 5c64 	mvns.w	ip, r4, asr #21
    881a:	bf18      	it	ne
    881c:	ea7f 5c65 	mvnsne.w	ip, r5, asr #21
    8820:	d029      	beq.n	8876 <__adddf3+0x24e>
    8822:	ea94 0f05 	teq	r4, r5
    8826:	bf08      	it	eq
    8828:	ea90 0f02 	teqeq	r0, r2
    882c:	d005      	beq.n	883a <__adddf3+0x212>
    882e:	ea54 0c00 	orrs.w	ip, r4, r0
    8832:	bf04      	itt	eq
    8834:	4619      	moveq	r1, r3
    8836:	4610      	moveq	r0, r2
    8838:	bd30      	pop	{r4, r5, pc}
    883a:	ea91 0f03 	teq	r1, r3
    883e:	bf1e      	ittt	ne
    8840:	2100      	movne	r1, #0
    8842:	2000      	movne	r0, #0
    8844:	bd30      	popne	{r4, r5, pc}
    8846:	ea5f 5c54 	movs.w	ip, r4, lsr #21
    884a:	d105      	bne.n	8858 <__adddf3+0x230>
    884c:	0040      	lsls	r0, r0, #1
    884e:	4149      	adcs	r1, r1
    8850:	bf28      	it	cs
    8852:	f041 4100 	orrcs.w	r1, r1, #2147483648	; 0x80000000
    8856:	bd30      	pop	{r4, r5, pc}
    8858:	f514 0480 	adds.w	r4, r4, #4194304	; 0x400000
    885c:	bf3c      	itt	cc
    885e:	f501 1180 	addcc.w	r1, r1, #1048576	; 0x100000
    8862:	bd30      	popcc	{r4, r5, pc}
    8864:	f001 4500 	and.w	r5, r1, #2147483648	; 0x80000000
    8868:	f045 41fe 	orr.w	r1, r5, #2130706432	; 0x7f000000
    886c:	f441 0170 	orr.w	r1, r1, #15728640	; 0xf00000
    8870:	f04f 0000 	mov.w	r0, #0
    8874:	bd30      	pop	{r4, r5, pc}
    8876:	ea7f 5c64 	mvns.w	ip, r4, asr #21
    887a:	bf1a      	itte	ne
    887c:	4619      	movne	r1, r3
    887e:	4610      	movne	r0, r2
    8880:	ea7f 5c65 	mvnseq.w	ip, r5, asr #21
    8884:	bf1c      	itt	ne
    8886:	460b      	movne	r3, r1
    8888:	4602      	movne	r2, r0
    888a:	ea50 3401 	orrs.w	r4, r0, r1, lsl #12
    888e:	bf06      	itte	eq
    8890:	ea52 3503 	orrseq.w	r5, r2, r3, lsl #12
    8894:	ea91 0f03 	teqeq	r1, r3
    8898:	f441 2100 	orrne.w	r1, r1, #524288	; 0x80000
    889c:	bd30      	pop	{r4, r5, pc}
    889e:	bf00      	nop

000088a0 <__aeabi_ui2d>:
    88a0:	f090 0f00 	teq	r0, #0
    88a4:	bf04      	itt	eq
    88a6:	2100      	moveq	r1, #0
    88a8:	4770      	bxeq	lr
    88aa:	b530      	push	{r4, r5, lr}
    88ac:	f44f 6480 	mov.w	r4, #1024	; 0x400
    88b0:	f104 0432 	add.w	r4, r4, #50	; 0x32
    88b4:	f04f 0500 	mov.w	r5, #0
    88b8:	f04f 0100 	mov.w	r1, #0
    88bc:	e750      	b.n	8760 <__adddf3+0x138>
    88be:	bf00      	nop

000088c0 <__aeabi_i2d>:
    88c0:	f090 0f00 	teq	r0, #0
    88c4:	bf04      	itt	eq
    88c6:	2100      	moveq	r1, #0
    88c8:	4770      	bxeq	lr
    88ca:	b530      	push	{r4, r5, lr}
    88cc:	f44f 6480 	mov.w	r4, #1024	; 0x400
    88d0:	f104 0432 	add.w	r4, r4, #50	; 0x32
    88d4:	f010 4500 	ands.w	r5, r0, #2147483648	; 0x80000000
    88d8:	bf48      	it	mi
    88da:	4240      	negmi	r0, r0
    88dc:	f04f 0100 	mov.w	r1, #0
    88e0:	e73e      	b.n	8760 <__adddf3+0x138>
    88e2:	bf00      	nop

000088e4 <__aeabi_f2d>:
    88e4:	0042      	lsls	r2, r0, #1
    88e6:	ea4f 01e2 	mov.w	r1, r2, asr #3
    88ea:	ea4f 0131 	mov.w	r1, r1, rrx
    88ee:	ea4f 7002 	mov.w	r0, r2, lsl #28
    88f2:	bf1f      	itttt	ne
    88f4:	f012 437f 	andsne.w	r3, r2, #4278190080	; 0xff000000
    88f8:	f093 4f7f 	teqne	r3, #4278190080	; 0xff000000
    88fc:	f081 5160 	eorne.w	r1, r1, #939524096	; 0x38000000
    8900:	4770      	bxne	lr
    8902:	f092 0f00 	teq	r2, #0
    8906:	bf14      	ite	ne
    8908:	f093 4f7f 	teqne	r3, #4278190080	; 0xff000000
    890c:	4770      	bxeq	lr
    890e:	b530      	push	{r4, r5, lr}
    8910:	f44f 7460 	mov.w	r4, #896	; 0x380
    8914:	f001 4500 	and.w	r5, r1, #2147483648	; 0x80000000
    8918:	f021 4100 	bic.w	r1, r1, #2147483648	; 0x80000000
    891c:	e720      	b.n	8760 <__adddf3+0x138>
    891e:	bf00      	nop

00008920 <__aeabi_ul2d>:
    8920:	ea50 0201 	orrs.w	r2, r0, r1
    8924:	bf08      	it	eq
    8926:	4770      	bxeq	lr
    8928:	b530      	push	{r4, r5, lr}
    892a:	f04f 0500 	mov.w	r5, #0
    892e:	e00a      	b.n	8946 <__aeabi_l2d+0x16>

00008930 <__aeabi_l2d>:
    8930:	ea50 0201 	orrs.w	r2, r0, r1
    8934:	bf08      	it	eq
    8936:	4770      	bxeq	lr
    8938:	b530      	push	{r4, r5, lr}
    893a:	f011 4500 	ands.w	r5, r1, #2147483648	; 0x80000000
    893e:	d502      	bpl.n	8946 <__aeabi_l2d+0x16>
    8940:	4240      	negs	r0, r0
    8942:	eb61 0141 	sbc.w	r1, r1, r1, lsl #1
    8946:	f44f 6480 	mov.w	r4, #1024	; 0x400
    894a:	f104 0432 	add.w	r4, r4, #50	; 0x32
    894e:	ea5f 5c91 	movs.w	ip, r1, lsr #22
    8952:	f43f aedc 	beq.w	870e <__adddf3+0xe6>
    8956:	f04f 0203 	mov.w	r2, #3
    895a:	ea5f 0cdc 	movs.w	ip, ip, lsr #3
    895e:	bf18      	it	ne
    8960:	3203      	addne	r2, #3
    8962:	ea5f 0cdc 	movs.w	ip, ip, lsr #3
    8966:	bf18      	it	ne
    8968:	3203      	addne	r2, #3
    896a:	eb02 02dc 	add.w	r2, r2, ip, lsr #3
    896e:	f1c2 0320 	rsb	r3, r2, #32
    8972:	fa00 fc03 	lsl.w	ip, r0, r3
    8976:	fa20 f002 	lsr.w	r0, r0, r2
    897a:	fa01 fe03 	lsl.w	lr, r1, r3
    897e:	ea40 000e 	orr.w	r0, r0, lr
    8982:	fa21 f102 	lsr.w	r1, r1, r2
    8986:	4414      	add	r4, r2
    8988:	e6c1      	b.n	870e <__adddf3+0xe6>
    898a:	bf00      	nop

0000898c <__aeabi_dmul>:
    898c:	b570      	push	{r4, r5, r6, lr}
    898e:	f04f 0cff 	mov.w	ip, #255	; 0xff
    8992:	f44c 6ce0 	orr.w	ip, ip, #1792	; 0x700
    8996:	ea1c 5411 	ands.w	r4, ip, r1, lsr #20
    899a:	bf1d      	ittte	ne
    899c:	ea1c 5513 	andsne.w	r5, ip, r3, lsr #20
    89a0:	ea94 0f0c 	teqne	r4, ip
    89a4:	ea95 0f0c 	teqne	r5, ip
    89a8:	f000 f8de 	bleq	8b68 <__aeabi_dmul+0x1dc>
    89ac:	442c      	add	r4, r5
    89ae:	ea81 0603 	eor.w	r6, r1, r3
    89b2:	ea21 514c 	bic.w	r1, r1, ip, lsl #21
    89b6:	ea23 534c 	bic.w	r3, r3, ip, lsl #21
    89ba:	ea50 3501 	orrs.w	r5, r0, r1, lsl #12
    89be:	bf18      	it	ne
    89c0:	ea52 3503 	orrsne.w	r5, r2, r3, lsl #12
    89c4:	f441 1180 	orr.w	r1, r1, #1048576	; 0x100000
    89c8:	f443 1380 	orr.w	r3, r3, #1048576	; 0x100000
    89cc:	d038      	beq.n	8a40 <__aeabi_dmul+0xb4>
    89ce:	fba0 ce02 	umull	ip, lr, r0, r2
    89d2:	f04f 0500 	mov.w	r5, #0
    89d6:	fbe1 e502 	umlal	lr, r5, r1, r2
    89da:	f006 4200 	and.w	r2, r6, #2147483648	; 0x80000000
    89de:	fbe0 e503 	umlal	lr, r5, r0, r3
    89e2:	f04f 0600 	mov.w	r6, #0
    89e6:	fbe1 5603 	umlal	r5, r6, r1, r3
    89ea:	f09c 0f00 	teq	ip, #0
    89ee:	bf18      	it	ne
    89f0:	f04e 0e01 	orrne.w	lr, lr, #1
    89f4:	f1a4 04ff 	sub.w	r4, r4, #255	; 0xff
    89f8:	f5b6 7f00 	cmp.w	r6, #512	; 0x200
    89fc:	f564 7440 	sbc.w	r4, r4, #768	; 0x300
    8a00:	d204      	bcs.n	8a0c <__aeabi_dmul+0x80>
    8a02:	ea5f 0e4e 	movs.w	lr, lr, lsl #1
    8a06:	416d      	adcs	r5, r5
    8a08:	eb46 0606 	adc.w	r6, r6, r6
    8a0c:	ea42 21c6 	orr.w	r1, r2, r6, lsl #11
    8a10:	ea41 5155 	orr.w	r1, r1, r5, lsr #21
    8a14:	ea4f 20c5 	mov.w	r0, r5, lsl #11
    8a18:	ea40 505e 	orr.w	r0, r0, lr, lsr #21
    8a1c:	ea4f 2ece 	mov.w	lr, lr, lsl #11
    8a20:	f1b4 0cfd 	subs.w	ip, r4, #253	; 0xfd
    8a24:	bf88      	it	hi
    8a26:	f5bc 6fe0 	cmphi.w	ip, #1792	; 0x700
    8a2a:	d81e      	bhi.n	8a6a <__aeabi_dmul+0xde>
    8a2c:	f1be 4f00 	cmp.w	lr, #2147483648	; 0x80000000
    8a30:	bf08      	it	eq
    8a32:	ea5f 0e50 	movseq.w	lr, r0, lsr #1
    8a36:	f150 0000 	adcs.w	r0, r0, #0
    8a3a:	eb41 5104 	adc.w	r1, r1, r4, lsl #20
    8a3e:	bd70      	pop	{r4, r5, r6, pc}
    8a40:	f006 4600 	and.w	r6, r6, #2147483648	; 0x80000000
    8a44:	ea46 0101 	orr.w	r1, r6, r1
    8a48:	ea40 0002 	orr.w	r0, r0, r2
    8a4c:	ea81 0103 	eor.w	r1, r1, r3
    8a50:	ebb4 045c 	subs.w	r4, r4, ip, lsr #1
    8a54:	bfc2      	ittt	gt
    8a56:	ebd4 050c 	rsbsgt	r5, r4, ip
    8a5a:	ea41 5104 	orrgt.w	r1, r1, r4, lsl #20
    8a5e:	bd70      	popgt	{r4, r5, r6, pc}
    8a60:	f441 1180 	orr.w	r1, r1, #1048576	; 0x100000
    8a64:	f04f 0e00 	mov.w	lr, #0
    8a68:	3c01      	subs	r4, #1
    8a6a:	f300 80ab 	bgt.w	8bc4 <__aeabi_dmul+0x238>
    8a6e:	f114 0f36 	cmn.w	r4, #54	; 0x36
    8a72:	bfde      	ittt	le
    8a74:	2000      	movle	r0, #0
    8a76:	f001 4100 	andle.w	r1, r1, #2147483648	; 0x80000000
    8a7a:	bd70      	pople	{r4, r5, r6, pc}
    8a7c:	f1c4 0400 	rsb	r4, r4, #0
    8a80:	3c20      	subs	r4, #32
    8a82:	da35      	bge.n	8af0 <__aeabi_dmul+0x164>
    8a84:	340c      	adds	r4, #12
    8a86:	dc1b      	bgt.n	8ac0 <__aeabi_dmul+0x134>
    8a88:	f104 0414 	add.w	r4, r4, #20
    8a8c:	f1c4 0520 	rsb	r5, r4, #32
    8a90:	fa00 f305 	lsl.w	r3, r0, r5
    8a94:	fa20 f004 	lsr.w	r0, r0, r4
    8a98:	fa01 f205 	lsl.w	r2, r1, r5
    8a9c:	ea40 0002 	orr.w	r0, r0, r2
    8aa0:	f001 4200 	and.w	r2, r1, #2147483648	; 0x80000000
    8aa4:	f021 4100 	bic.w	r1, r1, #2147483648	; 0x80000000
    8aa8:	eb10 70d3 	adds.w	r0, r0, r3, lsr #31
    8aac:	fa21 f604 	lsr.w	r6, r1, r4
    8ab0:	eb42 0106 	adc.w	r1, r2, r6
    8ab4:	ea5e 0e43 	orrs.w	lr, lr, r3, lsl #1
    8ab8:	bf08      	it	eq
    8aba:	ea20 70d3 	biceq.w	r0, r0, r3, lsr #31
    8abe:	bd70      	pop	{r4, r5, r6, pc}
    8ac0:	f1c4 040c 	rsb	r4, r4, #12
    8ac4:	f1c4 0520 	rsb	r5, r4, #32
    8ac8:	fa00 f304 	lsl.w	r3, r0, r4
    8acc:	fa20 f005 	lsr.w	r0, r0, r5
    8ad0:	fa01 f204 	lsl.w	r2, r1, r4
    8ad4:	ea40 0002 	orr.w	r0, r0, r2
    8ad8:	f001 4100 	and.w	r1, r1, #2147483648	; 0x80000000
    8adc:	eb10 70d3 	adds.w	r0, r0, r3, lsr #31
    8ae0:	f141 0100 	adc.w	r1, r1, #0
    8ae4:	ea5e 0e43 	orrs.w	lr, lr, r3, lsl #1
    8ae8:	bf08      	it	eq
    8aea:	ea20 70d3 	biceq.w	r0, r0, r3, lsr #31
    8aee:	bd70      	pop	{r4, r5, r6, pc}
    8af0:	f1c4 0520 	rsb	r5, r4, #32
    8af4:	fa00 f205 	lsl.w	r2, r0, r5
    8af8:	ea4e 0e02 	orr.w	lr, lr, r2
    8afc:	fa20 f304 	lsr.w	r3, r0, r4
    8b00:	fa01 f205 	lsl.w	r2, r1, r5
    8b04:	ea43 0302 	orr.w	r3, r3, r2
    8b08:	fa21 f004 	lsr.w	r0, r1, r4
    8b0c:	f001 4100 	and.w	r1, r1, #2147483648	; 0x80000000
    8b10:	fa21 f204 	lsr.w	r2, r1, r4
    8b14:	ea20 0002 	bic.w	r0, r0, r2
    8b18:	eb00 70d3 	add.w	r0, r0, r3, lsr #31
    8b1c:	ea5e 0e43 	orrs.w	lr, lr, r3, lsl #1
    8b20:	bf08      	it	eq
    8b22:	ea20 70d3 	biceq.w	r0, r0, r3, lsr #31
    8b26:	bd70      	pop	{r4, r5, r6, pc}
    8b28:	f094 0f00 	teq	r4, #0
    8b2c:	d10f      	bne.n	8b4e <__aeabi_dmul+0x1c2>
    8b2e:	f001 4600 	and.w	r6, r1, #2147483648	; 0x80000000
    8b32:	0040      	lsls	r0, r0, #1
    8b34:	eb41 0101 	adc.w	r1, r1, r1
    8b38:	f411 1f80 	tst.w	r1, #1048576	; 0x100000
    8b3c:	bf08      	it	eq
    8b3e:	3c01      	subeq	r4, #1
    8b40:	d0f7      	beq.n	8b32 <__aeabi_dmul+0x1a6>
    8b42:	ea41 0106 	orr.w	r1, r1, r6
    8b46:	f095 0f00 	teq	r5, #0
    8b4a:	bf18      	it	ne
    8b4c:	4770      	bxne	lr
    8b4e:	f003 4600 	and.w	r6, r3, #2147483648	; 0x80000000
    8b52:	0052      	lsls	r2, r2, #1
    8b54:	eb43 0303 	adc.w	r3, r3, r3
    8b58:	f413 1f80 	tst.w	r3, #1048576	; 0x100000
    8b5c:	bf08      	it	eq
    8b5e:	3d01      	subeq	r5, #1
    8b60:	d0f7      	beq.n	8b52 <__aeabi_dmul+0x1c6>
    8b62:	ea43 0306 	orr.w	r3, r3, r6
    8b66:	4770      	bx	lr
    8b68:	ea94 0f0c 	teq	r4, ip
    8b6c:	ea0c 5513 	and.w	r5, ip, r3, lsr #20
    8b70:	bf18      	it	ne
    8b72:	ea95 0f0c 	teqne	r5, ip
    8b76:	d00c      	beq.n	8b92 <__aeabi_dmul+0x206>
    8b78:	ea50 0641 	orrs.w	r6, r0, r1, lsl #1
    8b7c:	bf18      	it	ne
    8b7e:	ea52 0643 	orrsne.w	r6, r2, r3, lsl #1
    8b82:	d1d1      	bne.n	8b28 <__aeabi_dmul+0x19c>
    8b84:	ea81 0103 	eor.w	r1, r1, r3
    8b88:	f001 4100 	and.w	r1, r1, #2147483648	; 0x80000000
    8b8c:	f04f 0000 	mov.w	r0, #0
    8b90:	bd70      	pop	{r4, r5, r6, pc}
    8b92:	ea50 0641 	orrs.w	r6, r0, r1, lsl #1
    8b96:	bf06      	itte	eq
    8b98:	4610      	moveq	r0, r2
    8b9a:	4619      	moveq	r1, r3
    8b9c:	ea52 0643 	orrsne.w	r6, r2, r3, lsl #1
    8ba0:	d019      	beq.n	8bd6 <__aeabi_dmul+0x24a>
    8ba2:	ea94 0f0c 	teq	r4, ip
    8ba6:	d102      	bne.n	8bae <__aeabi_dmul+0x222>
    8ba8:	ea50 3601 	orrs.w	r6, r0, r1, lsl #12
    8bac:	d113      	bne.n	8bd6 <__aeabi_dmul+0x24a>
    8bae:	ea95 0f0c 	teq	r5, ip
    8bb2:	d105      	bne.n	8bc0 <__aeabi_dmul+0x234>
    8bb4:	ea52 3603 	orrs.w	r6, r2, r3, lsl #12
    8bb8:	bf1c      	itt	ne
    8bba:	4610      	movne	r0, r2
    8bbc:	4619      	movne	r1, r3
    8bbe:	d10a      	bne.n	8bd6 <__aeabi_dmul+0x24a>
    8bc0:	ea81 0103 	eor.w	r1, r1, r3
    8bc4:	f001 4100 	and.w	r1, r1, #2147483648	; 0x80000000
    8bc8:	f041 41fe 	orr.w	r1, r1, #2130706432	; 0x7f000000
    8bcc:	f441 0170 	orr.w	r1, r1, #15728640	; 0xf00000
    8bd0:	f04f 0000 	mov.w	r0, #0
    8bd4:	bd70      	pop	{r4, r5, r6, pc}
    8bd6:	f041 41fe 	orr.w	r1, r1, #2130706432	; 0x7f000000
    8bda:	f441 0178 	orr.w	r1, r1, #16252928	; 0xf80000
    8bde:	bd70      	pop	{r4, r5, r6, pc}

00008be0 <__aeabi_ddiv>:
    8be0:	b570      	push	{r4, r5, r6, lr}
    8be2:	f04f 0cff 	mov.w	ip, #255	; 0xff
    8be6:	f44c 6ce0 	orr.w	ip, ip, #1792	; 0x700
    8bea:	ea1c 5411 	ands.w	r4, ip, r1, lsr #20
    8bee:	bf1d      	ittte	ne
    8bf0:	ea1c 5513 	andsne.w	r5, ip, r3, lsr #20
    8bf4:	ea94 0f0c 	teqne	r4, ip
    8bf8:	ea95 0f0c 	teqne	r5, ip
    8bfc:	f000 f8a7 	bleq	8d4e <__aeabi_ddiv+0x16e>
    8c00:	eba4 0405 	sub.w	r4, r4, r5
    8c04:	ea81 0e03 	eor.w	lr, r1, r3
    8c08:	ea52 3503 	orrs.w	r5, r2, r3, lsl #12
    8c0c:	ea4f 3101 	mov.w	r1, r1, lsl #12
    8c10:	f000 8088 	beq.w	8d24 <__aeabi_ddiv+0x144>
    8c14:	ea4f 3303 	mov.w	r3, r3, lsl #12
    8c18:	f04f 5580 	mov.w	r5, #268435456	; 0x10000000
    8c1c:	ea45 1313 	orr.w	r3, r5, r3, lsr #4
    8c20:	ea43 6312 	orr.w	r3, r3, r2, lsr #24
    8c24:	ea4f 2202 	mov.w	r2, r2, lsl #8
    8c28:	ea45 1511 	orr.w	r5, r5, r1, lsr #4
    8c2c:	ea45 6510 	orr.w	r5, r5, r0, lsr #24
    8c30:	ea4f 2600 	mov.w	r6, r0, lsl #8
    8c34:	f00e 4100 	and.w	r1, lr, #2147483648	; 0x80000000
    8c38:	429d      	cmp	r5, r3
    8c3a:	bf08      	it	eq
    8c3c:	4296      	cmpeq	r6, r2
    8c3e:	f144 04fd 	adc.w	r4, r4, #253	; 0xfd
    8c42:	f504 7440 	add.w	r4, r4, #768	; 0x300
    8c46:	d202      	bcs.n	8c4e <__aeabi_ddiv+0x6e>
    8c48:	085b      	lsrs	r3, r3, #1
    8c4a:	ea4f 0232 	mov.w	r2, r2, rrx
    8c4e:	1ab6      	subs	r6, r6, r2
    8c50:	eb65 0503 	sbc.w	r5, r5, r3
    8c54:	085b      	lsrs	r3, r3, #1
    8c56:	ea4f 0232 	mov.w	r2, r2, rrx
    8c5a:	f44f 1080 	mov.w	r0, #1048576	; 0x100000
    8c5e:	f44f 2c00 	mov.w	ip, #524288	; 0x80000
    8c62:	ebb6 0e02 	subs.w	lr, r6, r2
    8c66:	eb75 0e03 	sbcs.w	lr, r5, r3
    8c6a:	bf22      	ittt	cs
    8c6c:	1ab6      	subcs	r6, r6, r2
    8c6e:	4675      	movcs	r5, lr
    8c70:	ea40 000c 	orrcs.w	r0, r0, ip
    8c74:	085b      	lsrs	r3, r3, #1
    8c76:	ea4f 0232 	mov.w	r2, r2, rrx
    8c7a:	ebb6 0e02 	subs.w	lr, r6, r2
    8c7e:	eb75 0e03 	sbcs.w	lr, r5, r3
    8c82:	bf22      	ittt	cs
    8c84:	1ab6      	subcs	r6, r6, r2
    8c86:	4675      	movcs	r5, lr
    8c88:	ea40 005c 	orrcs.w	r0, r0, ip, lsr #1
    8c8c:	085b      	lsrs	r3, r3, #1
    8c8e:	ea4f 0232 	mov.w	r2, r2, rrx
    8c92:	ebb6 0e02 	subs.w	lr, r6, r2
    8c96:	eb75 0e03 	sbcs.w	lr, r5, r3
    8c9a:	bf22      	ittt	cs
    8c9c:	1ab6      	subcs	r6, r6, r2
    8c9e:	4675      	movcs	r5, lr
    8ca0:	ea40 009c 	orrcs.w	r0, r0, ip, lsr #2
    8ca4:	085b      	lsrs	r3, r3, #1
    8ca6:	ea4f 0232 	mov.w	r2, r2, rrx
    8caa:	ebb6 0e02 	subs.w	lr, r6, r2
    8cae:	eb75 0e03 	sbcs.w	lr, r5, r3
    8cb2:	bf22      	ittt	cs
    8cb4:	1ab6      	subcs	r6, r6, r2
    8cb6:	4675      	movcs	r5, lr
    8cb8:	ea40 00dc 	orrcs.w	r0, r0, ip, lsr #3
    8cbc:	ea55 0e06 	orrs.w	lr, r5, r6
    8cc0:	d018      	beq.n	8cf4 <__aeabi_ddiv+0x114>
    8cc2:	ea4f 1505 	mov.w	r5, r5, lsl #4
    8cc6:	ea45 7516 	orr.w	r5, r5, r6, lsr #28
    8cca:	ea4f 1606 	mov.w	r6, r6, lsl #4
    8cce:	ea4f 03c3 	mov.w	r3, r3, lsl #3
    8cd2:	ea43 7352 	orr.w	r3, r3, r2, lsr #29
    8cd6:	ea4f 02c2 	mov.w	r2, r2, lsl #3
    8cda:	ea5f 1c1c 	movs.w	ip, ip, lsr #4
    8cde:	d1c0      	bne.n	8c62 <__aeabi_ddiv+0x82>
    8ce0:	f411 1f80 	tst.w	r1, #1048576	; 0x100000
    8ce4:	d10b      	bne.n	8cfe <__aeabi_ddiv+0x11e>
    8ce6:	ea41 0100 	orr.w	r1, r1, r0
    8cea:	f04f 0000 	mov.w	r0, #0
    8cee:	f04f 4c00 	mov.w	ip, #2147483648	; 0x80000000
    8cf2:	e7b6      	b.n	8c62 <__aeabi_ddiv+0x82>
    8cf4:	f411 1f80 	tst.w	r1, #1048576	; 0x100000
    8cf8:	bf04      	itt	eq
    8cfa:	4301      	orreq	r1, r0
    8cfc:	2000      	moveq	r0, #0
    8cfe:	f1b4 0cfd 	subs.w	ip, r4, #253	; 0xfd
    8d02:	bf88      	it	hi
    8d04:	f5bc 6fe0 	cmphi.w	ip, #1792	; 0x700
    8d08:	f63f aeaf 	bhi.w	8a6a <__aeabi_dmul+0xde>
    8d0c:	ebb5 0c03 	subs.w	ip, r5, r3
    8d10:	bf04      	itt	eq
    8d12:	ebb6 0c02 	subseq.w	ip, r6, r2
    8d16:	ea5f 0c50 	movseq.w	ip, r0, lsr #1
    8d1a:	f150 0000 	adcs.w	r0, r0, #0
    8d1e:	eb41 5104 	adc.w	r1, r1, r4, lsl #20
    8d22:	bd70      	pop	{r4, r5, r6, pc}
    8d24:	f00e 4e00 	and.w	lr, lr, #2147483648	; 0x80000000
    8d28:	ea4e 3111 	orr.w	r1, lr, r1, lsr #12
    8d2c:	eb14 045c 	adds.w	r4, r4, ip, lsr #1
    8d30:	bfc2      	ittt	gt
    8d32:	ebd4 050c 	rsbsgt	r5, r4, ip
    8d36:	ea41 5104 	orrgt.w	r1, r1, r4, lsl #20
    8d3a:	bd70      	popgt	{r4, r5, r6, pc}
    8d3c:	f441 1180 	orr.w	r1, r1, #1048576	; 0x100000
    8d40:	f04f 0e00 	mov.w	lr, #0
    8d44:	3c01      	subs	r4, #1
    8d46:	e690      	b.n	8a6a <__aeabi_dmul+0xde>
    8d48:	ea45 0e06 	orr.w	lr, r5, r6
    8d4c:	e68d      	b.n	8a6a <__aeabi_dmul+0xde>
    8d4e:	ea0c 5513 	and.w	r5, ip, r3, lsr #20
    8d52:	ea94 0f0c 	teq	r4, ip
    8d56:	bf08      	it	eq
    8d58:	ea95 0f0c 	teqeq	r5, ip
    8d5c:	f43f af3b 	beq.w	8bd6 <__aeabi_dmul+0x24a>
    8d60:	ea94 0f0c 	teq	r4, ip
    8d64:	d10a      	bne.n	8d7c <__aeabi_ddiv+0x19c>
    8d66:	ea50 3401 	orrs.w	r4, r0, r1, lsl #12
    8d6a:	f47f af34 	bne.w	8bd6 <__aeabi_dmul+0x24a>
    8d6e:	ea95 0f0c 	teq	r5, ip
    8d72:	f47f af25 	bne.w	8bc0 <__aeabi_dmul+0x234>
    8d76:	4610      	mov	r0, r2
    8d78:	4619      	mov	r1, r3
    8d7a:	e72c      	b.n	8bd6 <__aeabi_dmul+0x24a>
    8d7c:	ea95 0f0c 	teq	r5, ip
    8d80:	d106      	bne.n	8d90 <__aeabi_ddiv+0x1b0>
    8d82:	ea52 3503 	orrs.w	r5, r2, r3, lsl #12
    8d86:	f43f aefd 	beq.w	8b84 <__aeabi_dmul+0x1f8>
    8d8a:	4610      	mov	r0, r2
    8d8c:	4619      	mov	r1, r3
    8d8e:	e722      	b.n	8bd6 <__aeabi_dmul+0x24a>
    8d90:	ea50 0641 	orrs.w	r6, r0, r1, lsl #1
    8d94:	bf18      	it	ne
    8d96:	ea52 0643 	orrsne.w	r6, r2, r3, lsl #1
    8d9a:	f47f aec5 	bne.w	8b28 <__aeabi_dmul+0x19c>
    8d9e:	ea50 0441 	orrs.w	r4, r0, r1, lsl #1
    8da2:	f47f af0d 	bne.w	8bc0 <__aeabi_dmul+0x234>
    8da6:	ea52 0543 	orrs.w	r5, r2, r3, lsl #1
    8daa:	f47f aeeb 	bne.w	8b84 <__aeabi_dmul+0x1f8>
    8dae:	e712      	b.n	8bd6 <__aeabi_dmul+0x24a>

00008db0 <__gedf2>:
    8db0:	f04f 3cff 	mov.w	ip, #4294967295
    8db4:	e006      	b.n	8dc4 <__cmpdf2+0x4>
    8db6:	bf00      	nop

00008db8 <__ledf2>:
    8db8:	f04f 0c01 	mov.w	ip, #1
    8dbc:	e002      	b.n	8dc4 <__cmpdf2+0x4>
    8dbe:	bf00      	nop

00008dc0 <__cmpdf2>:
    8dc0:	f04f 0c01 	mov.w	ip, #1
    8dc4:	f84d cd04 	str.w	ip, [sp, #-4]!
    8dc8:	ea4f 0c41 	mov.w	ip, r1, lsl #1
    8dcc:	ea7f 5c6c 	mvns.w	ip, ip, asr #21
    8dd0:	ea4f 0c43 	mov.w	ip, r3, lsl #1
    8dd4:	bf18      	it	ne
    8dd6:	ea7f 5c6c 	mvnsne.w	ip, ip, asr #21
    8dda:	d01b      	beq.n	8e14 <__cmpdf2+0x54>
    8ddc:	b001      	add	sp, #4
    8dde:	ea50 0c41 	orrs.w	ip, r0, r1, lsl #1
    8de2:	bf0c      	ite	eq
    8de4:	ea52 0c43 	orrseq.w	ip, r2, r3, lsl #1
    8de8:	ea91 0f03 	teqne	r1, r3
    8dec:	bf02      	ittt	eq
    8dee:	ea90 0f02 	teqeq	r0, r2
    8df2:	2000      	moveq	r0, #0
    8df4:	4770      	bxeq	lr
    8df6:	f110 0f00 	cmn.w	r0, #0
    8dfa:	ea91 0f03 	teq	r1, r3
    8dfe:	bf58      	it	pl
    8e00:	4299      	cmppl	r1, r3
    8e02:	bf08      	it	eq
    8e04:	4290      	cmpeq	r0, r2
    8e06:	bf2c      	ite	cs
    8e08:	17d8      	asrcs	r0, r3, #31
    8e0a:	ea6f 70e3 	mvncc.w	r0, r3, asr #31
    8e0e:	f040 0001 	orr.w	r0, r0, #1
    8e12:	4770      	bx	lr
    8e14:	ea4f 0c41 	mov.w	ip, r1, lsl #1
    8e18:	ea7f 5c6c 	mvns.w	ip, ip, asr #21
    8e1c:	d102      	bne.n	8e24 <__cmpdf2+0x64>
    8e1e:	ea50 3c01 	orrs.w	ip, r0, r1, lsl #12
    8e22:	d107      	bne.n	8e34 <__cmpdf2+0x74>
    8e24:	ea4f 0c43 	mov.w	ip, r3, lsl #1
    8e28:	ea7f 5c6c 	mvns.w	ip, ip, asr #21
    8e2c:	d1d6      	bne.n	8ddc <__cmpdf2+0x1c>
    8e2e:	ea52 3c03 	orrs.w	ip, r2, r3, lsl #12
    8e32:	d0d3      	beq.n	8ddc <__cmpdf2+0x1c>
    8e34:	f85d 0b04 	ldr.w	r0, [sp], #4
    8e38:	4770      	bx	lr
    8e3a:	bf00      	nop

00008e3c <__aeabi_cdrcmple>:
    8e3c:	4684      	mov	ip, r0
    8e3e:	4610      	mov	r0, r2
    8e40:	4662      	mov	r2, ip
    8e42:	468c      	mov	ip, r1
    8e44:	4619      	mov	r1, r3
    8e46:	4663      	mov	r3, ip
    8e48:	e000      	b.n	8e4c <__aeabi_cdcmpeq>
    8e4a:	bf00      	nop

00008e4c <__aeabi_cdcmpeq>:
    8e4c:	b501      	push	{r0, lr}
    8e4e:	f7ff ffb7 	bl	8dc0 <__cmpdf2>
    8e52:	2800      	cmp	r0, #0
    8e54:	bf48      	it	mi
    8e56:	f110 0f00 	cmnmi.w	r0, #0
    8e5a:	bd01      	pop	{r0, pc}

00008e5c <__aeabi_dcmpeq>:
    8e5c:	f84d ed08 	str.w	lr, [sp, #-8]!
    8e60:	f7ff fff4 	bl	8e4c <__aeabi_cdcmpeq>
    8e64:	bf0c      	ite	eq
    8e66:	2001      	moveq	r0, #1
    8e68:	2000      	movne	r0, #0
    8e6a:	f85d fb08 	ldr.w	pc, [sp], #8
    8e6e:	bf00      	nop

00008e70 <__aeabi_dcmplt>:
    8e70:	f84d ed08 	str.w	lr, [sp, #-8]!
    8e74:	f7ff ffea 	bl	8e4c <__aeabi_cdcmpeq>
    8e78:	bf34      	ite	cc
    8e7a:	2001      	movcc	r0, #1
    8e7c:	2000      	movcs	r0, #0
    8e7e:	f85d fb08 	ldr.w	pc, [sp], #8
    8e82:	bf00      	nop

00008e84 <__aeabi_dcmple>:
    8e84:	f84d ed08 	str.w	lr, [sp, #-8]!
    8e88:	f7ff ffe0 	bl	8e4c <__aeabi_cdcmpeq>
    8e8c:	bf94      	ite	ls
    8e8e:	2001      	movls	r0, #1
    8e90:	2000      	movhi	r0, #0
    8e92:	f85d fb08 	ldr.w	pc, [sp], #8
    8e96:	bf00      	nop

00008e98 <__aeabi_dcmpge>:
    8e98:	f84d ed08 	str.w	lr, [sp, #-8]!
    8e9c:	f7ff ffce 	bl	8e3c <__aeabi_cdrcmple>
    8ea0:	bf94      	ite	ls
    8ea2:	2001      	movls	r0, #1
    8ea4:	2000      	movhi	r0, #0
    8ea6:	f85d fb08 	ldr.w	pc, [sp], #8
    8eaa:	bf00      	nop

00008eac <__aeabi_dcmpgt>:
    8eac:	f84d ed08 	str.w	lr, [sp, #-8]!
    8eb0:	f7ff ffc4 	bl	8e3c <__aeabi_cdrcmple>
    8eb4:	bf34      	ite	cc
    8eb6:	2001      	movcc	r0, #1
    8eb8:	2000      	movcs	r0, #0
    8eba:	f85d fb08 	ldr.w	pc, [sp], #8
    8ebe:	bf00      	nop

00008ec0 <__aeabi_d2iz>:
    8ec0:	ea4f 0241 	mov.w	r2, r1, lsl #1
    8ec4:	f512 1200 	adds.w	r2, r2, #2097152	; 0x200000
    8ec8:	d215      	bcs.n	8ef6 <__aeabi_d2iz+0x36>
    8eca:	d511      	bpl.n	8ef0 <__aeabi_d2iz+0x30>
    8ecc:	f46f 7378 	mvn.w	r3, #992	; 0x3e0
    8ed0:	ebb3 5262 	subs.w	r2, r3, r2, asr #21
    8ed4:	d912      	bls.n	8efc <__aeabi_d2iz+0x3c>
    8ed6:	ea4f 23c1 	mov.w	r3, r1, lsl #11
    8eda:	f043 4300 	orr.w	r3, r3, #2147483648	; 0x80000000
    8ede:	ea43 5350 	orr.w	r3, r3, r0, lsr #21
    8ee2:	f011 4f00 	tst.w	r1, #2147483648	; 0x80000000
    8ee6:	fa23 f002 	lsr.w	r0, r3, r2
    8eea:	bf18      	it	ne
    8eec:	4240      	negne	r0, r0
    8eee:	4770      	bx	lr
    8ef0:	f04f 0000 	mov.w	r0, #0
    8ef4:	4770      	bx	lr
    8ef6:	ea50 3001 	orrs.w	r0, r0, r1, lsl #12
    8efa:	d105      	bne.n	8f08 <__aeabi_d2iz+0x48>
    8efc:	f011 4000 	ands.w	r0, r1, #2147483648	; 0x80000000
    8f00:	bf08      	it	eq
    8f02:	f06f 4000 	mvneq.w	r0, #2147483648	; 0x80000000
    8f06:	4770      	bx	lr
    8f08:	f04f 0000 	mov.w	r0, #0
    8f0c:	4770      	bx	lr
    8f0e:	bf00      	nop

00008f10 <__aeabi_uldivmod>:
    8f10:	b94b      	cbnz	r3, 8f26 <__aeabi_uldivmod+0x16>
    8f12:	b942      	cbnz	r2, 8f26 <__aeabi_uldivmod+0x16>
    8f14:	2900      	cmp	r1, #0
    8f16:	bf08      	it	eq
    8f18:	2800      	cmpeq	r0, #0
    8f1a:	d002      	beq.n	8f22 <__aeabi_uldivmod+0x12>
    8f1c:	f04f 31ff 	mov.w	r1, #4294967295
    8f20:	4608      	mov	r0, r1
    8f22:	f7ff bb79 	b.w	8618 <__aeabi_idiv0>
    8f26:	b082      	sub	sp, #8
    8f28:	46ec      	mov	ip, sp
    8f2a:	e92d 5000 	stmdb	sp!, {ip, lr}
    8f2e:	f000 f81d 	bl	8f6c <__gnu_uldivmod_helper>
    8f32:	f8dd e004 	ldr.w	lr, [sp, #4]
    8f36:	b002      	add	sp, #8
    8f38:	bc0c      	pop	{r2, r3}
    8f3a:	4770      	bx	lr

00008f3c <__gnu_ldivmod_helper>:
    8f3c:	e92d 4370 	stmdb	sp!, {r4, r5, r6, r8, r9, lr}
    8f40:	4616      	mov	r6, r2
    8f42:	4680      	mov	r8, r0
    8f44:	4689      	mov	r9, r1
    8f46:	461d      	mov	r5, r3
    8f48:	f000 f828 	bl	8f9c <__divdi3>
    8f4c:	fb00 f305 	mul.w	r3, r0, r5
    8f50:	fba0 4506 	umull	r4, r5, r0, r6
    8f54:	fb06 3601 	mla	r6, r6, r1, r3
    8f58:	9b06      	ldr	r3, [sp, #24]
    8f5a:	1975      	adds	r5, r6, r5
    8f5c:	ebb8 0404 	subs.w	r4, r8, r4
    8f60:	eb69 0505 	sbc.w	r5, r9, r5
    8f64:	e9c3 4500 	strd	r4, r5, [r3]
    8f68:	e8bd 8370 	ldmia.w	sp!, {r4, r5, r6, r8, r9, pc}

00008f6c <__gnu_uldivmod_helper>:
    8f6c:	e92d 4370 	stmdb	sp!, {r4, r5, r6, r8, r9, lr}
    8f70:	4616      	mov	r6, r2
    8f72:	4680      	mov	r8, r0
    8f74:	4689      	mov	r9, r1
    8f76:	461d      	mov	r5, r3
    8f78:	f000 f9c2 	bl	9300 <__udivdi3>
    8f7c:	fb00 f305 	mul.w	r3, r0, r5
    8f80:	fba0 4506 	umull	r4, r5, r0, r6
    8f84:	fb06 3601 	mla	r6, r6, r1, r3
    8f88:	9b06      	ldr	r3, [sp, #24]
    8f8a:	1975      	adds	r5, r6, r5
    8f8c:	ebb8 0404 	subs.w	r4, r8, r4
    8f90:	eb69 0505 	sbc.w	r5, r9, r5
    8f94:	e9c3 4500 	strd	r4, r5, [r3]
    8f98:	e8bd 8370 	ldmia.w	sp!, {r4, r5, r6, r8, r9, pc}

00008f9c <__divdi3>:
    8f9c:	2900      	cmp	r1, #0
    8f9e:	e92d 4ff0 	stmdb	sp!, {r4, r5, r6, r7, r8, r9, sl, fp, lr}
    8fa2:	461c      	mov	r4, r3
    8fa4:	b085      	sub	sp, #20
    8fa6:	f2c0 80cb 	blt.w	9140 <__divdi3+0x1a4>
    8faa:	2600      	movs	r6, #0
    8fac:	2c00      	cmp	r4, #0
    8fae:	f2c0 80c2 	blt.w	9136 <__divdi3+0x19a>
    8fb2:	468c      	mov	ip, r1
    8fb4:	4617      	mov	r7, r2
    8fb6:	4614      	mov	r4, r2
    8fb8:	4605      	mov	r5, r0
    8fba:	4688      	mov	r8, r1
    8fbc:	469a      	mov	sl, r3
    8fbe:	2b00      	cmp	r3, #0
    8fc0:	d149      	bne.n	9056 <__divdi3+0xba>
    8fc2:	428a      	cmp	r2, r1
    8fc4:	d96d      	bls.n	90a2 <__divdi3+0x106>
    8fc6:	fab2 f382 	clz	r3, r2
    8fca:	b153      	cbz	r3, 8fe2 <__divdi3+0x46>
    8fcc:	f1c3 0020 	rsb	r0, r3, #32
    8fd0:	fa01 f803 	lsl.w	r8, r1, r3
    8fd4:	fa35 f200 	lsrs.w	r2, r5, r0
    8fd8:	fa17 f403 	lsls.w	r4, r7, r3
    8fdc:	ea42 0808 	orr.w	r8, r2, r8
    8fe0:	409d      	lsls	r5, r3
    8fe2:	ea4f 4a14 	mov.w	sl, r4, lsr #16
    8fe6:	4640      	mov	r0, r8
    8fe8:	4651      	mov	r1, sl
    8fea:	fa1f fb84 	uxth.w	fp, r4
    8fee:	f7ff f9d7 	bl	83a0 <__aeabi_uidiv>
    8ff2:	4651      	mov	r1, sl
    8ff4:	0c2f      	lsrs	r7, r5, #16
    8ff6:	4681      	mov	r9, r0
    8ff8:	4640      	mov	r0, r8
    8ffa:	f7ff faff 	bl	85fc <__aeabi_uidivmod>
    8ffe:	fb0b f309 	mul.w	r3, fp, r9
    9002:	ea47 4801 	orr.w	r8, r7, r1, lsl #16
    9006:	4543      	cmp	r3, r8
    9008:	d909      	bls.n	901e <__divdi3+0x82>
    900a:	eb18 0804 	adds.w	r8, r8, r4
    900e:	f109 39ff 	add.w	r9, r9, #4294967295
    9012:	d204      	bcs.n	901e <__divdi3+0x82>
    9014:	4543      	cmp	r3, r8
    9016:	bf84      	itt	hi
    9018:	f109 39ff 	addhi.w	r9, r9, #4294967295
    901c:	44a0      	addhi	r8, r4
    901e:	ebc3 0808 	rsb	r8, r3, r8
    9022:	4651      	mov	r1, sl
    9024:	4640      	mov	r0, r8
    9026:	b2ad      	uxth	r5, r5
    9028:	f7ff f9ba 	bl	83a0 <__aeabi_uidiv>
    902c:	4651      	mov	r1, sl
    902e:	4607      	mov	r7, r0
    9030:	4640      	mov	r0, r8
    9032:	f7ff fae3 	bl	85fc <__aeabi_uidivmod>
    9036:	fb0b fb07 	mul.w	fp, fp, r7
    903a:	ea45 4501 	orr.w	r5, r5, r1, lsl #16
    903e:	45ab      	cmp	fp, r5
    9040:	d905      	bls.n	904e <__divdi3+0xb2>
    9042:	3f01      	subs	r7, #1
    9044:	192d      	adds	r5, r5, r4
    9046:	d202      	bcs.n	904e <__divdi3+0xb2>
    9048:	45ab      	cmp	fp, r5
    904a:	bf88      	it	hi
    904c:	3f01      	subhi	r7, #1
    904e:	ea47 4909 	orr.w	r9, r7, r9, lsl #16
    9052:	2400      	movs	r4, #0
    9054:	e003      	b.n	905e <__divdi3+0xc2>
    9056:	428b      	cmp	r3, r1
    9058:	d90c      	bls.n	9074 <__divdi3+0xd8>
    905a:	2400      	movs	r4, #0
    905c:	46a1      	mov	r9, r4
    905e:	464a      	mov	r2, r9
    9060:	4623      	mov	r3, r4
    9062:	b116      	cbz	r6, 906a <__divdi3+0xce>
    9064:	4252      	negs	r2, r2
    9066:	eb63 0343 	sbc.w	r3, r3, r3, lsl #1
    906a:	4610      	mov	r0, r2
    906c:	4619      	mov	r1, r3
    906e:	b005      	add	sp, #20
    9070:	e8bd 8ff0 	ldmia.w	sp!, {r4, r5, r6, r7, r8, r9, sl, fp, pc}
    9074:	fab3 f483 	clz	r4, r3
    9078:	2c00      	cmp	r4, #0
    907a:	f040 80b4 	bne.w	91e6 <__divdi3+0x24a>
    907e:	428b      	cmp	r3, r1
    9080:	f04f 0901 	mov.w	r9, #1
    9084:	bf2c      	ite	cs
    9086:	f04f 0c00 	movcs.w	ip, #0
    908a:	f04f 0c01 	movcc.w	ip, #1
    908e:	4282      	cmp	r2, r0
    9090:	bf8c      	ite	hi
    9092:	4667      	movhi	r7, ip
    9094:	f04c 0701 	orrls.w	r7, ip, #1
    9098:	2f00      	cmp	r7, #0
    909a:	d1e0      	bne.n	905e <__divdi3+0xc2>
    909c:	463c      	mov	r4, r7
    909e:	46b9      	mov	r9, r7
    90a0:	e7dd      	b.n	905e <__divdi3+0xc2>
    90a2:	b922      	cbnz	r2, 90ae <__divdi3+0x112>
    90a4:	2001      	movs	r0, #1
    90a6:	4611      	mov	r1, r2
    90a8:	f7ff f97a 	bl	83a0 <__aeabi_uidiv>
    90ac:	4604      	mov	r4, r0
    90ae:	fab4 f384 	clz	r3, r4
    90b2:	2b00      	cmp	r3, #0
    90b4:	d14a      	bne.n	914c <__divdi3+0x1b0>
    90b6:	ebc4 0808 	rsb	r8, r4, r8
    90ba:	0c27      	lsrs	r7, r4, #16
    90bc:	fa1f fa84 	uxth.w	sl, r4
    90c0:	2101      	movs	r1, #1
    90c2:	9102      	str	r1, [sp, #8]
    90c4:	4639      	mov	r1, r7
    90c6:	4640      	mov	r0, r8
    90c8:	f7ff f96a 	bl	83a0 <__aeabi_uidiv>
    90cc:	4639      	mov	r1, r7
    90ce:	ea4f 4b15 	mov.w	fp, r5, lsr #16
    90d2:	4681      	mov	r9, r0
    90d4:	4640      	mov	r0, r8
    90d6:	f7ff fa91 	bl	85fc <__aeabi_uidivmod>
    90da:	fb0a f309 	mul.w	r3, sl, r9
    90de:	ea4b 4b01 	orr.w	fp, fp, r1, lsl #16
    90e2:	455b      	cmp	r3, fp
    90e4:	d909      	bls.n	90fa <__divdi3+0x15e>
    90e6:	eb1b 0b04 	adds.w	fp, fp, r4
    90ea:	f109 39ff 	add.w	r9, r9, #4294967295
    90ee:	d204      	bcs.n	90fa <__divdi3+0x15e>
    90f0:	455b      	cmp	r3, fp
    90f2:	bf84      	itt	hi
    90f4:	f109 39ff 	addhi.w	r9, r9, #4294967295
    90f8:	44a3      	addhi	fp, r4
    90fa:	ebc3 0b0b 	rsb	fp, r3, fp
    90fe:	4639      	mov	r1, r7
    9100:	4658      	mov	r0, fp
    9102:	b2ad      	uxth	r5, r5
    9104:	f7ff f94c 	bl	83a0 <__aeabi_uidiv>
    9108:	4639      	mov	r1, r7
    910a:	4680      	mov	r8, r0
    910c:	4658      	mov	r0, fp
    910e:	f7ff fa75 	bl	85fc <__aeabi_uidivmod>
    9112:	fb0a fa08 	mul.w	sl, sl, r8
    9116:	ea45 4501 	orr.w	r5, r5, r1, lsl #16
    911a:	45aa      	cmp	sl, r5
    911c:	d907      	bls.n	912e <__divdi3+0x192>
    911e:	192d      	adds	r5, r5, r4
    9120:	f108 38ff 	add.w	r8, r8, #4294967295
    9124:	d203      	bcs.n	912e <__divdi3+0x192>
    9126:	45aa      	cmp	sl, r5
    9128:	bf88      	it	hi
    912a:	f108 38ff 	addhi.w	r8, r8, #4294967295
    912e:	ea48 4909 	orr.w	r9, r8, r9, lsl #16
    9132:	9c02      	ldr	r4, [sp, #8]
    9134:	e793      	b.n	905e <__divdi3+0xc2>
    9136:	43f6      	mvns	r6, r6
    9138:	4252      	negs	r2, r2
    913a:	eb63 0343 	sbc.w	r3, r3, r3, lsl #1
    913e:	e738      	b.n	8fb2 <__divdi3+0x16>
    9140:	4240      	negs	r0, r0
    9142:	eb61 0141 	sbc.w	r1, r1, r1, lsl #1
    9146:	f04f 36ff 	mov.w	r6, #4294967295
    914a:	e72f      	b.n	8fac <__divdi3+0x10>
    914c:	409c      	lsls	r4, r3
    914e:	f1c3 0020 	rsb	r0, r3, #32
    9152:	fa28 fa00 	lsr.w	sl, r8, r0
    9156:	fa08 fb03 	lsl.w	fp, r8, r3
    915a:	0c27      	lsrs	r7, r4, #16
    915c:	fa35 f200 	lsrs.w	r2, r5, r0
    9160:	4639      	mov	r1, r7
    9162:	4650      	mov	r0, sl
    9164:	ea42 020b 	orr.w	r2, r2, fp
    9168:	409d      	lsls	r5, r3
    916a:	9202      	str	r2, [sp, #8]
    916c:	f7ff f918 	bl	83a0 <__aeabi_uidiv>
    9170:	4639      	mov	r1, r7
    9172:	4683      	mov	fp, r0
    9174:	4650      	mov	r0, sl
    9176:	f7ff fa41 	bl	85fc <__aeabi_uidivmod>
    917a:	9b02      	ldr	r3, [sp, #8]
    917c:	fa1f fa84 	uxth.w	sl, r4
    9180:	ea4f 4913 	mov.w	r9, r3, lsr #16
    9184:	fb0a f30b 	mul.w	r3, sl, fp
    9188:	ea49 4801 	orr.w	r8, r9, r1, lsl #16
    918c:	4543      	cmp	r3, r8
    918e:	d905      	bls.n	919c <__divdi3+0x200>
    9190:	eb18 0804 	adds.w	r8, r8, r4
    9194:	f10b 3bff 	add.w	fp, fp, #4294967295
    9198:	f0c0 80ab 	bcc.w	92f2 <__divdi3+0x356>
    919c:	ebc3 0808 	rsb	r8, r3, r8
    91a0:	4639      	mov	r1, r7
    91a2:	4640      	mov	r0, r8
    91a4:	f7ff f8fc 	bl	83a0 <__aeabi_uidiv>
    91a8:	4639      	mov	r1, r7
    91aa:	4681      	mov	r9, r0
    91ac:	4640      	mov	r0, r8
    91ae:	f7ff fa25 	bl	85fc <__aeabi_uidivmod>
    91b2:	9a02      	ldr	r2, [sp, #8]
    91b4:	fb0a f309 	mul.w	r3, sl, r9
    91b8:	fa1f fc82 	uxth.w	ip, r2
    91bc:	ea4c 4801 	orr.w	r8, ip, r1, lsl #16
    91c0:	4543      	cmp	r3, r8
    91c2:	d909      	bls.n	91d8 <__divdi3+0x23c>
    91c4:	eb18 0804 	adds.w	r8, r8, r4
    91c8:	f109 39ff 	add.w	r9, r9, #4294967295
    91cc:	d204      	bcs.n	91d8 <__divdi3+0x23c>
    91ce:	4543      	cmp	r3, r8
    91d0:	bf84      	itt	hi
    91d2:	f109 39ff 	addhi.w	r9, r9, #4294967295
    91d6:	44a0      	addhi	r8, r4
    91d8:	ea49 4e0b 	orr.w	lr, r9, fp, lsl #16
    91dc:	ebc3 0808 	rsb	r8, r3, r8
    91e0:	f8cd e008 	str.w	lr, [sp, #8]
    91e4:	e76e      	b.n	90c4 <__divdi3+0x128>
    91e6:	f1c4 0020 	rsb	r0, r4, #32
    91ea:	fa03 fa04 	lsl.w	sl, r3, r4
    91ee:	fa32 f300 	lsrs.w	r3, r2, r0
    91f2:	fa21 f800 	lsr.w	r8, r1, r0
    91f6:	ea43 0a0a 	orr.w	sl, r3, sl
    91fa:	fa35 f200 	lsrs.w	r2, r5, r0
    91fe:	fa01 f904 	lsl.w	r9, r1, r4
    9202:	4640      	mov	r0, r8
    9204:	ea4f 4b1a 	mov.w	fp, sl, lsr #16
    9208:	ea42 0109 	orr.w	r1, r2, r9
    920c:	9103      	str	r1, [sp, #12]
    920e:	4659      	mov	r1, fp
    9210:	fa17 f304 	lsls.w	r3, r7, r4
    9214:	9302      	str	r3, [sp, #8]
    9216:	f7ff f8c3 	bl	83a0 <__aeabi_uidiv>
    921a:	4659      	mov	r1, fp
    921c:	4681      	mov	r9, r0
    921e:	4640      	mov	r0, r8
    9220:	f7ff f9ec 	bl	85fc <__aeabi_uidivmod>
    9224:	fa1f f38a 	uxth.w	r3, sl
    9228:	9803      	ldr	r0, [sp, #12]
    922a:	fb03 f209 	mul.w	r2, r3, r9
    922e:	0c07      	lsrs	r7, r0, #16
    9230:	ea47 4801 	orr.w	r8, r7, r1, lsl #16
    9234:	4542      	cmp	r2, r8
    9236:	d904      	bls.n	9242 <__divdi3+0x2a6>
    9238:	eb18 080a 	adds.w	r8, r8, sl
    923c:	f109 39ff 	add.w	r9, r9, #4294967295
    9240:	d351      	bcc.n	92e6 <__divdi3+0x34a>
    9242:	ebc2 0808 	rsb	r8, r2, r8
    9246:	4659      	mov	r1, fp
    9248:	4640      	mov	r0, r8
    924a:	9301      	str	r3, [sp, #4]
    924c:	f7ff f8a8 	bl	83a0 <__aeabi_uidiv>
    9250:	4659      	mov	r1, fp
    9252:	4607      	mov	r7, r0
    9254:	4640      	mov	r0, r8
    9256:	f7ff f9d1 	bl	85fc <__aeabi_uidivmod>
    925a:	9801      	ldr	r0, [sp, #4]
    925c:	9a03      	ldr	r2, [sp, #12]
    925e:	fb00 f307 	mul.w	r3, r0, r7
    9262:	fa1f fc82 	uxth.w	ip, r2
    9266:	ea4c 4c01 	orr.w	ip, ip, r1, lsl #16
    926a:	4563      	cmp	r3, ip
    926c:	d907      	bls.n	927e <__divdi3+0x2e2>
    926e:	3f01      	subs	r7, #1
    9270:	eb1c 0c0a 	adds.w	ip, ip, sl
    9274:	d203      	bcs.n	927e <__divdi3+0x2e2>
    9276:	4563      	cmp	r3, ip
    9278:	d901      	bls.n	927e <__divdi3+0x2e2>
    927a:	3f01      	subs	r7, #1
    927c:	44d4      	add	ip, sl
    927e:	ea47 4909 	orr.w	r9, r7, r9, lsl #16
    9282:	9f02      	ldr	r7, [sp, #8]
    9284:	ebc3 030c 	rsb	r3, r3, ip
    9288:	fa1f fe89 	uxth.w	lr, r9
    928c:	ea4f 4019 	mov.w	r0, r9, lsr #16
    9290:	b2b9      	uxth	r1, r7
    9292:	0c3f      	lsrs	r7, r7, #16
    9294:	fb01 f80e 	mul.w	r8, r1, lr
    9298:	fb01 f100 	mul.w	r1, r1, r0
    929c:	fb07 120e 	mla	r2, r7, lr, r1
    92a0:	fb07 fc00 	mul.w	ip, r7, r0
    92a4:	eb02 4218 	add.w	r2, r2, r8, lsr #16
    92a8:	4291      	cmp	r1, r2
    92aa:	bf88      	it	hi
    92ac:	f50c 3c80 	addhi.w	ip, ip, #65536	; 0x10000
    92b0:	eb0c 4e12 	add.w	lr, ip, r2, lsr #16
    92b4:	4573      	cmp	r3, lr
    92b6:	d312      	bcc.n	92de <__divdi3+0x342>
    92b8:	ea4f 4202 	mov.w	r2, r2, lsl #16
    92bc:	fa1f f888 	uxth.w	r8, r8
    92c0:	bf14      	ite	ne
    92c2:	2300      	movne	r3, #0
    92c4:	2301      	moveq	r3, #1
    92c6:	eb02 0c08 	add.w	ip, r2, r8
    92ca:	fa15 f404 	lsls.w	r4, r5, r4
    92ce:	4564      	cmp	r4, ip
    92d0:	bf2c      	ite	cs
    92d2:	2400      	movcs	r4, #0
    92d4:	f003 0401 	andcc.w	r4, r3, #1
    92d8:	2c00      	cmp	r4, #0
    92da:	f43f aec0 	beq.w	905e <__divdi3+0xc2>
    92de:	f109 39ff 	add.w	r9, r9, #4294967295
    92e2:	2400      	movs	r4, #0
    92e4:	e6bb      	b.n	905e <__divdi3+0xc2>
    92e6:	4542      	cmp	r2, r8
    92e8:	bf84      	itt	hi
    92ea:	f109 39ff 	addhi.w	r9, r9, #4294967295
    92ee:	44d0      	addhi	r8, sl
    92f0:	e7a7      	b.n	9242 <__divdi3+0x2a6>
    92f2:	4543      	cmp	r3, r8
    92f4:	bf84      	itt	hi
    92f6:	f10b 3bff 	addhi.w	fp, fp, #4294967295
    92fa:	44a0      	addhi	r8, r4
    92fc:	e74e      	b.n	919c <__divdi3+0x200>
    92fe:	bf00      	nop

00009300 <__udivdi3>:
    9300:	e92d 4ff0 	stmdb	sp!, {r4, r5, r6, r7, r8, r9, sl, fp, lr}
    9304:	4605      	mov	r5, r0
    9306:	b083      	sub	sp, #12
    9308:	460c      	mov	r4, r1
    930a:	4617      	mov	r7, r2
    930c:	4680      	mov	r8, r0
    930e:	460e      	mov	r6, r1
    9310:	2b00      	cmp	r3, #0
    9312:	d14f      	bne.n	93b4 <__udivdi3+0xb4>
    9314:	428a      	cmp	r2, r1
    9316:	d963      	bls.n	93e0 <__udivdi3+0xe0>
    9318:	fab2 f382 	clz	r3, r2
    931c:	b153      	cbz	r3, 9334 <__udivdi3+0x34>
    931e:	f1c3 0020 	rsb	r0, r3, #32
    9322:	fa11 f603 	lsls.w	r6, r1, r3
    9326:	fa35 f200 	lsrs.w	r2, r5, r0
    932a:	409f      	lsls	r7, r3
    932c:	ea42 0606 	orr.w	r6, r2, r6
    9330:	fa05 f803 	lsl.w	r8, r5, r3
    9334:	0c3c      	lsrs	r4, r7, #16
    9336:	4630      	mov	r0, r6
    9338:	4621      	mov	r1, r4
    933a:	fa1f fa87 	uxth.w	sl, r7
    933e:	f7ff f82f 	bl	83a0 <__aeabi_uidiv>
    9342:	4621      	mov	r1, r4
    9344:	ea4f 4518 	mov.w	r5, r8, lsr #16
    9348:	4681      	mov	r9, r0
    934a:	4630      	mov	r0, r6
    934c:	f7ff f956 	bl	85fc <__aeabi_uidivmod>
    9350:	fb0a f309 	mul.w	r3, sl, r9
    9354:	ea45 4601 	orr.w	r6, r5, r1, lsl #16
    9358:	42b3      	cmp	r3, r6
    935a:	d908      	bls.n	936e <__udivdi3+0x6e>
    935c:	19f6      	adds	r6, r6, r7
    935e:	f109 39ff 	add.w	r9, r9, #4294967295
    9362:	d204      	bcs.n	936e <__udivdi3+0x6e>
    9364:	42b3      	cmp	r3, r6
    9366:	bf84      	itt	hi
    9368:	f109 39ff 	addhi.w	r9, r9, #4294967295
    936c:	19f6      	addhi	r6, r6, r7
    936e:	1af6      	subs	r6, r6, r3
    9370:	4621      	mov	r1, r4
    9372:	4630      	mov	r0, r6
    9374:	fa1f f888 	uxth.w	r8, r8
    9378:	f7ff f812 	bl	83a0 <__aeabi_uidiv>
    937c:	4621      	mov	r1, r4
    937e:	4605      	mov	r5, r0
    9380:	4630      	mov	r0, r6
    9382:	f7ff f93b 	bl	85fc <__aeabi_uidivmod>
    9386:	fb0a fa05 	mul.w	sl, sl, r5
    938a:	ea48 4801 	orr.w	r8, r8, r1, lsl #16
    938e:	45c2      	cmp	sl, r8
    9390:	d906      	bls.n	93a0 <__udivdi3+0xa0>
    9392:	3d01      	subs	r5, #1
    9394:	eb18 0807 	adds.w	r8, r8, r7
    9398:	d202      	bcs.n	93a0 <__udivdi3+0xa0>
    939a:	45c2      	cmp	sl, r8
    939c:	bf88      	it	hi
    939e:	3d01      	subhi	r5, #1
    93a0:	ea45 4a09 	orr.w	sl, r5, r9, lsl #16
    93a4:	2600      	movs	r6, #0
    93a6:	4631      	mov	r1, r6
    93a8:	46d0      	mov	r8, sl
    93aa:	46b1      	mov	r9, r6
    93ac:	4650      	mov	r0, sl
    93ae:	b003      	add	sp, #12
    93b0:	e8bd 8ff0 	ldmia.w	sp!, {r4, r5, r6, r7, r8, r9, sl, fp, pc}
    93b4:	428b      	cmp	r3, r1
    93b6:	d85b      	bhi.n	9470 <__udivdi3+0x170>
    93b8:	fab3 f683 	clz	r6, r3
    93bc:	2e00      	cmp	r6, #0
    93be:	d15a      	bne.n	9476 <__udivdi3+0x176>
    93c0:	428b      	cmp	r3, r1
    93c2:	f04f 0a01 	mov.w	sl, #1
    93c6:	bf2c      	ite	cs
    93c8:	2400      	movcs	r4, #0
    93ca:	2401      	movcc	r4, #1
    93cc:	4282      	cmp	r2, r0
    93ce:	bf8c      	ite	hi
    93d0:	4625      	movhi	r5, r4
    93d2:	f044 0501 	orrls.w	r5, r4, #1
    93d6:	2d00      	cmp	r5, #0
    93d8:	d1e5      	bne.n	93a6 <__udivdi3+0xa6>
    93da:	462e      	mov	r6, r5
    93dc:	46aa      	mov	sl, r5
    93de:	e7e2      	b.n	93a6 <__udivdi3+0xa6>
    93e0:	b922      	cbnz	r2, 93ec <__udivdi3+0xec>
    93e2:	2001      	movs	r0, #1
    93e4:	4611      	mov	r1, r2
    93e6:	f7fe ffdb 	bl	83a0 <__aeabi_uidiv>
    93ea:	4607      	mov	r7, r0
    93ec:	fab7 f387 	clz	r3, r7
    93f0:	2b00      	cmp	r3, #0
    93f2:	f040 80bb 	bne.w	956c <__udivdi3+0x26c>
    93f6:	1be4      	subs	r4, r4, r7
    93f8:	ea4f 4b17 	mov.w	fp, r7, lsr #16
    93fc:	b2bd      	uxth	r5, r7
    93fe:	2601      	movs	r6, #1
    9400:	4659      	mov	r1, fp
    9402:	4620      	mov	r0, r4
    9404:	f7fe ffcc 	bl	83a0 <__aeabi_uidiv>
    9408:	4659      	mov	r1, fp
    940a:	4682      	mov	sl, r0
    940c:	4620      	mov	r0, r4
    940e:	f7ff f8f5 	bl	85fc <__aeabi_uidivmod>
    9412:	ea4f 4c18 	mov.w	ip, r8, lsr #16
    9416:	fb05 f30a 	mul.w	r3, r5, sl
    941a:	ea4c 4401 	orr.w	r4, ip, r1, lsl #16
    941e:	42a3      	cmp	r3, r4
    9420:	d908      	bls.n	9434 <__udivdi3+0x134>
    9422:	19e4      	adds	r4, r4, r7
    9424:	f10a 3aff 	add.w	sl, sl, #4294967295
    9428:	d204      	bcs.n	9434 <__udivdi3+0x134>
    942a:	42a3      	cmp	r3, r4
    942c:	bf84      	itt	hi
    942e:	f10a 3aff 	addhi.w	sl, sl, #4294967295
    9432:	19e4      	addhi	r4, r4, r7
    9434:	1ae4      	subs	r4, r4, r3
    9436:	4659      	mov	r1, fp
    9438:	4620      	mov	r0, r4
    943a:	f7fe ffb1 	bl	83a0 <__aeabi_uidiv>
    943e:	4659      	mov	r1, fp
    9440:	4681      	mov	r9, r0
    9442:	4620      	mov	r0, r4
    9444:	f7ff f8da 	bl	85fc <__aeabi_uidivmod>
    9448:	fa1f f388 	uxth.w	r3, r8
    944c:	fb05 f509 	mul.w	r5, r5, r9
    9450:	ea43 4801 	orr.w	r8, r3, r1, lsl #16
    9454:	4545      	cmp	r5, r8
    9456:	d908      	bls.n	946a <__udivdi3+0x16a>
    9458:	eb18 0807 	adds.w	r8, r8, r7
    945c:	f109 39ff 	add.w	r9, r9, #4294967295
    9460:	d203      	bcs.n	946a <__udivdi3+0x16a>
    9462:	4545      	cmp	r5, r8
    9464:	bf88      	it	hi
    9466:	f109 39ff 	addhi.w	r9, r9, #4294967295
    946a:	ea49 4a0a 	orr.w	sl, r9, sl, lsl #16
    946e:	e79a      	b.n	93a6 <__udivdi3+0xa6>
    9470:	2600      	movs	r6, #0
    9472:	46b2      	mov	sl, r6
    9474:	e797      	b.n	93a6 <__udivdi3+0xa6>
    9476:	f1c6 0020 	rsb	r0, r6, #32
    947a:	fa13 f106 	lsls.w	r1, r3, r6
    947e:	fa32 f700 	lsrs.w	r7, r2, r0
    9482:	fa35 f300 	lsrs.w	r3, r5, r0
    9486:	430f      	orrs	r7, r1
    9488:	fa24 fb00 	lsr.w	fp, r4, r0
    948c:	40b4      	lsls	r4, r6
    948e:	4658      	mov	r0, fp
    9490:	ea4f 4817 	mov.w	r8, r7, lsr #16
    9494:	ea43 0104 	orr.w	r1, r3, r4
    9498:	9101      	str	r1, [sp, #4]
    949a:	4641      	mov	r1, r8
    949c:	fa12 f406 	lsls.w	r4, r2, r6
    94a0:	9400      	str	r4, [sp, #0]
    94a2:	f7fe ff7d 	bl	83a0 <__aeabi_uidiv>
    94a6:	4641      	mov	r1, r8
    94a8:	b2bc      	uxth	r4, r7
    94aa:	4682      	mov	sl, r0
    94ac:	4658      	mov	r0, fp
    94ae:	f7ff f8a5 	bl	85fc <__aeabi_uidivmod>
    94b2:	9a01      	ldr	r2, [sp, #4]
    94b4:	fb04 f30a 	mul.w	r3, r4, sl
    94b8:	ea4f 4b12 	mov.w	fp, r2, lsr #16
    94bc:	ea4b 4b01 	orr.w	fp, fp, r1, lsl #16
    94c0:	455b      	cmp	r3, fp
    94c2:	d905      	bls.n	94d0 <__udivdi3+0x1d0>
    94c4:	eb1b 0b07 	adds.w	fp, fp, r7
    94c8:	f10a 3aff 	add.w	sl, sl, #4294967295
    94cc:	f0c0 8096 	bcc.w	95fc <__udivdi3+0x2fc>
    94d0:	ebc3 0b0b 	rsb	fp, r3, fp
    94d4:	4641      	mov	r1, r8
    94d6:	4658      	mov	r0, fp
    94d8:	f7fe ff62 	bl	83a0 <__aeabi_uidiv>
    94dc:	4641      	mov	r1, r8
    94de:	4681      	mov	r9, r0
    94e0:	4658      	mov	r0, fp
    94e2:	f7ff f88b 	bl	85fc <__aeabi_uidivmod>
    94e6:	9a01      	ldr	r2, [sp, #4]
    94e8:	fb04 f409 	mul.w	r4, r4, r9
    94ec:	fa1f f882 	uxth.w	r8, r2
    94f0:	ea48 4301 	orr.w	r3, r8, r1, lsl #16
    94f4:	429c      	cmp	r4, r3
    94f6:	d903      	bls.n	9500 <__udivdi3+0x200>
    94f8:	19db      	adds	r3, r3, r7
    94fa:	f109 39ff 	add.w	r9, r9, #4294967295
    94fe:	d377      	bcc.n	95f0 <__udivdi3+0x2f0>
    9500:	9f00      	ldr	r7, [sp, #0]
    9502:	ea49 4a0a 	orr.w	sl, r9, sl, lsl #16
    9506:	1b1c      	subs	r4, r3, r4
    9508:	fa1f f18a 	uxth.w	r1, sl
    950c:	fa1f f887 	uxth.w	r8, r7
    9510:	0c3a      	lsrs	r2, r7, #16
    9512:	ea4f 471a 	mov.w	r7, sl, lsr #16
    9516:	fb08 fc01 	mul.w	ip, r8, r1
    951a:	fb08 f307 	mul.w	r3, r8, r7
    951e:	fb02 3001 	mla	r0, r2, r1, r3
    9522:	fb02 f907 	mul.w	r9, r2, r7
    9526:	eb00 411c 	add.w	r1, r0, ip, lsr #16
    952a:	428b      	cmp	r3, r1
    952c:	bf88      	it	hi
    952e:	f509 3980 	addhi.w	r9, r9, #65536	; 0x10000
    9532:	eb09 4e11 	add.w	lr, r9, r1, lsr #16
    9536:	4574      	cmp	r4, lr
    9538:	d314      	bcc.n	9564 <__udivdi3+0x264>
    953a:	ea4f 4901 	mov.w	r9, r1, lsl #16
    953e:	fa1f f38c 	uxth.w	r3, ip
    9542:	bf14      	ite	ne
    9544:	f04f 0e00 	movne.w	lr, #0
    9548:	f04f 0e01 	moveq.w	lr, #1
    954c:	eb09 0c03 	add.w	ip, r9, r3
    9550:	fa15 f606 	lsls.w	r6, r5, r6
    9554:	4566      	cmp	r6, ip
    9556:	bf2c      	ite	cs
    9558:	2600      	movcs	r6, #0
    955a:	f00e 0601 	andcc.w	r6, lr, #1
    955e:	2e00      	cmp	r6, #0
    9560:	f43f af21 	beq.w	93a6 <__udivdi3+0xa6>
    9564:	f10a 3aff 	add.w	sl, sl, #4294967295
    9568:	2600      	movs	r6, #0
    956a:	e71c      	b.n	93a6 <__udivdi3+0xa6>
    956c:	409f      	lsls	r7, r3
    956e:	f1c3 0920 	rsb	r9, r3, #32
    9572:	fa24 f609 	lsr.w	r6, r4, r9
    9576:	fa14 f203 	lsls.w	r2, r4, r3
    957a:	ea4f 4b17 	mov.w	fp, r7, lsr #16
    957e:	fa25 fa09 	lsr.w	sl, r5, r9
    9582:	4659      	mov	r1, fp
    9584:	4630      	mov	r0, r6
    9586:	fa05 f803 	lsl.w	r8, r5, r3
    958a:	ea4a 0a02 	orr.w	sl, sl, r2
    958e:	f7fe ff07 	bl	83a0 <__aeabi_uidiv>
    9592:	4659      	mov	r1, fp
    9594:	b2bd      	uxth	r5, r7
    9596:	ea4f 441a 	mov.w	r4, sl, lsr #16
    959a:	4681      	mov	r9, r0
    959c:	4630      	mov	r0, r6
    959e:	f7ff f82d 	bl	85fc <__aeabi_uidivmod>
    95a2:	fb05 f309 	mul.w	r3, r5, r9
    95a6:	ea44 4401 	orr.w	r4, r4, r1, lsl #16
    95aa:	42a3      	cmp	r3, r4
    95ac:	d903      	bls.n	95b6 <__udivdi3+0x2b6>
    95ae:	19e4      	adds	r4, r4, r7
    95b0:	f109 39ff 	add.w	r9, r9, #4294967295
    95b4:	d328      	bcc.n	9608 <__udivdi3+0x308>
    95b6:	1ae4      	subs	r4, r4, r3
    95b8:	4659      	mov	r1, fp
    95ba:	4620      	mov	r0, r4
    95bc:	f7fe fef0 	bl	83a0 <__aeabi_uidiv>
    95c0:	4659      	mov	r1, fp
    95c2:	4606      	mov	r6, r0
    95c4:	4620      	mov	r0, r4
    95c6:	f7ff f819 	bl	85fc <__aeabi_uidivmod>
    95ca:	fa1f f08a 	uxth.w	r0, sl
    95ce:	fb05 f306 	mul.w	r3, r5, r6
    95d2:	ea40 4401 	orr.w	r4, r0, r1, lsl #16
    95d6:	42a3      	cmp	r3, r4
    95d8:	d906      	bls.n	95e8 <__udivdi3+0x2e8>
    95da:	3e01      	subs	r6, #1
    95dc:	19e4      	adds	r4, r4, r7
    95de:	d203      	bcs.n	95e8 <__udivdi3+0x2e8>
    95e0:	42a3      	cmp	r3, r4
    95e2:	d901      	bls.n	95e8 <__udivdi3+0x2e8>
    95e4:	3e01      	subs	r6, #1
    95e6:	19e4      	adds	r4, r4, r7
    95e8:	1ae4      	subs	r4, r4, r3
    95ea:	ea46 4609 	orr.w	r6, r6, r9, lsl #16
    95ee:	e707      	b.n	9400 <__udivdi3+0x100>
    95f0:	429c      	cmp	r4, r3
    95f2:	bf84      	itt	hi
    95f4:	f109 39ff 	addhi.w	r9, r9, #4294967295
    95f8:	19db      	addhi	r3, r3, r7
    95fa:	e781      	b.n	9500 <__udivdi3+0x200>
    95fc:	455b      	cmp	r3, fp
    95fe:	bf84      	itt	hi
    9600:	f10a 3aff 	addhi.w	sl, sl, #4294967295
    9604:	44bb      	addhi	fp, r7
    9606:	e763      	b.n	94d0 <__udivdi3+0x1d0>
    9608:	42a3      	cmp	r3, r4
    960a:	bf84      	itt	hi
    960c:	f109 39ff 	addhi.w	r9, r9, #4294967295
    9610:	19e4      	addhi	r4, r4, r7
    9612:	e7d0      	b.n	95b6 <__udivdi3+0x2b6>

00009614 <g_pucNada>:
	...

00009650 <g_pucCirc>:
    9650:	0000 4444 0000 4a00 aaaa 00a4 aa04 aaaa     ..DD...J........
    9660:	40aa aa4a 0000 a4aa aa4a 0000 a4aa aa4a     .@J.....J.....J.
    9670:	0000 a4aa aa4a 0000 a4aa aa04 aaaa 40aa     ....J..........@
    9680:	4a00 aaaa 00a4 0000 4444 0000 6425 0000     .J......DD..%d..
    9690:	6950 6f73 3020 0000 4250 0d0a 0000 0000     Piso 0..PB......
    96a0:	6950 6f73 3120 0000 3150 0d0a 0000 0000     Piso 1..P1......
    96b0:	6950 6f73 3220 0000 3250 0d0a 0000 0000     Piso 2..P2......
    96c0:	6950 6f73 3320 0000 3350 0d0a 0000 0000     Piso 3..P3......
    96d0:	415f 6373 6e65 6f73 2072 3676 352e 5f63     _Ascensor v6.5c_
    96e0:	0000 0000 2d2d 2d2d 2d2d 2d2d 2d2d 2d2d     ....------------
    96f0:	2d2d 2d2d 0000 0000 3676 352e 0a63 000d     ----....v6.5c...
    9700:	6e45 6520 7073 7265 0061 0000 6e45 6520     En espera...En e
    9710:	7073 7265 0a61 000d 2053 0052 2053 6152     spera...S R.S Ra
    9720:	6970 6164 0d0a 0000 3050 0d0a 0000 0000     pida....P0......
    9730:	2042 0052 2042 6152 6970 6164 0d0a 0000     B R.B Rapida....
    9740:	6241 6572 7020 6575 0a72 000d 6241 6972     Abre puer...Abri
    9750:	6e65 6f64 7020 6575 7472 7361 0000 0000     endo puertas....
    9760:	6543 7272 6e61 6f64 7020 6575 7472 7361     Cerrando puertas
    9770:	0000 0000 6943 7265 6172 7020 6575 0a72     ....Cierra puer.
    9780:	000d 0000 6553 736e 7020 6575 7472 2061     ....Sens puerta 
    9790:	6361 0a74 000d 0000                         act.....

00009798 <g_pulDCRegs>:
    9798:	e010 400f e014 400f e01c 400f e010 400f     ...@...@...@...@

000097a8 <g_pulSRCRRegs>:
    97a8:	e040 400f e044 400f e048 400f               @..@D..@H..@

000097b4 <g_pulRCGCRegs>:
    97b4:	e100 400f e104 400f e108 400f               ...@...@...@

000097c0 <g_pulSCGCRegs>:
    97c0:	e110 400f e114 400f e118 400f               ...@...@...@

000097cc <g_pulDCGCRegs>:
    97cc:	e120 400f e124 400f e128 400f                ..@$..@(..@

000097d8 <g_pulXtals>:
    97d8:	4240 000f 2000 001c 8480 001e 8000 0025     @B... ........%.
    97e8:	9e99 0036 4000 0038 0900 003d 8000 003e     ..6..@8...=...>.
    97f8:	0000 004b 4b40 004c 2000 004e 8d80 005b     ..K.@KL.. N...[.
    9808:	c000 005d 8000 0070 1200 007a 0000 007d     ..]...p...z...}.
    9818:	9680 0098 1b00 00b7 8000 00bb e8c0 00ce     ................
    9828:	7a64 00da 2400 00f4 0000 00fa               dz...$......

00009834 <g_pucRIT128x96x4VerticalInc>:
    9834:	56a0 0000                                   .V..

00009838 <g_pucRIT128x96x4HorizontalInc>:
    9838:	52a0 0000                                   .R..

0000983c <g_pucFont>:
    983c:	0000 0000 0000 4f00 0000 0700 0700 1400     .......O........
    984c:	147f 147f 2a24 2a7f 2312 0813 6264 4936     ....$*.*.#..db6I
    985c:	2255 0050 0305 0000 1c00 4122 0000 2241     U"P......."A..A"
    986c:	001c 0814 083e 0814 3e08 0808 5000 0030     ....>....>...P0.
    987c:	0800 0808 0808 6000 0060 2000 0810 0204     .......``.. ....
    988c:	513e 4549 003e 7f42 0040 6142 4951 2146     >QIE>.B.@.BaQIF!
    989c:	4541 314b 1418 7f12 2710 4545 3945 4a3c     AEK1.....'EEE9<J
    98ac:	4949 0130 0971 0305 4936 4949 0636 4949     II0.q...6III6.II
    98bc:	1e29 3600 0036 0000 3656 0000 1408 4122     )..66...V6...."A
    98cc:	1400 1414 1414 4100 1422 0208 5101 0609     .......A"....Q..
    98dc:	4932 4179 7e3e 1111 7e11 497f 4949 3e36     2IyA>~...~.III6>
    98ec:	4141 2241 417f 2241 7f1c 4949 4149 097f     AAA".AA"..IIIA..
    98fc:	0909 3e01 4941 7a49 087f 0808 007f 7f41     ...>AIIz......A.
    990c:	0041 4020 3f41 7f01 1408 4122 407f 4040     A. @A?...."A.@@@
    991c:	7f40 0c02 7f02 047f 1008 3e7f 4141 3e41     @..........>AAA>
    992c:	097f 0909 3e06 5141 5e21 097f 2919 4646     .....>AQ!^...)FF
    993c:	4949 3149 0101 017f 3f01 4040 3f40 201f     III1.....?@@@?. 
    994c:	2040 3f1f 3840 3f40 1463 1408 0763 7008     @ .?@8@?c...c..p
    995c:	0708 5161 4549 0043 417f 0041 0402 1008     ..aQIEC..AA.....
    996c:	0020 4141 007f 0204 0201 4004 4040 4040      .AA.......@@@@@
    997c:	0100 0402 2000 5454 7854 487f 4444 3838     ..... TTTx.HDD88
    998c:	4444 2044 4438 4844 387f 5454 1854 7e08     DDD 8DDH.8TTT..~
    999c:	0109 0c02 5252 3e52 087f 0404 0078 7d44     ....RRR>....x.D}
    99ac:	0040 4020 3d44 7f00 2810 0044 4100 407f     @. @D=...(D..A.@
    99bc:	7c00 1804 7804 087c 0404 3878 4444 3844     .|...x|...x8DDD8
    99cc:	147c 1414 0808 1414 7c18 087c 0404 4808     |........||....H
    99dc:	5454 2054 3f04 4044 3c20 4040 7c20 201c     TTT .?D@ <@@ |. 
    99ec:	2040 3c1c 3040 3c40 2844 2810 0c44 5050     @ .<@0@<D(.(D.PP
    99fc:	3c50 6444 4c54 0044 3608 0041 0000 007f     P<DdTLD..6A.....
    9a0c:	0000 3641 0008 0102 0402 0002 0000 0000     ..A6............

00009a1c <g_pucRIT128x96x4Init>:
    9a1c:	fd03 e312 ae02 03e3 0094 03e3 5fa8 03e3     ............._..
    9a2c:	b781 03e3 3f82 03e3 52a0 03e3 00a1 03e3     .....?...R......
    9a3c:	00a2 02e3 e3a4 b103 e311 b203 e323 b303     ............#...
    9a4c:	e3e2 b811 0201 0403 0605 0a08 0e0c 1310     ................
    9a5c:	1a16 e31e bb03 e301 bc03 e33f af02 00e3     ..........?.....

00009a6c <pucCommand1.1621>:
    9a6c:	e3ae 0000                                   ....

00009a70 <pucCommand1.1556>:
    9a70:	0015 003f                                   ..?.

00009a74 <pucCommand2.1557>:
    9a74:	0075 007f 0d0a 412e 6373 6e65 6f73 2e72     u......Ascensor.
    9a84:	0d0a 0000                                   ....

00009a88 <blanks.3938>:
    9a88:	2020 2020 2020 2020 2020 2020 2020 2020                     

00009a98 <zeroes.3939>:
    9a98:	3030 3030 3030 3030 3030 3030 3030 3030     0000000000000000
    9aa8:	4e49 0046 6e69 0066 414e 004e 616e 006e     INF.inf.NAN.nan.
    9ab8:	3130 3332 3534 3736 3938 4241 4443 4645     0123456789ABCDEF
    9ac8:	0000 0000 3130 3332 3534 3736 3938 6261     ....0123456789ab
    9ad8:	6463 6665 0000 0000 6e28 6c75 296c 0000     cdef....(null)..
    9ae8:	0030 0000 6e49 6966 696e 7974 0000 0000     0...Infinity....
    9af8:	614e 004e 0043 0000 4f50 4953 0058 0000     NaN.C...POSIX...
    9b08:	002e 0000 0000 0000                         ........

00009b10 <p05.2464>:
    9b10:	0005 0000 0019 0000 007d 0000 0000 0000     ........}.......

00009b20 <__mprec_tens>:
    9b20:	0000 0000 0000 3ff0 0000 0000 0000 4024     .......?......$@
    9b30:	0000 0000 0000 4059 0000 0000 4000 408f     ......Y@.....@.@
    9b40:	0000 0000 8800 40c3 0000 0000 6a00 40f8     .......@.....j.@
    9b50:	0000 0000 8480 412e 0000 0000 12d0 4163     .......A......cA
    9b60:	0000 0000 d784 4197 0000 0000 cd65 41cd     .......A....e..A
    9b70:	0000 2000 a05f 4202 0000 e800 4876 4237     ... _..B....vH7B
    9b80:	0000 a200 1a94 426d 0000 e540 309c 42a2     ......mB..@..0.B
    9b90:	0000 1e90 bcc4 42d6 0000 2634 6bf5 430c     .......B..4&.k.C
    9ba0:	8000 37e0 c379 4341 a000 85d8 3457 4376     ...7y.AC....W4vC
    9bb0:	c800 674e c16d 43ab 3d00 6091 58e4 43e1     ..Ngm..C.=.`.X.C
    9bc0:	8c40 78b5 af1d 4415 ef50 d6e2 1ae4 444b     @..x...DP.....KD
    9bd0:	d592 064d f0cf 4480 4af6 c7e1 2d02 44b5     ..M....D.J...-.D
    9be0:	9db4 79d9 7843 44ea                         ...yCx.D

00009be8 <__mprec_bigtens>:
    9be8:	8000 37e0 c379 4341 6e17 b505 b8b5 4693     ...7y.AC.n.....F
    9bf8:	f9f5 e93f 4f03 4d38 1d32 f930 7748 5a82     ..?..O8M2.0.Hw.Z
    9c08:	bf3c 7f73 4fdd 7515                         <.s..O.u

00009c10 <__mprec_tinytens>:
    9c10:	89bc 97d8 d2b2 3c9c a733 d5a8 f623 3949     .......<3...#.I9
    9c20:	a73d 44f4 0ffd 32a5 979d cf8c ba08 255b     =..D...2......[%
    9c30:	6f43 64ac 0628 0ac8                         Co.d(...

00009c38 <blanks.3882>:
    9c38:	2020 2020 2020 2020 2020 2020 2020 2020                     

00009c48 <zeroes.3883>:
    9c48:	3030 3030 3030 3030 3030 3030 3030 3030     0000000000000000
